Archive member included to satisfy reference by file (symbol)

c:/program files/microchip/xc8/v2.40/avr/bin/../lib/gcc/avr/5.4.0/../../../../avr/lib/avrxmega2/memx-const/mapped\libm.a(addsf3.o)
                              dist/pro/production/__pa_temp_15376/libm_a_sqrtf.o (__subsf3)
c:/program files/microchip/xc8/v2.40/avr/bin/../lib/gcc/avr/5.4.0/../../../../avr/lib/avrxmega2/memx-const/mapped\libm.a(cmpsf2.o)
                              dist/pro/production/__pa_temp_15376/libm_a_powf.o (__lesf2)
c:/program files/microchip/xc8/v2.40/avr/bin/../lib/gcc/avr/5.4.0/../../../../avr/lib/avrxmega2/memx-const/mapped\libm.a(divsf3.o)
                              dist/pro/production/__pa_temp_15376/libm_a_sqrtf.o (__divsf3)
c:/program files/microchip/xc8/v2.40/avr/bin/../lib/gcc/avr/5.4.0/../../../../avr/lib/avrxmega2/memx-const/mapped\libm.a(fixsfsi.o)
                              dist/pro/production/__pa_temp_15376/application.o (__fixsfsi)
c:/program files/microchip/xc8/v2.40/avr/bin/../lib/gcc/avr/5.4.0/../../../../avr/lib/avrxmega2/memx-const/mapped\libm.a(fp_cmp.o)
                              c:/program files/microchip/xc8/v2.40/avr/bin/../lib/gcc/avr/5.4.0/../../../../avr/lib/avrxmega2/memx-const/mapped\libm.a(cmpsf2.o) (__fp_cmp)
c:/program files/microchip/xc8/v2.40/avr/bin/../lib/gcc/avr/5.4.0/../../../../avr/lib/avrxmega2/memx-const/mapped\libm.a(fp_inf.o)
                              dist/pro/production/__pa_temp_15376/libm_a_mulsf3x.o (__fp_inf)
c:/program files/microchip/xc8/v2.40/avr/bin/../lib/gcc/avr/5.4.0/../../../../avr/lib/avrxmega2/memx-const/mapped\libm.a(fp_nan.o)
                              dist/pro/production/__pa_temp_15376/libm_a_mulsf3x.o (__fp_nan)
c:/program files/microchip/xc8/v2.40/avr/bin/../lib/gcc/avr/5.4.0/../../../../avr/lib/avrxmega2/memx-const/mapped\libm.a(fp_pscA.o)
                              dist/pro/production/__pa_temp_15376/libm_a_mulsf3x.o (__fp_pscA)
c:/program files/microchip/xc8/v2.40/avr/bin/../lib/gcc/avr/5.4.0/../../../../avr/lib/avrxmega2/memx-const/mapped\libm.a(fp_pscB.o)
                              dist/pro/production/__pa_temp_15376/libm_a_mulsf3x.o (__fp_pscB)
c:/program files/microchip/xc8/v2.40/avr/bin/../lib/gcc/avr/5.4.0/../../../../avr/lib/avrxmega2/memx-const/mapped\libm.a(fp_round.o)
                              c:/program files/microchip/xc8/v2.40/avr/bin/../lib/gcc/avr/5.4.0/../../../../avr/lib/avrxmega2/memx-const/mapped\libm.a(addsf3.o) (__fp_round)
c:/program files/microchip/xc8/v2.40/avr/bin/../lib/gcc/avr/5.4.0/../../../../avr/lib/avrxmega2/memx-const/mapped\libm.a(fp_split3.o)
                              dist/pro/production/__pa_temp_15376/libm_a_mulsf3x.o (__fp_split3)
c:/program files/microchip/xc8/v2.40/avr/bin/../lib/gcc/avr/5.4.0/../../../../avr/lib/avrxmega2/memx-const/mapped\libm.a(fp_zero.o)
                              dist/pro/production/__pa_temp_15376/libm_a_fixunssfsi.o (__fp_zero)
c:/program files/microchip/xc8/v2.40/avr/bin/../lib/gcc/avr/5.4.0/../../../../avr/lib/avrxmega2/memx-const/mapped\libm.a(gesf2.o)
                              dist/pro/production/__pa_temp_15376/libm_a_sqrtf.o (__gesf2)
c:/program files/microchip/xc8/v2.40/avr/bin/../lib/gcc/avr/5.4.0/../../../../avr/lib/avrxmega2/memx-const/mapped\libm.a(mulsf3.o)
                              dist/pro/production/__pa_temp_15376/libm_a_sqrtf.o (__mulsf3)
c:/program files/microchip/xc8/v2.40/avr/bin/../lib/gcc/avr/5.4.0/../../../../avr/lib/avrxmega2/memx-const/mapped\libm.a(fabsf.o)
                              dist/pro/production/__pa_temp_15376/libm_a_powf.o (fabsf)
c:/program files/microchip/xc8/v2.40/avr/bin/../lib/gcc/avr/5.4.0/avrxmega2/memx-const/mapped\libgcc.a(_mulsi3.o)
                              dist/pro/production/__pa_temp_15376/bme280.o (__mulsi3)
c:/program files/microchip/xc8/v2.40/avr/bin/../lib/gcc/avr/5.4.0/avrxmega2/memx-const/mapped\libgcc.a(_udivmodsi4.o)
                              dist/pro/production/__pa_temp_15376/libc_a___fmt_u.o (__udivmodsi4)
c:/program files/microchip/xc8/v2.40/avr/bin/../lib/gcc/avr/5.4.0/avrxmega2/memx-const/mapped\libgcc.a(_tablejump2.o)
                              dist/pro/production/__pa_temp_15376/application.o (__tablejump2__)
c:/program files/microchip/xc8/v2.40/avr/bin/../lib/gcc/avr/5.4.0/avrxmega2/memx-const/mapped\libgcc.a(_copy_data.o)
                              dist/pro/production/__pa_temp_15376/libm_a_powf.o (__do_copy_data)
c:/program files/microchip/xc8/v2.40/avr/bin/../lib/gcc/avr/5.4.0/avrxmega2/memx-const/mapped\libgcc.a(_muluhisi3.o)
                              dist/pro/production/__pa_temp_15376/bme280.o (__muluhisi3)
c:/program files/microchip/xc8/v2.40/avr/bin/../lib/gcc/avr/5.4.0/avrxmega2/memx-const/mapped\libgcc.a(_mulshisi3.o)
                              dist/pro/production/__pa_temp_15376/bme280.o (__mulshisi3)
c:/program files/microchip/xc8/v2.40/avr/bin/../lib/gcc/avr/5.4.0/avrxmega2/memx-const/mapped\libgcc.a(_prologue.o)
                              dist/pro/production/__pa_temp_15376/libm_a_powf.o (__prologue_saves__)
c:/program files/microchip/xc8/v2.40/avr/bin/../lib/gcc/avr/5.4.0/avrxmega2/memx-const/mapped\libgcc.a(_epilogue.o)
                              dist/pro/production/__pa_temp_15376/libm_a_powf.o (__epilogue_restores__)
c:/program files/microchip/xc8/v2.40/avr/bin/../lib/gcc/avr/5.4.0/avrxmega2/memx-const/mapped\libgcc.a(_umulhisi3.o)
                              c:/program files/microchip/xc8/v2.40/avr/bin/../lib/gcc/avr/5.4.0/avrxmega2/memx-const/mapped\libgcc.a(_muluhisi3.o) (__umulhisi3)
c:/program files/microchip/xc8/v2.40/avr/bin/../lib/gcc/avr/5.4.0/../../../../avr/lib/avrxmega2/memx-const/mapped\libc.a(tolower.o)
                              dist/pro/production/__pa_temp_15376/libc_a___printf_core.o (tolower)
c:/program files/microchip/xc8/v2.40/avr/bin/../lib/gcc/avr/5.4.0/../../../../avr/lib/avrxmega2/memx-const/mapped\libc.a(toupper.o)
                              dist/pro/production/__pa_temp_15376/libc_a___fmt_x.o (toupper)
c:/program files/microchip/xc8/v2.40/avr/bin/../lib/gcc/avr/5.4.0/../../../../avr/lib/avrxmega2/memx-const/mapped\libc.a(errno.o)
                              dist/pro/production/__pa_temp_15376/libm_a_sqrtf.o (__errno_val)
c:/program files/microchip/xc8/v2.40/avr/bin/../lib/gcc/avr/5.4.0/../../../../avr/lib/avrxmega2/memx-const/mapped\libc.a(exit.o)
                              C:/Users/C70348/.mchp_packs/Microchip/AVR-Dx_DFP/2.1.152/xc8/avr/lib/avrxmega2/memx-const/mapped/crtavr64dd32.o (exit)
c:/program files/microchip/xc8/v2.40/avr/bin/../lib/gcc/avr/5.4.0/../../../../avr/lib/avrxmega2/memx-const/mapped\libc.a(__sio_sprintf_doux.o)
                              dist/pro/production/__pa_temp_15376/RN2xx3.o (_sprintf_cdopuxX)
c:/program files/microchip/xc8/v2.40/avr/bin/../lib/gcc/avr/5.4.0/../../../../avr/lib/avrxmega2/memx-const/mapped\libc.a(__fmt_s.o)
                              dist/pro/production/__pa_temp_15376/libc_a___sio_printf_s.o (__fmt_s_needed)
c:/program files/microchip/xc8/v2.40/avr/bin/../lib/gcc/avr/5.4.0/../../../../avr/lib/avrxmega2/memx-const/mapped\libc.a(fputc.o)
                              dist/pro/production/__pa_temp_15376/libc_a___printf_core.o (fputc)
c:/program files/microchip/xc8/v2.40/avr/bin/../lib/gcc/avr/5.4.0/../../../../avr/lib/avrxmega2/memx-const/mapped\libc.a(puts.o)
                              build/pro/production/main.o (puts)
c:/program files/microchip/xc8/v2.40/avr/bin/../lib/gcc/avr/5.4.0/../../../../avr/lib/avrxmega2/memx-const/mapped\libc.a(stdout.o)
                              dist/pro/production/__pa_temp_15376/libc_a___sio_printf_s.o (_stdout)
c:/program files/microchip/xc8/v2.40/avr/bin/../lib/gcc/avr/5.4.0/../../../../avr/lib/avrxmega2/memx-const/mapped\libc.a(strlen.o)
                              c:/program files/microchip/xc8/v2.40/avr/bin/../lib/gcc/avr/5.4.0/../../../../avr/lib/avrxmega2/memx-const/mapped\libc.a(__fmt_s.o) (strlen)
c:/program files/microchip/xc8/v2.40/avr/bin/../lib/gcc/avr/5.4.0/../../../../avr/lib/avrxmega2/memx-const/mapped\libc.a(_Exit.o)
                              c:/program files/microchip/xc8/v2.40/avr/bin/../lib/gcc/avr/5.4.0/../../../../avr/lib/avrxmega2/memx-const/mapped\libc.a(exit.o) (_Exit)
c:/program files/microchip/xc8/v2.40/avr/bin/../lib/gcc/avr/5.4.0/../../../../avr/lib/avrxmega2/memx-const/mapped\libc.a(__int_vsprintf.o)
                              c:/program files/microchip/xc8/v2.40/avr/bin/../lib/gcc/avr/5.4.0/../../../../avr/lib/avrxmega2/memx-const/mapped\libc.a(__sio_sprintf_doux.o) (__vsprintf)
c:/program files/microchip/xc8/v2.40/avr/bin/../lib/gcc/avr/5.4.0/../../../../avr/lib/avrxmega2/memx-const/mapped\libc.a(fputs.o)
                              c:/program files/microchip/xc8/v2.40/avr/bin/../lib/gcc/avr/5.4.0/../../../../avr/lib/avrxmega2/memx-const/mapped\libc.a(puts.o) (fputs)
c:/program files/microchip/xc8/v2.40/avr/bin/../lib/gcc/avr/5.4.0/avrxmega2/memx-const/mapped\libgcc.a(_exit.o)
                              c:/program files/microchip/xc8/v2.40/avr/bin/../lib/gcc/avr/5.4.0/../../../../avr/lib/avrxmega2/memx-const/mapped\libc.a(_Exit.o) (_exit)

Allocating common symbols
Common symbol       size              file

__stdout_used       0x2               c:/program files/microchip/xc8/v2.40/avr/bin/../lib/gcc/avr/5.4.0/../../../../avr/lib/avrxmega2/memx-const/mapped\libc.a(stdout.o)
__errno_val         0x2               c:/program files/microchip/xc8/v2.40/avr/bin/../lib/gcc/avr/5.4.0/../../../../avr/lib/avrxmega2/memx-const/mapped\libc.a(errno.o)

Discarded input sections

 .text          0x0000000000000000        0x0 dist/pro/production/__pa_temp_15376/libm_a_sqrtf.o
 .data          0x0000000000000000        0x0 dist/pro/production/__pa_temp_15376/libm_a_sqrtf.o
 .bss           0x0000000000000000        0x0 dist/pro/production/__pa_temp_15376/libm_a_sqrtf.o
 .text          0x0000000000000000        0x0 dist/pro/production/__pa_temp_15376/libm_a_scalbnf.o
 .data          0x0000000000000000        0x0 dist/pro/production/__pa_temp_15376/libm_a_scalbnf.o
 .bss           0x0000000000000000        0x0 dist/pro/production/__pa_temp_15376/libm_a_scalbnf.o
 .text          0x0000000000000000        0x0 dist/pro/production/__pa_temp_15376/libm_a_powf.o
 .data          0x0000000000000000        0x0 dist/pro/production/__pa_temp_15376/libm_a_powf.o
 .bss           0x0000000000000000        0x0 dist/pro/production/__pa_temp_15376/libm_a_powf.o
 .data          0x0000000000000000        0x0 dist/pro/production/__pa_temp_15376/libm_a_mulsf3x.o
 .bss           0x0000000000000000        0x0 dist/pro/production/__pa_temp_15376/libm_a_mulsf3x.o
 .stack.descriptors
                0x0000000000000000       0x31 dist/pro/production/__pa_temp_15376/libm_a_mulsf3x.o
 .data          0x0000000000000000        0x0 dist/pro/production/__pa_temp_15376/libm_a_floatsisf.o
 .bss           0x0000000000000000        0x0 dist/pro/production/__pa_temp_15376/libm_a_floatsisf.o
 .stack.descriptors
                0x0000000000000000       0x34 dist/pro/production/__pa_temp_15376/libm_a_floatsisf.o
 .data          0x0000000000000000        0x0 dist/pro/production/__pa_temp_15376/libm_a_fixunssfsi.o
 .bss           0x0000000000000000        0x0 dist/pro/production/__pa_temp_15376/libm_a_fixunssfsi.o
 .stack.descriptors
                0x0000000000000000       0x1a dist/pro/production/__pa_temp_15376/libm_a_fixunssfsi.o
 .data          0x0000000000000000        0x0 dist/pro/production/__pa_temp_15376/libm_a_divsf3x.o
 .bss           0x0000000000000000        0x0 dist/pro/production/__pa_temp_15376/libm_a_divsf3x.o
 .stack.descriptors
                0x0000000000000000       0x31 dist/pro/production/__pa_temp_15376/libm_a_divsf3x.o
 .data          0x0000000000000000        0x0 dist/pro/production/__pa_temp_15376/libm_a_addsf3x.o
 .bss           0x0000000000000000        0x0 dist/pro/production/__pa_temp_15376/libm_a_addsf3x.o
 .stack.descriptors
                0x0000000000000000       0x17 dist/pro/production/__pa_temp_15376/libm_a_addsf3x.o
 .text          0x0000000000000000        0x0 dist/pro/production/__pa_temp_15376/libc_a___sio_printf_s.o
 .data          0x0000000000000000        0x0 dist/pro/production/__pa_temp_15376/libc_a___sio_printf_s.o
 .bss           0x0000000000000000        0x0 dist/pro/production/__pa_temp_15376/libc_a___sio_printf_s.o
 .text.__sio_printf_s
                0x0000000000000000        0x6 dist/pro/production/__pa_temp_15376/libc_a___sio_printf_s.o
 .text          0x0000000000000000        0x0 dist/pro/production/__pa_temp_15376/libc_a___sio_printf_doux.o
 .data          0x0000000000000000        0x0 dist/pro/production/__pa_temp_15376/libc_a___sio_printf_doux.o
 .bss           0x0000000000000000        0x0 dist/pro/production/__pa_temp_15376/libc_a___sio_printf_doux.o
 .text.__sio_printf_doux
                0x0000000000000000       0x1a dist/pro/production/__pa_temp_15376/libc_a___sio_printf_doux.o
 .text          0x0000000000000000        0x0 dist/pro/production/__pa_temp_15376/libc_a___sio_printf_dosux.o
 .data          0x0000000000000000        0x0 dist/pro/production/__pa_temp_15376/libc_a___sio_printf_dosux.o
 .bss           0x0000000000000000        0x0 dist/pro/production/__pa_temp_15376/libc_a___sio_printf_dosux.o
 .text.__sio_printf_dosux
                0x0000000000000000       0x1a dist/pro/production/__pa_temp_15376/libc_a___sio_printf_dosux.o
 .text          0x0000000000000000        0x0 dist/pro/production/__pa_temp_15376/libc_a___printf_core.o
 .data          0x0000000000000000        0x0 dist/pro/production/__pa_temp_15376/libc_a___printf_core.o
 .bss           0x0000000000000000        0x0 dist/pro/production/__pa_temp_15376/libc_a___printf_core.o
 .text          0x0000000000000000        0x0 dist/pro/production/__pa_temp_15376/libc_a___pop_int.o
 .data          0x0000000000000000        0x0 dist/pro/production/__pa_temp_15376/libc_a___pop_int.o
 .bss           0x0000000000000000        0x0 dist/pro/production/__pa_temp_15376/libc_a___pop_int.o
 .text          0x0000000000000000        0x0 dist/pro/production/__pa_temp_15376/libc_a___int_vsnprintf.o
 .data          0x0000000000000000        0x0 dist/pro/production/__pa_temp_15376/libc_a___int_vsnprintf.o
 .bss           0x0000000000000000        0x0 dist/pro/production/__pa_temp_15376/libc_a___int_vsnprintf.o
 .text          0x0000000000000000        0x0 dist/pro/production/__pa_temp_15376/libc_a___int_vfprintf.o
 .data          0x0000000000000000        0x0 dist/pro/production/__pa_temp_15376/libc_a___int_vfprintf.o
 .bss           0x0000000000000000        0x0 dist/pro/production/__pa_temp_15376/libc_a___int_vfprintf.o
 .text          0x0000000000000000        0x0 dist/pro/production/__pa_temp_15376/libc_a___fmt_x.o
 .data          0x0000000000000000        0x0 dist/pro/production/__pa_temp_15376/libc_a___fmt_x.o
 .bss           0x0000000000000000        0x0 dist/pro/production/__pa_temp_15376/libc_a___fmt_x.o
 .text          0x0000000000000000        0x0 dist/pro/production/__pa_temp_15376/libc_a___fmt_u.o
 .data          0x0000000000000000        0x0 dist/pro/production/__pa_temp_15376/libc_a___fmt_u.o
 .bss           0x0000000000000000        0x0 dist/pro/production/__pa_temp_15376/libc_a___fmt_u.o
 .text          0x0000000000000000        0x0 dist/pro/production/__pa_temp_15376/libc_a___fmt_o.o
 .data          0x0000000000000000        0x0 dist/pro/production/__pa_temp_15376/libc_a___fmt_o.o
 .bss           0x0000000000000000        0x0 dist/pro/production/__pa_temp_15376/libc_a___fmt_o.o
 .text          0x0000000000000000        0x0 dist/pro/production/__pa_temp_15376/libc_a___fmt_d.o
 .data          0x0000000000000000        0x0 dist/pro/production/__pa_temp_15376/libc_a___fmt_d.o
 .bss           0x0000000000000000        0x0 dist/pro/production/__pa_temp_15376/libc_a___fmt_d.o
 .data          0x0000000000000000        0x0 C:/Users/C70348/.mchp_packs/Microchip/AVR-Dx_DFP/2.1.152/xc8/avr/lib/avrxmega2/memx-const/mapped/crtavr64dd32.o
 .bss           0x0000000000000000        0x0 C:/Users/C70348/.mchp_packs/Microchip/AVR-Dx_DFP/2.1.152/xc8/avr/lib/avrxmega2/memx-const/mapped/crtavr64dd32.o
 .text          0x0000000000000000        0x0 build/pro/production/mcc_generated_files/adc/src/adc0.o
 .data          0x0000000000000000        0x0 build/pro/production/mcc_generated_files/adc/src/adc0.o
 .bss           0x0000000000000000        0x0 build/pro/production/mcc_generated_files/adc/src/adc0.o
 .text.ADC0_Enable
                0x0000000000000000        0xc build/pro/production/mcc_generated_files/adc/src/adc0.o
 .text.ADC0_Disable
                0x0000000000000000        0xc build/pro/production/mcc_generated_files/adc/src/adc0.o
 .text.ADC0_EnableAutoTrigger
                0x0000000000000000        0xc build/pro/production/mcc_generated_files/adc/src/adc0.o
 .text.ADC0_DisableAutoTrigger
                0x0000000000000000        0xc build/pro/production/mcc_generated_files/adc/src/adc0.o
 .text.ADC0_SetWindowHigh
                0x0000000000000000        0xa build/pro/production/mcc_generated_files/adc/src/adc0.o
 .text.ADC0_SetWindowLow
                0x0000000000000000        0xa build/pro/production/mcc_generated_files/adc/src/adc0.o
 .text.ADC0_SetWindowMode
                0x0000000000000000        0x6 build/pro/production/mcc_generated_files/adc/src/adc0.o
 .text.ADC0_SetWindowChannel
                0x0000000000000000        0x6 build/pro/production/mcc_generated_files/adc/src/adc0.o
 .text.ADC0_StartConversion
                0x0000000000000000        0xc build/pro/production/mcc_generated_files/adc/src/adc0.o
 .text.ADC0_StartDiffConversion
                0x0000000000000000        0xe build/pro/production/mcc_generated_files/adc/src/adc0.o
 .text.ADC0_StopConversion
                0x0000000000000000        0x8 build/pro/production/mcc_generated_files/adc/src/adc0.o
 .text.ADC0_GetConversionResult
                0x0000000000000000        0xa build/pro/production/mcc_generated_files/adc/src/adc0.o
 .text.ADC0_GetWindowResult
                0x0000000000000000       0x10 build/pro/production/mcc_generated_files/adc/src/adc0.o
 .text.ADC0_GetDiffConversion
                0x0000000000000000       0x2c build/pro/production/mcc_generated_files/adc/src/adc0.o
 .text.ADC0_GetResolution
                0x0000000000000000       0x10 build/pro/production/mcc_generated_files/adc/src/adc0.o
 .text.ADC0_RegisterWindowCallback
                0x0000000000000000        0xa build/pro/production/mcc_generated_files/adc/src/adc0.o
 .text.ADC0_RegisterResrdyCallback
                0x0000000000000000        0xa build/pro/production/mcc_generated_files/adc/src/adc0.o
 .text          0x0000000000000000        0x0 dist/pro/production/__pa_temp_15376/evsys.o
 .data          0x0000000000000000        0x0 dist/pro/production/__pa_temp_15376/evsys.o
 .bss           0x0000000000000000        0x0 dist/pro/production/__pa_temp_15376/evsys.o
 .text.EVSYS_SoftwareEventASet
                0x0000000000000000        0x6 dist/pro/production/__pa_temp_15376/evsys.o
 .text.EVSYS_SoftwareEventBSet
                0x0000000000000000        0x6 dist/pro/production/__pa_temp_15376/evsys.o
 .text          0x0000000000000000        0x0 dist/pro/production/__pa_temp_15376/clock.o
 .data          0x0000000000000000        0x0 dist/pro/production/__pa_temp_15376/clock.o
 .bss           0x0000000000000000        0x0 dist/pro/production/__pa_temp_15376/clock.o
 .text.CFD_Enable
                0x0000000000000000        0xc dist/pro/production/__pa_temp_15376/clock.o
 .text.CFD_Disable
                0x0000000000000000        0xe dist/pro/production/__pa_temp_15376/clock.o
 .text          0x0000000000000000        0x0 build/pro/production/mcc_generated_files/system/src/system.o
 .data          0x0000000000000000        0x0 build/pro/production/mcc_generated_files/system/src/system.o
 .bss           0x0000000000000000        0x0 build/pro/production/mcc_generated_files/system/src/system.o
 .text          0x0000000000000000        0x0 build/pro/production/mcc_generated_files/system/src/config_bits.o
 .data          0x0000000000000000        0x0 build/pro/production/mcc_generated_files/system/src/config_bits.o
 .bss           0x0000000000000000        0x0 build/pro/production/mcc_generated_files/system/src/config_bits.o
 .text          0x0000000000000000        0x0 dist/pro/production/__pa_temp_15376/pins.o
 .data          0x0000000000000000        0x0 dist/pro/production/__pa_temp_15376/pins.o
 .bss           0x0000000000000000        0x0 dist/pro/production/__pa_temp_15376/pins.o
 .text.PC1_SetInterruptHandler
                0x0000000000000000        0xa dist/pro/production/__pa_temp_15376/pins.o
 .text.PC0_SetInterruptHandler
                0x0000000000000000        0xa dist/pro/production/__pa_temp_15376/pins.o
 .text.PD2_SetInterruptHandler
                0x0000000000000000        0xa dist/pro/production/__pa_temp_15376/pins.o
 .text.PD5_SetInterruptHandler
                0x0000000000000000        0xa dist/pro/production/__pa_temp_15376/pins.o
 .text.PD4_SetInterruptHandler
                0x0000000000000000        0xa dist/pro/production/__pa_temp_15376/pins.o
 .text.PF6_SetInterruptHandler
                0x0000000000000000        0xa dist/pro/production/__pa_temp_15376/pins.o
 .text.PA0_SetInterruptHandler
                0x0000000000000000        0xa dist/pro/production/__pa_temp_15376/pins.o
 .text.PA1_SetInterruptHandler
                0x0000000000000000        0xa dist/pro/production/__pa_temp_15376/pins.o
 .text.PC2_SetInterruptHandler
                0x0000000000000000        0xa dist/pro/production/__pa_temp_15376/pins.o
 .text.PD1_SetInterruptHandler
                0x0000000000000000        0xa dist/pro/production/__pa_temp_15376/pins.o
 .text.PF5_SetInterruptHandler
                0x0000000000000000        0xa dist/pro/production/__pa_temp_15376/pins.o
 .text          0x0000000000000000        0x0 build/pro/production/mcc_generated_files/system/src/protected_io.o
 .data          0x0000000000000000        0x0 build/pro/production/mcc_generated_files/system/src/protected_io.o
 .bss           0x0000000000000000        0x0 build/pro/production/mcc_generated_files/system/src/protected_io.o
 .text          0x0000000000000000        0x0 build/pro/production/mcc_generated_files/system/src/interrupt.o
 .data          0x0000000000000000        0x0 build/pro/production/mcc_generated_files/system/src/interrupt.o
 .bss           0x0000000000000000        0x0 build/pro/production/mcc_generated_files/system/src/interrupt.o
 .text          0x0000000000000000        0x0 dist/pro/production/__pa_temp_15376/tcb0.o
 .data          0x0000000000000000        0x0 dist/pro/production/__pa_temp_15376/tcb0.o
 .bss           0x0000000000000000        0x0 dist/pro/production/__pa_temp_15376/tcb0.o
 .text.TCB0_Start
                0x0000000000000000        0xc dist/pro/production/__pa_temp_15376/tcb0.o
 .text.TCB0_Stop
                0x0000000000000000        0xc dist/pro/production/__pa_temp_15376/tcb0.o
 .text.TCB0_Write
                0x0000000000000000        0xa dist/pro/production/__pa_temp_15376/tcb0.o
 .text.TCB0_Read
                0x0000000000000000        0xa dist/pro/production/__pa_temp_15376/tcb0.o
 .text.TCB0_EnableCaptInterrupt
                0x0000000000000000        0xc dist/pro/production/__pa_temp_15376/tcb0.o
 .text.TCB0_EnableOvfInterrupt
                0x0000000000000000        0xc dist/pro/production/__pa_temp_15376/tcb0.o
 .text.TCB0_DisableCaptInterrupt
                0x0000000000000000        0xc dist/pro/production/__pa_temp_15376/tcb0.o
 .text.TCB0_DisableOvfInterrupt
                0x0000000000000000        0xc dist/pro/production/__pa_temp_15376/tcb0.o
 .text.TCB0_ClearCaptInterruptFlag
                0x0000000000000000        0xc dist/pro/production/__pa_temp_15376/tcb0.o
 .text.TCB0_ClearOvfInterruptFlag
                0x0000000000000000        0xc dist/pro/production/__pa_temp_15376/tcb0.o
 .text.TCB0_IsCaptInterruptEnabled
                0x0000000000000000        0xc dist/pro/production/__pa_temp_15376/tcb0.o
 .text.TCB0_IsOvfInterruptEnabled
                0x0000000000000000        0xc dist/pro/production/__pa_temp_15376/tcb0.o
 .rodata.TCB0_Interface
                0x0000000000000000        0xc dist/pro/production/__pa_temp_15376/tcb0.o
 .text          0x0000000000000000        0x0 build/pro/production/mcc_generated_files/timer/src/rtc.o
 .data          0x0000000000000000        0x0 build/pro/production/mcc_generated_files/timer/src/rtc.o
 .bss           0x0000000000000000        0x0 build/pro/production/mcc_generated_files/timer/src/rtc.o
 .text.RTC_SetOVFIsrCallback
                0x0000000000000000        0xa build/pro/production/mcc_generated_files/timer/src/rtc.o
 .text.RTC_SetCMPIsrCallback
                0x0000000000000000        0xa build/pro/production/mcc_generated_files/timer/src/rtc.o
 .text.RTC_WriteCounter
                0x0000000000000000       0x12 build/pro/production/mcc_generated_files/timer/src/rtc.o
 .text.RTC_ReadCounter
                0x0000000000000000        0xa build/pro/production/mcc_generated_files/timer/src/rtc.o
 .text.RTC_WritePeriod
                0x0000000000000000       0x12 build/pro/production/mcc_generated_files/timer/src/rtc.o
 .text.RTC_ReadPeriod
                0x0000000000000000        0xa build/pro/production/mcc_generated_files/timer/src/rtc.o
 .text.RTC_EnableCMPInterrupt
                0x0000000000000000        0xc build/pro/production/mcc_generated_files/timer/src/rtc.o
 .text.RTC_DisableCMPInterrupt
                0x0000000000000000        0xc build/pro/production/mcc_generated_files/timer/src/rtc.o
 .text.RTC_EnableOVFInterrupt
                0x0000000000000000        0xc build/pro/production/mcc_generated_files/timer/src/rtc.o
 .text.RTC_DisableOVFInterrupt
                0x0000000000000000        0xc build/pro/production/mcc_generated_files/timer/src/rtc.o
 .text.RTC_EnablePITInterrupt
                0x0000000000000000        0xc build/pro/production/mcc_generated_files/timer/src/rtc.o
 .text.RTC_DisablePITInterrupt
                0x0000000000000000        0xc build/pro/production/mcc_generated_files/timer/src/rtc.o
 .text.RTC_ClearOVFInterruptFlag
                0x0000000000000000        0x8 build/pro/production/mcc_generated_files/timer/src/rtc.o
 .text.RTC_IsOVFInterruptEnabled
                0x0000000000000000        0xc build/pro/production/mcc_generated_files/timer/src/rtc.o
 .text          0x0000000000000000        0x0 dist/pro/production/__pa_temp_15376/tcb1.o
 .data          0x0000000000000000        0x0 dist/pro/production/__pa_temp_15376/tcb1.o
 .bss           0x0000000000000000        0x0 dist/pro/production/__pa_temp_15376/tcb1.o
 .text.TCB1_Start
                0x0000000000000000        0xc dist/pro/production/__pa_temp_15376/tcb1.o
 .text.TCB1_Stop
                0x0000000000000000        0xc dist/pro/production/__pa_temp_15376/tcb1.o
 .text.TCB1_Write
                0x0000000000000000        0xa dist/pro/production/__pa_temp_15376/tcb1.o
 .text.TCB1_Read
                0x0000000000000000        0xa dist/pro/production/__pa_temp_15376/tcb1.o
 .text.TCB1_EnableCaptInterrupt
                0x0000000000000000        0xc dist/pro/production/__pa_temp_15376/tcb1.o
 .text.TCB1_EnableOvfInterrupt
                0x0000000000000000        0xc dist/pro/production/__pa_temp_15376/tcb1.o
 .text.TCB1_DisableCaptInterrupt
                0x0000000000000000        0xc dist/pro/production/__pa_temp_15376/tcb1.o
 .text.TCB1_DisableOvfInterrupt
                0x0000000000000000        0xc dist/pro/production/__pa_temp_15376/tcb1.o
 .text.TCB1_ClearCaptInterruptFlag
                0x0000000000000000        0xc dist/pro/production/__pa_temp_15376/tcb1.o
 .text.TCB1_ClearOvfInterruptFlag
                0x0000000000000000        0xc dist/pro/production/__pa_temp_15376/tcb1.o
 .text.TCB1_IsCaptInterruptEnabled
                0x0000000000000000        0xc dist/pro/production/__pa_temp_15376/tcb1.o
 .text.TCB1_IsOvfInterruptEnabled
                0x0000000000000000        0xc dist/pro/production/__pa_temp_15376/tcb1.o
 .rodata.TCB1_Interface
                0x0000000000000000        0xc dist/pro/production/__pa_temp_15376/tcb1.o
 .text          0x0000000000000000        0x0 dist/pro/production/__pa_temp_15376/usart0.o
 .data          0x0000000000000000        0x0 dist/pro/production/__pa_temp_15376/usart0.o
 .bss           0x0000000000000000        0x0 dist/pro/production/__pa_temp_15376/usart0.o
 .text.USART0_Deinitialize
                0x0000000000000000       0x18 dist/pro/production/__pa_temp_15376/usart0.o
 .text.USART0_TransmitEnable
                0x0000000000000000        0xc dist/pro/production/__pa_temp_15376/usart0.o
 .text.USART0_TransmitDisable
                0x0000000000000000        0xc dist/pro/production/__pa_temp_15376/usart0.o
 .text.USART0_IsTxDone
                0x0000000000000000        0xc dist/pro/production/__pa_temp_15376/usart0.o
 .text.USART0_ErrorGet
                0x0000000000000000       0x72 dist/pro/production/__pa_temp_15376/usart0.o
 .text.USART0_FramingErrorCallbackRegister
                0x0000000000000000        0xe dist/pro/production/__pa_temp_15376/usart0.o
 .text.USART0_OverrunErrorCallbackRegister
                0x0000000000000000        0xe dist/pro/production/__pa_temp_15376/usart0.o
 .text.USART0_ParityErrorCallbackRegister
                0x0000000000000000        0xe dist/pro/production/__pa_temp_15376/usart0.o
 .text.USART0_Enable
                0x0000000000000000        0xc dist/pro/production/__pa_temp_15376/usart0.o
 .text.USART0_Disable
                0x0000000000000000        0xc dist/pro/production/__pa_temp_15376/usart0.o
 .text.USART0_ReceiveEnable
                0x0000000000000000        0xc dist/pro/production/__pa_temp_15376/usart0.o
 .text.USART0_ReceiveDisable
                0x0000000000000000        0xc dist/pro/production/__pa_temp_15376/usart0.o
 .rodata.UART0  0x0000000000000000       0x30 dist/pro/production/__pa_temp_15376/usart0.o
 .text          0x0000000000000000        0x0 dist/pro/production/__pa_temp_15376/usart1.o
 .data          0x0000000000000000        0x0 dist/pro/production/__pa_temp_15376/usart1.o
 .bss           0x0000000000000000        0x0 dist/pro/production/__pa_temp_15376/usart1.o
 .text.USART1_Deinitialize
                0x0000000000000000       0x18 dist/pro/production/__pa_temp_15376/usart1.o
 .text.USART1_TransmitEnable
                0x0000000000000000        0xc dist/pro/production/__pa_temp_15376/usart1.o
 .text.USART1_TransmitDisable
                0x0000000000000000        0xc dist/pro/production/__pa_temp_15376/usart1.o
 .text.USART1_IsTxDone
                0x0000000000000000        0xc dist/pro/production/__pa_temp_15376/usart1.o
 .text.USART1_ErrorGet
                0x0000000000000000       0x72 dist/pro/production/__pa_temp_15376/usart1.o
 .text.USART1_FramingErrorCallbackRegister
                0x0000000000000000        0xe dist/pro/production/__pa_temp_15376/usart1.o
 .text.USART1_OverrunErrorCallbackRegister
                0x0000000000000000        0xe dist/pro/production/__pa_temp_15376/usart1.o
 .text.USART1_ParityErrorCallbackRegister
                0x0000000000000000        0xe dist/pro/production/__pa_temp_15376/usart1.o
 .text.USART1_Enable
                0x0000000000000000        0xc dist/pro/production/__pa_temp_15376/usart1.o
 .text.USART1_Disable
                0x0000000000000000        0xc dist/pro/production/__pa_temp_15376/usart1.o
 .text.USART1_ReceiveEnable
                0x0000000000000000        0xc dist/pro/production/__pa_temp_15376/usart1.o
 .text.USART1_ReceiveDisable
                0x0000000000000000        0xc dist/pro/production/__pa_temp_15376/usart1.o
 .rodata.UART1  0x0000000000000000       0x30 dist/pro/production/__pa_temp_15376/usart1.o
 .text          0x0000000000000000        0x0 build/pro/production/mcc_generated_files/vref/src/vref.o
 .data          0x0000000000000000        0x0 build/pro/production/mcc_generated_files/vref/src/vref.o
 .bss           0x0000000000000000        0x0 build/pro/production/mcc_generated_files/vref/src/vref.o
 .text          0x0000000000000000        0x0 build/pro/production/main.o
 .data          0x0000000000000000        0x0 build/pro/production/main.o
 .bss           0x0000000000000000        0x0 build/pro/production/main.o
 .text          0x0000000000000000        0x0 dist/pro/production/__pa_temp_15376/application.o
 .data          0x0000000000000000        0x0 dist/pro/production/__pa_temp_15376/application.o
 .bss           0x0000000000000000        0x0 dist/pro/production/__pa_temp_15376/application.o
 .text.soilPulse
                0x0000000000000000       0xaa dist/pro/production/__pa_temp_15376/application.o
 .text.printRawValues
                0x0000000000000000       0xd6 dist/pro/production/__pa_temp_15376/application.o
 .bss.loop_cnt.5135
                0x0000000000000000        0x4 dist/pro/production/__pa_temp_15376/application.o
 .bss.moist_range_t
                0x0000000000000000        0x4 dist/pro/production/__pa_temp_15376/application.o
 .bss.soil      0x0000000000000000        0xc dist/pro/production/__pa_temp_15376/application.o
 .bss.soilSecs  0x0000000000000000        0x4 dist/pro/production/__pa_temp_15376/application.o
 .bss.lastsecs  0x0000000000000000        0x4 dist/pro/production/__pa_temp_15376/application.o
 .bss.last_millis
                0x0000000000000000        0x4 dist/pro/production/__pa_temp_15376/application.o
 .text          0x0000000000000000        0x0 dist/pro/production/__pa_temp_15376/TWI.o
 .data          0x0000000000000000        0x0 dist/pro/production/__pa_temp_15376/TWI.o
 .bss           0x0000000000000000        0x0 dist/pro/production/__pa_temp_15376/TWI.o
 .text.TWI_sendByte
                0x0000000000000000       0x2e dist/pro/production/__pa_temp_15376/TWI.o
 .text.TWI_readByte
                0x0000000000000000       0x2c dist/pro/production/__pa_temp_15376/TWI.o
 .text.TWI_readBytes
                0x0000000000000000       0x2c dist/pro/production/__pa_temp_15376/TWI.o
 .text          0x0000000000000000        0x0 dist/pro/production/__pa_temp_15376/bme280.o
 .data          0x0000000000000000        0x0 dist/pro/production/__pa_temp_15376/bme280.o
 .bss           0x0000000000000000        0x0 dist/pro/production/__pa_temp_15376/bme280.o
 .text.BME280_getID
                0x0000000000000000       0x22 dist/pro/production/__pa_temp_15376/bme280.o
 .text.BME280_config
                0x0000000000000000       0x1e dist/pro/production/__pa_temp_15376/bme280.o
 .text.BME280_ctrl_meas
                0x0000000000000000       0x18 dist/pro/production/__pa_temp_15376/bme280.o
 .text.BME280_ctrl_hum
                0x0000000000000000        0x6 dist/pro/production/__pa_temp_15376/bme280.o
 .bss.weather_initialized
                0x0000000000000000        0x1 dist/pro/production/__pa_temp_15376/bme280.o
 .bss.str_hum   0x0000000000000000       0x1e dist/pro/production/__pa_temp_15376/bme280.o
 .bss.str_press
                0x0000000000000000       0x1e dist/pro/production/__pa_temp_15376/bme280.o
 .bss.str_temp  0x0000000000000000       0x1e dist/pro/production/__pa_temp_15376/bme280.o
 .text          0x0000000000000000        0x0 build/pro/production/ringBuffer.o
 .data          0x0000000000000000        0x0 build/pro/production/ringBuffer.o
 .bss           0x0000000000000000        0x0 build/pro/production/ringBuffer.o
 .text.ringBuffer_reset
                0x0000000000000000       0x2c build/pro/production/ringBuffer.o
 .text.USART0_sendBufferedString
                0x0000000000000000       0x6a build/pro/production/ringBuffer.o
 .text          0x0000000000000000        0x0 dist/pro/production/__pa_temp_15376/RN2xx3.o
 .data          0x0000000000000000        0x0 dist/pro/production/__pa_temp_15376/RN2xx3.o
 .bss           0x0000000000000000        0x0 dist/pro/production/__pa_temp_15376/RN2xx3.o
 .text.RN2xx3_set_channel_range
                0x0000000000000000       0x8e dist/pro/production/__pa_temp_15376/RN2xx3.o
 .text.RN2xx3_config_ABP
                0x0000000000000000       0x80 dist/pro/production/__pa_temp_15376/RN2xx3.o
 .text.RN2xx3_join_ABP
                0x0000000000000000       0x56 dist/pro/production/__pa_temp_15376/RN2xx3.o
 .text.RN2xx3_get_status
                0x0000000000000000       0xcc dist/pro/production/__pa_temp_15376/RN2xx3.o
 .text.RN2xx3_sleep
                0x0000000000000000       0x30 dist/pro/production/__pa_temp_15376/RN2xx3.o
 .data          0x0000000000000000        0x0 c:/program files/microchip/xc8/v2.40/avr/bin/../lib/gcc/avr/5.4.0/../../../../avr/lib/avrxmega2/memx-const/mapped\libm.a(addsf3.o)
 .bss           0x0000000000000000        0x0 c:/program files/microchip/xc8/v2.40/avr/bin/../lib/gcc/avr/5.4.0/../../../../avr/lib/avrxmega2/memx-const/mapped\libm.a(addsf3.o)
 .stack.descriptors
                0x0000000000000000       0x2c c:/program files/microchip/xc8/v2.40/avr/bin/../lib/gcc/avr/5.4.0/../../../../avr/lib/avrxmega2/memx-const/mapped\libm.a(addsf3.o)
 .data          0x0000000000000000        0x0 c:/program files/microchip/xc8/v2.40/avr/bin/../lib/gcc/avr/5.4.0/../../../../avr/lib/avrxmega2/memx-const/mapped\libm.a(cmpsf2.o)
 .bss           0x0000000000000000        0x0 c:/program files/microchip/xc8/v2.40/avr/bin/../lib/gcc/avr/5.4.0/../../../../avr/lib/avrxmega2/memx-const/mapped\libm.a(cmpsf2.o)
 .stack.descriptors
                0x0000000000000000       0x6a c:/program files/microchip/xc8/v2.40/avr/bin/../lib/gcc/avr/5.4.0/../../../../avr/lib/avrxmega2/memx-const/mapped\libm.a(cmpsf2.o)
 .data          0x0000000000000000        0x0 c:/program files/microchip/xc8/v2.40/avr/bin/../lib/gcc/avr/5.4.0/../../../../avr/lib/avrxmega2/memx-const/mapped\libm.a(divsf3.o)
 .bss           0x0000000000000000        0x0 c:/program files/microchip/xc8/v2.40/avr/bin/../lib/gcc/avr/5.4.0/../../../../avr/lib/avrxmega2/memx-const/mapped\libm.a(divsf3.o)
 .stack.descriptors
                0x0000000000000000       0x16 c:/program files/microchip/xc8/v2.40/avr/bin/../lib/gcc/avr/5.4.0/../../../../avr/lib/avrxmega2/memx-const/mapped\libm.a(divsf3.o)
 .data          0x0000000000000000        0x0 c:/program files/microchip/xc8/v2.40/avr/bin/../lib/gcc/avr/5.4.0/../../../../avr/lib/avrxmega2/memx-const/mapped\libm.a(fixsfsi.o)
 .bss           0x0000000000000000        0x0 c:/program files/microchip/xc8/v2.40/avr/bin/../lib/gcc/avr/5.4.0/../../../../avr/lib/avrxmega2/memx-const/mapped\libm.a(fixsfsi.o)
 .stack.descriptors
                0x0000000000000000       0x17 c:/program files/microchip/xc8/v2.40/avr/bin/../lib/gcc/avr/5.4.0/../../../../avr/lib/avrxmega2/memx-const/mapped\libm.a(fixsfsi.o)
 .data          0x0000000000000000        0x0 c:/program files/microchip/xc8/v2.40/avr/bin/../lib/gcc/avr/5.4.0/../../../../avr/lib/avrxmega2/memx-const/mapped\libm.a(fp_cmp.o)
 .bss           0x0000000000000000        0x0 c:/program files/microchip/xc8/v2.40/avr/bin/../lib/gcc/avr/5.4.0/../../../../avr/lib/avrxmega2/memx-const/mapped\libm.a(fp_cmp.o)
 .stack.descriptors
                0x0000000000000000       0x16 c:/program files/microchip/xc8/v2.40/avr/bin/../lib/gcc/avr/5.4.0/../../../../avr/lib/avrxmega2/memx-const/mapped\libm.a(fp_cmp.o)
 .data          0x0000000000000000        0x0 c:/program files/microchip/xc8/v2.40/avr/bin/../lib/gcc/avr/5.4.0/../../../../avr/lib/avrxmega2/memx-const/mapped\libm.a(fp_inf.o)
 .bss           0x0000000000000000        0x0 c:/program files/microchip/xc8/v2.40/avr/bin/../lib/gcc/avr/5.4.0/../../../../avr/lib/avrxmega2/memx-const/mapped\libm.a(fp_inf.o)
 .stack.descriptors
                0x0000000000000000       0x16 c:/program files/microchip/xc8/v2.40/avr/bin/../lib/gcc/avr/5.4.0/../../../../avr/lib/avrxmega2/memx-const/mapped\libm.a(fp_inf.o)
 .data          0x0000000000000000        0x0 c:/program files/microchip/xc8/v2.40/avr/bin/../lib/gcc/avr/5.4.0/../../../../avr/lib/avrxmega2/memx-const/mapped\libm.a(fp_nan.o)
 .bss           0x0000000000000000        0x0 c:/program files/microchip/xc8/v2.40/avr/bin/../lib/gcc/avr/5.4.0/../../../../avr/lib/avrxmega2/memx-const/mapped\libm.a(fp_nan.o)
 .stack.descriptors
                0x0000000000000000       0x16 c:/program files/microchip/xc8/v2.40/avr/bin/../lib/gcc/avr/5.4.0/../../../../avr/lib/avrxmega2/memx-const/mapped\libm.a(fp_nan.o)
 .data          0x0000000000000000        0x0 c:/program files/microchip/xc8/v2.40/avr/bin/../lib/gcc/avr/5.4.0/../../../../avr/lib/avrxmega2/memx-const/mapped\libm.a(fp_pscA.o)
 .bss           0x0000000000000000        0x0 c:/program files/microchip/xc8/v2.40/avr/bin/../lib/gcc/avr/5.4.0/../../../../avr/lib/avrxmega2/memx-const/mapped\libm.a(fp_pscA.o)
 .stack.descriptors
                0x0000000000000000       0x17 c:/program files/microchip/xc8/v2.40/avr/bin/../lib/gcc/avr/5.4.0/../../../../avr/lib/avrxmega2/memx-const/mapped\libm.a(fp_pscA.o)
 .data          0x0000000000000000        0x0 c:/program files/microchip/xc8/v2.40/avr/bin/../lib/gcc/avr/5.4.0/../../../../avr/lib/avrxmega2/memx-const/mapped\libm.a(fp_pscB.o)
 .bss           0x0000000000000000        0x0 c:/program files/microchip/xc8/v2.40/avr/bin/../lib/gcc/avr/5.4.0/../../../../avr/lib/avrxmega2/memx-const/mapped\libm.a(fp_pscB.o)
 .stack.descriptors
                0x0000000000000000       0x17 c:/program files/microchip/xc8/v2.40/avr/bin/../lib/gcc/avr/5.4.0/../../../../avr/lib/avrxmega2/memx-const/mapped\libm.a(fp_pscB.o)
 .data          0x0000000000000000        0x0 c:/program files/microchip/xc8/v2.40/avr/bin/../lib/gcc/avr/5.4.0/../../../../avr/lib/avrxmega2/memx-const/mapped\libm.a(fp_round.o)
 .bss           0x0000000000000000        0x0 c:/program files/microchip/xc8/v2.40/avr/bin/../lib/gcc/avr/5.4.0/../../../../avr/lib/avrxmega2/memx-const/mapped\libm.a(fp_round.o)
 .stack.descriptors
                0x0000000000000000       0x18 c:/program files/microchip/xc8/v2.40/avr/bin/../lib/gcc/avr/5.4.0/../../../../avr/lib/avrxmega2/memx-const/mapped\libm.a(fp_round.o)
 .data          0x0000000000000000        0x0 c:/program files/microchip/xc8/v2.40/avr/bin/../lib/gcc/avr/5.4.0/../../../../avr/lib/avrxmega2/memx-const/mapped\libm.a(fp_split3.o)
 .bss           0x0000000000000000        0x0 c:/program files/microchip/xc8/v2.40/avr/bin/../lib/gcc/avr/5.4.0/../../../../avr/lib/avrxmega2/memx-const/mapped\libm.a(fp_split3.o)
 .stack.descriptors
                0x0000000000000000       0x32 c:/program files/microchip/xc8/v2.40/avr/bin/../lib/gcc/avr/5.4.0/../../../../avr/lib/avrxmega2/memx-const/mapped\libm.a(fp_split3.o)
 .data          0x0000000000000000        0x0 c:/program files/microchip/xc8/v2.40/avr/bin/../lib/gcc/avr/5.4.0/../../../../avr/lib/avrxmega2/memx-const/mapped\libm.a(fp_zero.o)
 .bss           0x0000000000000000        0x0 c:/program files/microchip/xc8/v2.40/avr/bin/../lib/gcc/avr/5.4.0/../../../../avr/lib/avrxmega2/memx-const/mapped\libm.a(fp_zero.o)
 .stack.descriptors
                0x0000000000000000       0x2f c:/program files/microchip/xc8/v2.40/avr/bin/../lib/gcc/avr/5.4.0/../../../../avr/lib/avrxmega2/memx-const/mapped\libm.a(fp_zero.o)
 .data          0x0000000000000000        0x0 c:/program files/microchip/xc8/v2.40/avr/bin/../lib/gcc/avr/5.4.0/../../../../avr/lib/avrxmega2/memx-const/mapped\libm.a(gesf2.o)
 .bss           0x0000000000000000        0x0 c:/program files/microchip/xc8/v2.40/avr/bin/../lib/gcc/avr/5.4.0/../../../../avr/lib/avrxmega2/memx-const/mapped\libm.a(gesf2.o)
 .stack.descriptors
                0x0000000000000000       0x2a c:/program files/microchip/xc8/v2.40/avr/bin/../lib/gcc/avr/5.4.0/../../../../avr/lib/avrxmega2/memx-const/mapped\libm.a(gesf2.o)
 .data          0x0000000000000000        0x0 c:/program files/microchip/xc8/v2.40/avr/bin/../lib/gcc/avr/5.4.0/../../../../avr/lib/avrxmega2/memx-const/mapped\libm.a(mulsf3.o)
 .bss           0x0000000000000000        0x0 c:/program files/microchip/xc8/v2.40/avr/bin/../lib/gcc/avr/5.4.0/../../../../avr/lib/avrxmega2/memx-const/mapped\libm.a(mulsf3.o)
 .stack.descriptors
                0x0000000000000000       0x16 c:/program files/microchip/xc8/v2.40/avr/bin/../lib/gcc/avr/5.4.0/../../../../avr/lib/avrxmega2/memx-const/mapped\libm.a(mulsf3.o)
 .text          0x0000000000000000        0x0 c:/program files/microchip/xc8/v2.40/avr/bin/../lib/gcc/avr/5.4.0/../../../../avr/lib/avrxmega2/memx-const/mapped\libm.a(fabsf.o)
 .data          0x0000000000000000        0x0 c:/program files/microchip/xc8/v2.40/avr/bin/../lib/gcc/avr/5.4.0/../../../../avr/lib/avrxmega2/memx-const/mapped\libm.a(fabsf.o)
 .bss           0x0000000000000000        0x0 c:/program files/microchip/xc8/v2.40/avr/bin/../lib/gcc/avr/5.4.0/../../../../avr/lib/avrxmega2/memx-const/mapped\libm.a(fabsf.o)
 .text          0x0000000000000000        0x0 c:/program files/microchip/xc8/v2.40/avr/bin/../lib/gcc/avr/5.4.0/avrxmega2/memx-const/mapped\libgcc.a(_mulsi3.o)
 .data          0x0000000000000000        0x0 c:/program files/microchip/xc8/v2.40/avr/bin/../lib/gcc/avr/5.4.0/avrxmega2/memx-const/mapped\libgcc.a(_mulsi3.o)
 .bss           0x0000000000000000        0x0 c:/program files/microchip/xc8/v2.40/avr/bin/../lib/gcc/avr/5.4.0/avrxmega2/memx-const/mapped\libgcc.a(_mulsi3.o)
 .stack.descriptors
                0x0000000000000000       0x16 c:/program files/microchip/xc8/v2.40/avr/bin/../lib/gcc/avr/5.4.0/avrxmega2/memx-const/mapped\libgcc.a(_mulsi3.o)
 .text.libgcc.div
                0x0000000000000000        0x0 c:/program files/microchip/xc8/v2.40/avr/bin/../lib/gcc/avr/5.4.0/avrxmega2/memx-const/mapped\libgcc.a(_mulsi3.o)
 .text.libgcc   0x0000000000000000        0x0 c:/program files/microchip/xc8/v2.40/avr/bin/../lib/gcc/avr/5.4.0/avrxmega2/memx-const/mapped\libgcc.a(_mulsi3.o)
 .text.libgcc.prologue
                0x0000000000000000        0x0 c:/program files/microchip/xc8/v2.40/avr/bin/../lib/gcc/avr/5.4.0/avrxmega2/memx-const/mapped\libgcc.a(_mulsi3.o)
 .text.libgcc.builtins
                0x0000000000000000        0x0 c:/program files/microchip/xc8/v2.40/avr/bin/../lib/gcc/avr/5.4.0/avrxmega2/memx-const/mapped\libgcc.a(_mulsi3.o)
 .text.libgcc.fmul
                0x0000000000000000        0x0 c:/program files/microchip/xc8/v2.40/avr/bin/../lib/gcc/avr/5.4.0/avrxmega2/memx-const/mapped\libgcc.a(_mulsi3.o)
 .text.libgcc.fixed
                0x0000000000000000        0x0 c:/program files/microchip/xc8/v2.40/avr/bin/../lib/gcc/avr/5.4.0/avrxmega2/memx-const/mapped\libgcc.a(_mulsi3.o)
 .text          0x0000000000000000        0x0 c:/program files/microchip/xc8/v2.40/avr/bin/../lib/gcc/avr/5.4.0/avrxmega2/memx-const/mapped\libgcc.a(_udivmodsi4.o)
 .data          0x0000000000000000        0x0 c:/program files/microchip/xc8/v2.40/avr/bin/../lib/gcc/avr/5.4.0/avrxmega2/memx-const/mapped\libgcc.a(_udivmodsi4.o)
 .bss           0x0000000000000000        0x0 c:/program files/microchip/xc8/v2.40/avr/bin/../lib/gcc/avr/5.4.0/avrxmega2/memx-const/mapped\libgcc.a(_udivmodsi4.o)
 .text.libgcc.mul
                0x0000000000000000        0x0 c:/program files/microchip/xc8/v2.40/avr/bin/../lib/gcc/avr/5.4.0/avrxmega2/memx-const/mapped\libgcc.a(_udivmodsi4.o)
 .stack.descriptors
                0x0000000000000000       0x1a c:/program files/microchip/xc8/v2.40/avr/bin/../lib/gcc/avr/5.4.0/avrxmega2/memx-const/mapped\libgcc.a(_udivmodsi4.o)
 .text.libgcc   0x0000000000000000        0x0 c:/program files/microchip/xc8/v2.40/avr/bin/../lib/gcc/avr/5.4.0/avrxmega2/memx-const/mapped\libgcc.a(_udivmodsi4.o)
 .text.libgcc.prologue
                0x0000000000000000        0x0 c:/program files/microchip/xc8/v2.40/avr/bin/../lib/gcc/avr/5.4.0/avrxmega2/memx-const/mapped\libgcc.a(_udivmodsi4.o)
 .text.libgcc.builtins
                0x0000000000000000        0x0 c:/program files/microchip/xc8/v2.40/avr/bin/../lib/gcc/avr/5.4.0/avrxmega2/memx-const/mapped\libgcc.a(_udivmodsi4.o)
 .text.libgcc.fmul
                0x0000000000000000        0x0 c:/program files/microchip/xc8/v2.40/avr/bin/../lib/gcc/avr/5.4.0/avrxmega2/memx-const/mapped\libgcc.a(_udivmodsi4.o)
 .text.libgcc.fixed
                0x0000000000000000        0x0 c:/program files/microchip/xc8/v2.40/avr/bin/../lib/gcc/avr/5.4.0/avrxmega2/memx-const/mapped\libgcc.a(_udivmodsi4.o)
 .text          0x0000000000000000        0x0 c:/program files/microchip/xc8/v2.40/avr/bin/../lib/gcc/avr/5.4.0/avrxmega2/memx-const/mapped\libgcc.a(_tablejump2.o)
 .data          0x0000000000000000        0x0 c:/program files/microchip/xc8/v2.40/avr/bin/../lib/gcc/avr/5.4.0/avrxmega2/memx-const/mapped\libgcc.a(_tablejump2.o)
 .bss           0x0000000000000000        0x0 c:/program files/microchip/xc8/v2.40/avr/bin/../lib/gcc/avr/5.4.0/avrxmega2/memx-const/mapped\libgcc.a(_tablejump2.o)
 .text.libgcc.mul
                0x0000000000000000        0x0 c:/program files/microchip/xc8/v2.40/avr/bin/../lib/gcc/avr/5.4.0/avrxmega2/memx-const/mapped\libgcc.a(_tablejump2.o)
 .text.libgcc.div
                0x0000000000000000        0x0 c:/program files/microchip/xc8/v2.40/avr/bin/../lib/gcc/avr/5.4.0/avrxmega2/memx-const/mapped\libgcc.a(_tablejump2.o)
 .text.libgcc.prologue
                0x0000000000000000        0x0 c:/program files/microchip/xc8/v2.40/avr/bin/../lib/gcc/avr/5.4.0/avrxmega2/memx-const/mapped\libgcc.a(_tablejump2.o)
 .stack.descriptors
                0x0000000000000000       0x1c c:/program files/microchip/xc8/v2.40/avr/bin/../lib/gcc/avr/5.4.0/avrxmega2/memx-const/mapped\libgcc.a(_tablejump2.o)
 .text.libgcc.builtins
                0x0000000000000000        0x0 c:/program files/microchip/xc8/v2.40/avr/bin/../lib/gcc/avr/5.4.0/avrxmega2/memx-const/mapped\libgcc.a(_tablejump2.o)
 .text.libgcc.fmul
                0x0000000000000000        0x0 c:/program files/microchip/xc8/v2.40/avr/bin/../lib/gcc/avr/5.4.0/avrxmega2/memx-const/mapped\libgcc.a(_tablejump2.o)
 .text.libgcc.fixed
                0x0000000000000000        0x0 c:/program files/microchip/xc8/v2.40/avr/bin/../lib/gcc/avr/5.4.0/avrxmega2/memx-const/mapped\libgcc.a(_tablejump2.o)
 .text          0x0000000000000000        0x0 c:/program files/microchip/xc8/v2.40/avr/bin/../lib/gcc/avr/5.4.0/avrxmega2/memx-const/mapped\libgcc.a(_copy_data.o)
 .data          0x0000000000000000        0x0 c:/program files/microchip/xc8/v2.40/avr/bin/../lib/gcc/avr/5.4.0/avrxmega2/memx-const/mapped\libgcc.a(_copy_data.o)
 .bss           0x0000000000000000        0x0 c:/program files/microchip/xc8/v2.40/avr/bin/../lib/gcc/avr/5.4.0/avrxmega2/memx-const/mapped\libgcc.a(_copy_data.o)
 .text.libgcc.mul
                0x0000000000000000        0x0 c:/program files/microchip/xc8/v2.40/avr/bin/../lib/gcc/avr/5.4.0/avrxmega2/memx-const/mapped\libgcc.a(_copy_data.o)
 .text.libgcc.div
                0x0000000000000000        0x0 c:/program files/microchip/xc8/v2.40/avr/bin/../lib/gcc/avr/5.4.0/avrxmega2/memx-const/mapped\libgcc.a(_copy_data.o)
 .text.libgcc   0x0000000000000000        0x0 c:/program files/microchip/xc8/v2.40/avr/bin/../lib/gcc/avr/5.4.0/avrxmega2/memx-const/mapped\libgcc.a(_copy_data.o)
 .text.libgcc.prologue
                0x0000000000000000        0x0 c:/program files/microchip/xc8/v2.40/avr/bin/../lib/gcc/avr/5.4.0/avrxmega2/memx-const/mapped\libgcc.a(_copy_data.o)
 .text.libgcc.builtins
                0x0000000000000000        0x0 c:/program files/microchip/xc8/v2.40/avr/bin/../lib/gcc/avr/5.4.0/avrxmega2/memx-const/mapped\libgcc.a(_copy_data.o)
 .text.libgcc.fmul
                0x0000000000000000        0x0 c:/program files/microchip/xc8/v2.40/avr/bin/../lib/gcc/avr/5.4.0/avrxmega2/memx-const/mapped\libgcc.a(_copy_data.o)
 .text.libgcc.fixed
                0x0000000000000000        0x0 c:/program files/microchip/xc8/v2.40/avr/bin/../lib/gcc/avr/5.4.0/avrxmega2/memx-const/mapped\libgcc.a(_copy_data.o)
 .text          0x0000000000000000        0x0 c:/program files/microchip/xc8/v2.40/avr/bin/../lib/gcc/avr/5.4.0/avrxmega2/memx-const/mapped\libgcc.a(_muluhisi3.o)
 .data          0x0000000000000000        0x0 c:/program files/microchip/xc8/v2.40/avr/bin/../lib/gcc/avr/5.4.0/avrxmega2/memx-const/mapped\libgcc.a(_muluhisi3.o)
 .bss           0x0000000000000000        0x0 c:/program files/microchip/xc8/v2.40/avr/bin/../lib/gcc/avr/5.4.0/avrxmega2/memx-const/mapped\libgcc.a(_muluhisi3.o)
 .stack.descriptors
                0x0000000000000000       0x19 c:/program files/microchip/xc8/v2.40/avr/bin/../lib/gcc/avr/5.4.0/avrxmega2/memx-const/mapped\libgcc.a(_muluhisi3.o)
 .text.libgcc.div
                0x0000000000000000        0x0 c:/program files/microchip/xc8/v2.40/avr/bin/../lib/gcc/avr/5.4.0/avrxmega2/memx-const/mapped\libgcc.a(_muluhisi3.o)
 .text.libgcc   0x0000000000000000        0x0 c:/program files/microchip/xc8/v2.40/avr/bin/../lib/gcc/avr/5.4.0/avrxmega2/memx-const/mapped\libgcc.a(_muluhisi3.o)
 .text.libgcc.prologue
                0x0000000000000000        0x0 c:/program files/microchip/xc8/v2.40/avr/bin/../lib/gcc/avr/5.4.0/avrxmega2/memx-const/mapped\libgcc.a(_muluhisi3.o)
 .text.libgcc.builtins
                0x0000000000000000        0x0 c:/program files/microchip/xc8/v2.40/avr/bin/../lib/gcc/avr/5.4.0/avrxmega2/memx-const/mapped\libgcc.a(_muluhisi3.o)
 .text.libgcc.fmul
                0x0000000000000000        0x0 c:/program files/microchip/xc8/v2.40/avr/bin/../lib/gcc/avr/5.4.0/avrxmega2/memx-const/mapped\libgcc.a(_muluhisi3.o)
 .text.libgcc.fixed
                0x0000000000000000        0x0 c:/program files/microchip/xc8/v2.40/avr/bin/../lib/gcc/avr/5.4.0/avrxmega2/memx-const/mapped\libgcc.a(_muluhisi3.o)
 .text          0x0000000000000000        0x0 c:/program files/microchip/xc8/v2.40/avr/bin/../lib/gcc/avr/5.4.0/avrxmega2/memx-const/mapped\libgcc.a(_mulshisi3.o)
 .data          0x0000000000000000        0x0 c:/program files/microchip/xc8/v2.40/avr/bin/../lib/gcc/avr/5.4.0/avrxmega2/memx-const/mapped\libgcc.a(_mulshisi3.o)
 .bss           0x0000000000000000        0x0 c:/program files/microchip/xc8/v2.40/avr/bin/../lib/gcc/avr/5.4.0/avrxmega2/memx-const/mapped\libgcc.a(_mulshisi3.o)
 .stack.descriptors
                0x0000000000000000       0x32 c:/program files/microchip/xc8/v2.40/avr/bin/../lib/gcc/avr/5.4.0/avrxmega2/memx-const/mapped\libgcc.a(_mulshisi3.o)
 .text.libgcc.div
                0x0000000000000000        0x0 c:/program files/microchip/xc8/v2.40/avr/bin/../lib/gcc/avr/5.4.0/avrxmega2/memx-const/mapped\libgcc.a(_mulshisi3.o)
 .text.libgcc   0x0000000000000000        0x0 c:/program files/microchip/xc8/v2.40/avr/bin/../lib/gcc/avr/5.4.0/avrxmega2/memx-const/mapped\libgcc.a(_mulshisi3.o)
 .text.libgcc.prologue
                0x0000000000000000        0x0 c:/program files/microchip/xc8/v2.40/avr/bin/../lib/gcc/avr/5.4.0/avrxmega2/memx-const/mapped\libgcc.a(_mulshisi3.o)
 .text.libgcc.builtins
                0x0000000000000000        0x0 c:/program files/microchip/xc8/v2.40/avr/bin/../lib/gcc/avr/5.4.0/avrxmega2/memx-const/mapped\libgcc.a(_mulshisi3.o)
 .text.libgcc.fmul
                0x0000000000000000        0x0 c:/program files/microchip/xc8/v2.40/avr/bin/../lib/gcc/avr/5.4.0/avrxmega2/memx-const/mapped\libgcc.a(_mulshisi3.o)
 .text.libgcc.fixed
                0x0000000000000000        0x0 c:/program files/microchip/xc8/v2.40/avr/bin/../lib/gcc/avr/5.4.0/avrxmega2/memx-const/mapped\libgcc.a(_mulshisi3.o)
 .text          0x0000000000000000        0x0 c:/program files/microchip/xc8/v2.40/avr/bin/../lib/gcc/avr/5.4.0/avrxmega2/memx-const/mapped\libgcc.a(_prologue.o)
 .data          0x0000000000000000        0x0 c:/program files/microchip/xc8/v2.40/avr/bin/../lib/gcc/avr/5.4.0/avrxmega2/memx-const/mapped\libgcc.a(_prologue.o)
 .bss           0x0000000000000000        0x0 c:/program files/microchip/xc8/v2.40/avr/bin/../lib/gcc/avr/5.4.0/avrxmega2/memx-const/mapped\libgcc.a(_prologue.o)
 .text.libgcc.mul
                0x0000000000000000        0x0 c:/program files/microchip/xc8/v2.40/avr/bin/../lib/gcc/avr/5.4.0/avrxmega2/memx-const/mapped\libgcc.a(_prologue.o)
 .text.libgcc.div
                0x0000000000000000        0x0 c:/program files/microchip/xc8/v2.40/avr/bin/../lib/gcc/avr/5.4.0/avrxmega2/memx-const/mapped\libgcc.a(_prologue.o)
 .text.libgcc   0x0000000000000000        0x0 c:/program files/microchip/xc8/v2.40/avr/bin/../lib/gcc/avr/5.4.0/avrxmega2/memx-const/mapped\libgcc.a(_prologue.o)
 .text.libgcc.builtins
                0x0000000000000000        0x0 c:/program files/microchip/xc8/v2.40/avr/bin/../lib/gcc/avr/5.4.0/avrxmega2/memx-const/mapped\libgcc.a(_prologue.o)
 .text.libgcc.fmul
                0x0000000000000000        0x0 c:/program files/microchip/xc8/v2.40/avr/bin/../lib/gcc/avr/5.4.0/avrxmega2/memx-const/mapped\libgcc.a(_prologue.o)
 .text.libgcc.fixed
                0x0000000000000000        0x0 c:/program files/microchip/xc8/v2.40/avr/bin/../lib/gcc/avr/5.4.0/avrxmega2/memx-const/mapped\libgcc.a(_prologue.o)
 .text          0x0000000000000000        0x0 c:/program files/microchip/xc8/v2.40/avr/bin/../lib/gcc/avr/5.4.0/avrxmega2/memx-const/mapped\libgcc.a(_epilogue.o)
 .data          0x0000000000000000        0x0 c:/program files/microchip/xc8/v2.40/avr/bin/../lib/gcc/avr/5.4.0/avrxmega2/memx-const/mapped\libgcc.a(_epilogue.o)
 .bss           0x0000000000000000        0x0 c:/program files/microchip/xc8/v2.40/avr/bin/../lib/gcc/avr/5.4.0/avrxmega2/memx-const/mapped\libgcc.a(_epilogue.o)
 .text.libgcc.mul
                0x0000000000000000        0x0 c:/program files/microchip/xc8/v2.40/avr/bin/../lib/gcc/avr/5.4.0/avrxmega2/memx-const/mapped\libgcc.a(_epilogue.o)
 .text.libgcc.div
                0x0000000000000000        0x0 c:/program files/microchip/xc8/v2.40/avr/bin/../lib/gcc/avr/5.4.0/avrxmega2/memx-const/mapped\libgcc.a(_epilogue.o)
 .text.libgcc   0x0000000000000000        0x0 c:/program files/microchip/xc8/v2.40/avr/bin/../lib/gcc/avr/5.4.0/avrxmega2/memx-const/mapped\libgcc.a(_epilogue.o)
 .text.libgcc.builtins
                0x0000000000000000        0x0 c:/program files/microchip/xc8/v2.40/avr/bin/../lib/gcc/avr/5.4.0/avrxmega2/memx-const/mapped\libgcc.a(_epilogue.o)
 .text.libgcc.fmul
                0x0000000000000000        0x0 c:/program files/microchip/xc8/v2.40/avr/bin/../lib/gcc/avr/5.4.0/avrxmega2/memx-const/mapped\libgcc.a(_epilogue.o)
 .text.libgcc.fixed
                0x0000000000000000        0x0 c:/program files/microchip/xc8/v2.40/avr/bin/../lib/gcc/avr/5.4.0/avrxmega2/memx-const/mapped\libgcc.a(_epilogue.o)
 .text          0x0000000000000000        0x0 c:/program files/microchip/xc8/v2.40/avr/bin/../lib/gcc/avr/5.4.0/avrxmega2/memx-const/mapped\libgcc.a(_umulhisi3.o)
 .data          0x0000000000000000        0x0 c:/program files/microchip/xc8/v2.40/avr/bin/../lib/gcc/avr/5.4.0/avrxmega2/memx-const/mapped\libgcc.a(_umulhisi3.o)
 .bss           0x0000000000000000        0x0 c:/program files/microchip/xc8/v2.40/avr/bin/../lib/gcc/avr/5.4.0/avrxmega2/memx-const/mapped\libgcc.a(_umulhisi3.o)
 .stack.descriptors
                0x0000000000000000       0x19 c:/program files/microchip/xc8/v2.40/avr/bin/../lib/gcc/avr/5.4.0/avrxmega2/memx-const/mapped\libgcc.a(_umulhisi3.o)
 .text.libgcc.div
                0x0000000000000000        0x0 c:/program files/microchip/xc8/v2.40/avr/bin/../lib/gcc/avr/5.4.0/avrxmega2/memx-const/mapped\libgcc.a(_umulhisi3.o)
 .text.libgcc   0x0000000000000000        0x0 c:/program files/microchip/xc8/v2.40/avr/bin/../lib/gcc/avr/5.4.0/avrxmega2/memx-const/mapped\libgcc.a(_umulhisi3.o)
 .text.libgcc.prologue
                0x0000000000000000        0x0 c:/program files/microchip/xc8/v2.40/avr/bin/../lib/gcc/avr/5.4.0/avrxmega2/memx-const/mapped\libgcc.a(_umulhisi3.o)
 .text.libgcc.builtins
                0x0000000000000000        0x0 c:/program files/microchip/xc8/v2.40/avr/bin/../lib/gcc/avr/5.4.0/avrxmega2/memx-const/mapped\libgcc.a(_umulhisi3.o)
 .text.libgcc.fmul
                0x0000000000000000        0x0 c:/program files/microchip/xc8/v2.40/avr/bin/../lib/gcc/avr/5.4.0/avrxmega2/memx-const/mapped\libgcc.a(_umulhisi3.o)
 .text.libgcc.fixed
                0x0000000000000000        0x0 c:/program files/microchip/xc8/v2.40/avr/bin/../lib/gcc/avr/5.4.0/avrxmega2/memx-const/mapped\libgcc.a(_umulhisi3.o)
 .text          0x0000000000000000        0x0 c:/program files/microchip/xc8/v2.40/avr/bin/../lib/gcc/avr/5.4.0/../../../../avr/lib/avrxmega2/memx-const/mapped\libc.a(tolower.o)
 .data          0x0000000000000000        0x0 c:/program files/microchip/xc8/v2.40/avr/bin/../lib/gcc/avr/5.4.0/../../../../avr/lib/avrxmega2/memx-const/mapped\libc.a(tolower.o)
 .bss           0x0000000000000000        0x0 c:/program files/microchip/xc8/v2.40/avr/bin/../lib/gcc/avr/5.4.0/../../../../avr/lib/avrxmega2/memx-const/mapped\libc.a(tolower.o)
 .text.__tolower_l
                0x0000000000000000        0x6 c:/program files/microchip/xc8/v2.40/avr/bin/../lib/gcc/avr/5.4.0/../../../../avr/lib/avrxmega2/memx-const/mapped\libc.a(tolower.o)
 .text          0x0000000000000000        0x0 c:/program files/microchip/xc8/v2.40/avr/bin/../lib/gcc/avr/5.4.0/../../../../avr/lib/avrxmega2/memx-const/mapped\libc.a(toupper.o)
 .data          0x0000000000000000        0x0 c:/program files/microchip/xc8/v2.40/avr/bin/../lib/gcc/avr/5.4.0/../../../../avr/lib/avrxmega2/memx-const/mapped\libc.a(toupper.o)
 .bss           0x0000000000000000        0x0 c:/program files/microchip/xc8/v2.40/avr/bin/../lib/gcc/avr/5.4.0/../../../../avr/lib/avrxmega2/memx-const/mapped\libc.a(toupper.o)
 .text.__toupper_l
                0x0000000000000000        0x6 c:/program files/microchip/xc8/v2.40/avr/bin/../lib/gcc/avr/5.4.0/../../../../avr/lib/avrxmega2/memx-const/mapped\libc.a(toupper.o)
 .text          0x0000000000000000        0x0 c:/program files/microchip/xc8/v2.40/avr/bin/../lib/gcc/avr/5.4.0/../../../../avr/lib/avrxmega2/memx-const/mapped\libc.a(errno.o)
 .data          0x0000000000000000        0x0 c:/program files/microchip/xc8/v2.40/avr/bin/../lib/gcc/avr/5.4.0/../../../../avr/lib/avrxmega2/memx-const/mapped\libc.a(errno.o)
 .bss           0x0000000000000000        0x0 c:/program files/microchip/xc8/v2.40/avr/bin/../lib/gcc/avr/5.4.0/../../../../avr/lib/avrxmega2/memx-const/mapped\libc.a(errno.o)
 .text          0x0000000000000000        0x0 c:/program files/microchip/xc8/v2.40/avr/bin/../lib/gcc/avr/5.4.0/../../../../avr/lib/avrxmega2/memx-const/mapped\libc.a(exit.o)
 .data          0x0000000000000000        0x0 c:/program files/microchip/xc8/v2.40/avr/bin/../lib/gcc/avr/5.4.0/../../../../avr/lib/avrxmega2/memx-const/mapped\libc.a(exit.o)
 .bss           0x0000000000000000        0x0 c:/program files/microchip/xc8/v2.40/avr/bin/../lib/gcc/avr/5.4.0/../../../../avr/lib/avrxmega2/memx-const/mapped\libc.a(exit.o)
 .text          0x0000000000000000        0x0 c:/program files/microchip/xc8/v2.40/avr/bin/../lib/gcc/avr/5.4.0/../../../../avr/lib/avrxmega2/memx-const/mapped\libc.a(__sio_sprintf_doux.o)
 .data          0x0000000000000000        0x0 c:/program files/microchip/xc8/v2.40/avr/bin/../lib/gcc/avr/5.4.0/../../../../avr/lib/avrxmega2/memx-const/mapped\libc.a(__sio_sprintf_doux.o)
 .bss           0x0000000000000000        0x0 c:/program files/microchip/xc8/v2.40/avr/bin/../lib/gcc/avr/5.4.0/../../../../avr/lib/avrxmega2/memx-const/mapped\libc.a(__sio_sprintf_doux.o)
 .text.__sio_sprintf_doux
                0x0000000000000000       0x1a c:/program files/microchip/xc8/v2.40/avr/bin/../lib/gcc/avr/5.4.0/../../../../avr/lib/avrxmega2/memx-const/mapped\libc.a(__sio_sprintf_doux.o)
 .text          0x0000000000000000        0x0 c:/program files/microchip/xc8/v2.40/avr/bin/../lib/gcc/avr/5.4.0/../../../../avr/lib/avrxmega2/memx-const/mapped\libc.a(__fmt_s.o)
 .data          0x0000000000000000        0x0 c:/program files/microchip/xc8/v2.40/avr/bin/../lib/gcc/avr/5.4.0/../../../../avr/lib/avrxmega2/memx-const/mapped\libc.a(__fmt_s.o)
 .bss           0x0000000000000000        0x0 c:/program files/microchip/xc8/v2.40/avr/bin/../lib/gcc/avr/5.4.0/../../../../avr/lib/avrxmega2/memx-const/mapped\libc.a(__fmt_s.o)
 .text          0x0000000000000000        0x0 c:/program files/microchip/xc8/v2.40/avr/bin/../lib/gcc/avr/5.4.0/../../../../avr/lib/avrxmega2/memx-const/mapped\libc.a(fputc.o)
 .data          0x0000000000000000        0x0 c:/program files/microchip/xc8/v2.40/avr/bin/../lib/gcc/avr/5.4.0/../../../../avr/lib/avrxmega2/memx-const/mapped\libc.a(fputc.o)
 .bss           0x0000000000000000        0x0 c:/program files/microchip/xc8/v2.40/avr/bin/../lib/gcc/avr/5.4.0/../../../../avr/lib/avrxmega2/memx-const/mapped\libc.a(fputc.o)
 .text          0x0000000000000000        0x0 c:/program files/microchip/xc8/v2.40/avr/bin/../lib/gcc/avr/5.4.0/../../../../avr/lib/avrxmega2/memx-const/mapped\libc.a(puts.o)
 .data          0x0000000000000000        0x0 c:/program files/microchip/xc8/v2.40/avr/bin/../lib/gcc/avr/5.4.0/../../../../avr/lib/avrxmega2/memx-const/mapped\libc.a(puts.o)
 .bss           0x0000000000000000        0x0 c:/program files/microchip/xc8/v2.40/avr/bin/../lib/gcc/avr/5.4.0/../../../../avr/lib/avrxmega2/memx-const/mapped\libc.a(puts.o)
 .text          0x0000000000000000        0x0 c:/program files/microchip/xc8/v2.40/avr/bin/../lib/gcc/avr/5.4.0/../../../../avr/lib/avrxmega2/memx-const/mapped\libc.a(stdout.o)
 .data          0x0000000000000000        0x0 c:/program files/microchip/xc8/v2.40/avr/bin/../lib/gcc/avr/5.4.0/../../../../avr/lib/avrxmega2/memx-const/mapped\libc.a(stdout.o)
 .bss           0x0000000000000000        0x0 c:/program files/microchip/xc8/v2.40/avr/bin/../lib/gcc/avr/5.4.0/../../../../avr/lib/avrxmega2/memx-const/mapped\libc.a(stdout.o)
 .text.__init_stdout
                0x0000000000000000       0x1e c:/program files/microchip/xc8/v2.40/avr/bin/../lib/gcc/avr/5.4.0/../../../../avr/lib/avrxmega2/memx-const/mapped\libc.a(stdout.o)
 .data.f        0x0000000000000000       0x10 c:/program files/microchip/xc8/v2.40/avr/bin/../lib/gcc/avr/5.4.0/../../../../avr/lib/avrxmega2/memx-const/mapped\libc.a(stdout.o)
 COMMON         0x0000000000000000        0x2 c:/program files/microchip/xc8/v2.40/avr/bin/../lib/gcc/avr/5.4.0/../../../../avr/lib/avrxmega2/memx-const/mapped\libc.a(stdout.o)
 .text          0x0000000000000000        0x0 c:/program files/microchip/xc8/v2.40/avr/bin/../lib/gcc/avr/5.4.0/../../../../avr/lib/avrxmega2/memx-const/mapped\libc.a(strlen.o)
 .data          0x0000000000000000        0x0 c:/program files/microchip/xc8/v2.40/avr/bin/../lib/gcc/avr/5.4.0/../../../../avr/lib/avrxmega2/memx-const/mapped\libc.a(strlen.o)
 .bss           0x0000000000000000        0x0 c:/program files/microchip/xc8/v2.40/avr/bin/../lib/gcc/avr/5.4.0/../../../../avr/lib/avrxmega2/memx-const/mapped\libc.a(strlen.o)
 .text          0x0000000000000000        0x0 c:/program files/microchip/xc8/v2.40/avr/bin/../lib/gcc/avr/5.4.0/../../../../avr/lib/avrxmega2/memx-const/mapped\libc.a(_Exit.o)
 .data          0x0000000000000000        0x0 c:/program files/microchip/xc8/v2.40/avr/bin/../lib/gcc/avr/5.4.0/../../../../avr/lib/avrxmega2/memx-const/mapped\libc.a(_Exit.o)
 .bss           0x0000000000000000        0x0 c:/program files/microchip/xc8/v2.40/avr/bin/../lib/gcc/avr/5.4.0/../../../../avr/lib/avrxmega2/memx-const/mapped\libc.a(_Exit.o)
 .text          0x0000000000000000        0x0 c:/program files/microchip/xc8/v2.40/avr/bin/../lib/gcc/avr/5.4.0/../../../../avr/lib/avrxmega2/memx-const/mapped\libc.a(__int_vsprintf.o)
 .data          0x0000000000000000        0x0 c:/program files/microchip/xc8/v2.40/avr/bin/../lib/gcc/avr/5.4.0/../../../../avr/lib/avrxmega2/memx-const/mapped\libc.a(__int_vsprintf.o)
 .bss           0x0000000000000000        0x0 c:/program files/microchip/xc8/v2.40/avr/bin/../lib/gcc/avr/5.4.0/../../../../avr/lib/avrxmega2/memx-const/mapped\libc.a(__int_vsprintf.o)
 .text          0x0000000000000000        0x0 c:/program files/microchip/xc8/v2.40/avr/bin/../lib/gcc/avr/5.4.0/../../../../avr/lib/avrxmega2/memx-const/mapped\libc.a(fputs.o)
 .data          0x0000000000000000        0x0 c:/program files/microchip/xc8/v2.40/avr/bin/../lib/gcc/avr/5.4.0/../../../../avr/lib/avrxmega2/memx-const/mapped\libc.a(fputs.o)
 .bss           0x0000000000000000        0x0 c:/program files/microchip/xc8/v2.40/avr/bin/../lib/gcc/avr/5.4.0/../../../../avr/lib/avrxmega2/memx-const/mapped\libc.a(fputs.o)
 .text          0x0000000000000000        0x0 c:/program files/microchip/xc8/v2.40/avr/bin/../lib/gcc/avr/5.4.0/avrxmega2/memx-const/mapped\libgcc.a(_exit.o)
 .data          0x0000000000000000        0x0 c:/program files/microchip/xc8/v2.40/avr/bin/../lib/gcc/avr/5.4.0/avrxmega2/memx-const/mapped\libgcc.a(_exit.o)
 .bss           0x0000000000000000        0x0 c:/program files/microchip/xc8/v2.40/avr/bin/../lib/gcc/avr/5.4.0/avrxmega2/memx-const/mapped\libgcc.a(_exit.o)
 .text.libgcc.mul
                0x0000000000000000        0x0 c:/program files/microchip/xc8/v2.40/avr/bin/../lib/gcc/avr/5.4.0/avrxmega2/memx-const/mapped\libgcc.a(_exit.o)
 .text.libgcc.div
                0x0000000000000000        0x0 c:/program files/microchip/xc8/v2.40/avr/bin/../lib/gcc/avr/5.4.0/avrxmega2/memx-const/mapped\libgcc.a(_exit.o)
 .text.libgcc   0x0000000000000000        0x0 c:/program files/microchip/xc8/v2.40/avr/bin/../lib/gcc/avr/5.4.0/avrxmega2/memx-const/mapped\libgcc.a(_exit.o)
 .text.libgcc.prologue
                0x0000000000000000        0x0 c:/program files/microchip/xc8/v2.40/avr/bin/../lib/gcc/avr/5.4.0/avrxmega2/memx-const/mapped\libgcc.a(_exit.o)
 .stack.descriptors
                0x0000000000000000       0x13 c:/program files/microchip/xc8/v2.40/avr/bin/../lib/gcc/avr/5.4.0/avrxmega2/memx-const/mapped\libgcc.a(_exit.o)
 .text.libgcc.builtins
                0x0000000000000000        0x0 c:/program files/microchip/xc8/v2.40/avr/bin/../lib/gcc/avr/5.4.0/avrxmega2/memx-const/mapped\libgcc.a(_exit.o)
 .text.libgcc.fmul
                0x0000000000000000        0x0 c:/program files/microchip/xc8/v2.40/avr/bin/../lib/gcc/avr/5.4.0/avrxmega2/memx-const/mapped\libgcc.a(_exit.o)
 .text.libgcc.fixed
                0x0000000000000000        0x0 c:/program files/microchip/xc8/v2.40/avr/bin/../lib/gcc/avr/5.4.0/avrxmega2/memx-const/mapped\libgcc.a(_exit.o)

Memory Configuration

Name             Origin             Length             Attributes
text             0x0000000000000000 0x0000000000010000 xr
data             0x0000000000806000 0x0000000000002000 rw !x
eeprom           0x0000000000810000 0x0000000000000100 rw !x
fuse             0x0000000000820000 0x0000000000000010 rw !x
lock             0x0000000000830000 0x0000000000000400 rw !x
signature        0x0000000000840000 0x0000000000000400 rw !x
user_signatures  0x0000000000850000 0x0000000000000400 rw !x
*default*        0x0000000000000000 0xffffffffffffffff

Linker script and memory map

LOAD dist/pro/production/__pa_temp_15376/libm_a_sqrtf.o
LOAD dist/pro/production/__pa_temp_15376/libm_a_scalbnf.o
LOAD dist/pro/production/__pa_temp_15376/libm_a_powf.o
LOAD dist/pro/production/__pa_temp_15376/libm_a_mulsf3x.o
LOAD dist/pro/production/__pa_temp_15376/libm_a_floatsisf.o
LOAD dist/pro/production/__pa_temp_15376/libm_a_fixunssfsi.o
LOAD dist/pro/production/__pa_temp_15376/libm_a_divsf3x.o
LOAD dist/pro/production/__pa_temp_15376/libm_a_addsf3x.o
LOAD dist/pro/production/__pa_temp_15376/libc_a___sio_printf_s.o
LOAD dist/pro/production/__pa_temp_15376/libc_a___sio_printf_doux.o
LOAD dist/pro/production/__pa_temp_15376/libc_a___sio_printf_dosux.o
LOAD dist/pro/production/__pa_temp_15376/libc_a___printf_core.o
LOAD dist/pro/production/__pa_temp_15376/libc_a___pop_int.o
LOAD dist/pro/production/__pa_temp_15376/libc_a___int_vsnprintf.o
LOAD dist/pro/production/__pa_temp_15376/libc_a___int_vfprintf.o
LOAD dist/pro/production/__pa_temp_15376/libc_a___fmt_x.o
LOAD dist/pro/production/__pa_temp_15376/libc_a___fmt_u.o
LOAD dist/pro/production/__pa_temp_15376/libc_a___fmt_o.o
LOAD dist/pro/production/__pa_temp_15376/libc_a___fmt_d.o
Address of section .data set to 0x806000
                0x0000000000008000                __RODATA_PM_OFFSET__ = 0x8000
LOAD C:/Users/C70348/.mchp_packs/Microchip/AVR-Dx_DFP/2.1.152/xc8/avr/lib/avrxmega2/memx-const/mapped/crtavr64dd32.o
                0x0000000000000001                __MPLAB_BUILD = 0x1
LOAD build/pro/production/mcc_generated_files/adc/src/adc0.o
LOAD dist/pro/production/__pa_temp_15376/evsys.o
LOAD dist/pro/production/__pa_temp_15376/clock.o
LOAD build/pro/production/mcc_generated_files/system/src/system.o
LOAD build/pro/production/mcc_generated_files/system/src/config_bits.o
LOAD dist/pro/production/__pa_temp_15376/pins.o
LOAD build/pro/production/mcc_generated_files/system/src/protected_io.o
LOAD build/pro/production/mcc_generated_files/system/src/interrupt.o
LOAD dist/pro/production/__pa_temp_15376/tcb0.o
LOAD build/pro/production/mcc_generated_files/timer/src/rtc.o
LOAD dist/pro/production/__pa_temp_15376/tcb1.o
LOAD dist/pro/production/__pa_temp_15376/usart0.o
LOAD dist/pro/production/__pa_temp_15376/usart1.o
LOAD build/pro/production/mcc_generated_files/vref/src/vref.o
LOAD build/pro/production/main.o
LOAD dist/pro/production/__pa_temp_15376/application.o
LOAD dist/pro/production/__pa_temp_15376/TWI.o
LOAD dist/pro/production/__pa_temp_15376/bme280.o
LOAD build/pro/production/ringBuffer.o
LOAD dist/pro/production/__pa_temp_15376/RN2xx3.o
START GROUP
LOAD c:/program files/microchip/xc8/v2.40/avr/bin/../lib/gcc/avr/5.4.0/../../../../avr/lib/avrxmega2/memx-const/mapped\libm.a
END GROUP
START GROUP
LOAD c:/program files/microchip/xc8/v2.40/avr/bin/../lib/gcc/avr/5.4.0/avrxmega2/memx-const/mapped\libgcc.a
LOAD c:/program files/microchip/xc8/v2.40/avr/bin/../lib/gcc/avr/5.4.0/../../../../avr/lib/avrxmega2/memx-const/mapped\libm.a
LOAD c:/program files/microchip/xc8/v2.40/avr/bin/../lib/gcc/avr/5.4.0/../../../../avr/lib/avrxmega2/memx-const/mapped\libc.a
LOAD C:/Users/C70348/.mchp_packs/Microchip/AVR-Dx_DFP/2.1.152/xc8/avr/lib/avrxmega2/memx-const/mapped\libavr64dd32.a
END GROUP
                [0x0000000000000000]                __TEXT_REGION_ORIGIN__ = DEFINED (__TEXT_REGION_ORIGIN__)?__TEXT_REGION_ORIGIN__:0x0
                [0x0000000000806000]                __DATA_REGION_ORIGIN__ = DEFINED (__DATA_REGION_ORIGIN__)?__DATA_REGION_ORIGIN__:0x802000
                [0x0000000000010000]                __TEXT_REGION_LENGTH__ = DEFINED (__TEXT_REGION_LENGTH__)?__TEXT_REGION_LENGTH__:0x100000
                [0x0000000000002000]                __DATA_REGION_LENGTH__ = DEFINED (__DATA_REGION_LENGTH__)?__DATA_REGION_LENGTH__:0xffa0
                [0x0000000000000100]                __EEPROM_REGION_LENGTH__ = DEFINED (__EEPROM_REGION_LENGTH__)?__EEPROM_REGION_LENGTH__:0x10000
                [0x0000000000000010]                __FUSE_REGION_LENGTH__ = DEFINED (__FUSE_REGION_LENGTH__)?__FUSE_REGION_LENGTH__:0x400
                0x0000000000000400                __LOCK_REGION_LENGTH__ = DEFINED (__LOCK_REGION_LENGTH__)?__LOCK_REGION_LENGTH__:0x400
                0x0000000000000400                __SIGNATURE_REGION_LENGTH__ = DEFINED (__SIGNATURE_REGION_LENGTH__)?__SIGNATURE_REGION_LENGTH__:0x400
                0x0000000000000400                __USER_SIGNATURE_REGION_LENGTH__ = DEFINED (__USER_SIGNATURE_REGION_LENGTH__)?__USER_SIGNATURE_REGION_LENGTH__:0x400

.hash
 *(.hash)

.dynsym
 *(.dynsym)

.dynstr
 *(.dynstr)

.gnu.version
 *(.gnu.version)

.gnu.version_d
 *(.gnu.version_d)

.gnu.version_r
 *(.gnu.version_r)

.rel.init
 *(.rel.init)

.rela.init
 *(.rela.init)

.rel.text
 *(.rel.text)
 *(.rel.text.*)
 *(.rel.gnu.linkonce.t*)

.rela.text
 *(.rela.text)
 *(.rela.text.*)
 *(.rela.gnu.linkonce.t*)

.rel.fini
 *(.rel.fini)

.rela.fini
 *(.rela.fini)

.rel.rodata
 *(.rel.rodata)
 *(.rel.rodata.*)
 *(.rel.gnu.linkonce.r*)

.rela.rodata
 *(.rela.rodata)
 *(.rela.rodata.*)
 *(.rela.gnu.linkonce.r*)

.rel.data
 *(.rel.data)
 *(.rel.data.*)
 *(.rel.gnu.linkonce.d*)

.rela.data
 *(.rela.data)
 *(.rela.data.*)
 *(.rela.gnu.linkonce.d*)

.rel.ctors
 *(.rel.ctors)

.rela.ctors
 *(.rela.ctors)

.rel.dtors
 *(.rel.dtors)

.rela.dtors
 *(.rela.dtors)

.rel.got
 *(.rel.got)

.rela.got
 *(.rela.got)

.rel.bss
 *(.rel.bss)

.rela.bss
 *(.rela.bss)

.rel.plt
 *(.rel.plt)

.rela.plt
 *(.rela.plt)

.text           0x0000000000000000      0x134
 *(.vectors)
 .vectors       0x0000000000000000       0x90 C:/Users/C70348/.mchp_packs/Microchip/AVR-Dx_DFP/2.1.152/xc8/avr/lib/avrxmega2/memx-const/mapped/crtavr64dd32.o
                0x0000000000000000                __vector_default
                0x0000000000000000                __vectors
 *(.vectors)
 *(.progmem.gcc*)
 .progmem.gcc_sw_table.stateMachine
                0x0000000000000090       0x18 dist/pro/production/__pa_temp_15376/application.o
 *(.dinit)
 .dinit         0x00000000000000a8       0x29 data_init
                0x00000000000000d2                . = ALIGN (0x2)
 *fill*         0x00000000000000d1        0x1 
                0x00000000000000d2                __trampolines_start = .
 *(.trampolines)
 .trampolines   0x00000000000000d2        0x0 linker stubs
 *(.trampolines*)
                0x00000000000000d2                __trampolines_end = .
 *libprintf_flt.a:*(.progmem.data)
 *libc.a:*(.progmem.data)
                0x00000000000000d2                . = ALIGN (0x2)
 *(.jumptables)
 *(.jumptables*)
 *(.lowtext)
 *(.lowtext*)
                0x00000000000000d2                __ctors_start = .
 *(.ctors)
                0x00000000000000d2                __ctors_end = .
                0x00000000000000d2                __dtors_start = .
 *(.dtors)
                0x00000000000000d2                __dtors_end = .
 SORT(*)(.ctors)
 SORT(*)(.dtors)
 *(.init0)
 .init0         0x00000000000000d2        0x0 C:/Users/C70348/.mchp_packs/Microchip/AVR-Dx_DFP/2.1.152/xc8/avr/lib/avrxmega2/memx-const/mapped/crtavr64dd32.o
                0x00000000000000d2                __init
 *(.init0)
 *(.init1)
 .init1         0x00000000000000d2        0xe C:/Users/C70348/.mchp_packs/Microchip/AVR-Dx_DFP/2.1.152/xc8/avr/lib/avrxmega2/memx-const/mapped/crtavr64dd32.o
 *(.init1)
 *(.init2)
 .init2         0x00000000000000e0        0xc C:/Users/C70348/.mchp_packs/Microchip/AVR-Dx_DFP/2.1.152/xc8/avr/lib/avrxmega2/memx-const/mapped/crtavr64dd32.o
 *(.init2)
 *(.init3)
 *(.init3)
 *(.init4)
 .init4         0x00000000000000ec       0x3c c:/program files/microchip/xc8/v2.40/avr/bin/../lib/gcc/avr/5.4.0/avrxmega2/memx-const/mapped\libgcc.a(_copy_data.o)
                0x00000000000000ec                __do_copy_data
                0x000000000000011a                __do_clear_bss
 *(.init4)
 *(.init5)
 *(.init5)
 *(.init6)
 *(.init6)
 *(.init7)
 *(.init7)
 *(.init8)
 *(.init8)
 *(.init9)
 .init9         0x0000000000000128        0x8 C:/Users/C70348/.mchp_packs/Microchip/AVR-Dx_DFP/2.1.152/xc8/avr/lib/avrxmega2/memx-const/mapped/crtavr64dd32.o
 *(.init9)
                0x0000000000000130                . = ALIGN (0x2)
 *(.fini9)
 .fini9         0x0000000000000130        0x0 c:/program files/microchip/xc8/v2.40/avr/bin/../lib/gcc/avr/5.4.0/avrxmega2/memx-const/mapped\libgcc.a(_exit.o)
                0x0000000000000130                _exit
 *(.fini9)
 *(.fini8)
 *(.fini8)
 *(.fini7)
 *(.fini7)
 *(.fini6)
 *(.fini6)
 *(.fini5)
 *(.fini5)
 *(.fini4)
 *(.fini4)
 *(.fini3)
 *(.fini3)
 *(.fini2)
 *(.fini2)
 *(.fini1)
 *(.fini1)
 *(.fini0)
 .fini0         0x0000000000000130        0x4 c:/program files/microchip/xc8/v2.40/avr/bin/../lib/gcc/avr/5.4.0/avrxmega2/memx-const/mapped\libgcc.a(_exit.o)
 *(.fini0)
                0x0000000000000134                _etext = .

.data           0x0000000000806000        0x0 load address 0x0000000000000134
                [!provide]                        PROVIDE (__data_start, .)
 *(.gnu.linkonce.d*)
 *(.gnu.linkonce.r*)
                0x0000000000806000                . = ALIGN (0x2)
                0x0000000000806000                _edata = .
                [!provide]                        PROVIDE (__data_end, .)

.bss            0x0000000000806000        0x2
                [!provide]                        PROVIDE (__bss_start, .)
 *(COMMON)
 COMMON         0x0000000000806000        0x2 c:/program files/microchip/xc8/v2.40/avr/bin/../lib/gcc/avr/5.4.0/../../../../avr/lib/avrxmega2/memx-const/mapped\libc.a(errno.o)
                0x0000000000806000                __errno_val
                [!provide]                        PROVIDE (__bss_end, .)
                0x0000000000000134                __data_load_start = LOADADDR (.data)
                0x0000000000000134                __data_load_end = (__data_load_start + SIZEOF (.data))

.noinit         0x0000000000806002        0x0
                [!provide]                        PROVIDE (__noinit_start, .)
 *(.noinit*)
                [!provide]                        PROVIDE (__noinit_end, .)
                0x0000000000806002                _end = .

.eeprom         0x0000000000810000        0x0
 *(.eeprom*)
                0x0000000000810000                __eeprom_end = .

.fuse           0x0000000000820000        0x9
 *(.fuse)
 .fuse          0x0000000000820000        0x9 build/pro/production/mcc_generated_files/system/src/config_bits.o
                0x0000000000820000                __fuse
 *(.lfuse)
 *(.hfuse)
 *(.efuse)

.lock
 *(.lock*)

.signature
 *(.signature*)

.user_signatures
 *(.user_signatures*)

.stab
 *(.stab)

.stabstr
 *(.stabstr)

.stab.excl
 *(.stab.excl)

.stab.exclstr
 *(.stab.exclstr)

.stab.index
 *(.stab.index)

.stab.indexstr
 *(.stab.indexstr)

.comment        0x0000000000000000       0x2f
 *(.comment)
 .comment       0x0000000000000000       0x2f dist/pro/production/__pa_temp_15376/libm_a_sqrtf.o
                                         0x30 (size before relaxing)
 .comment       0x000000000000002f       0x30 dist/pro/production/__pa_temp_15376/libm_a_scalbnf.o
 .comment       0x000000000000002f       0x30 dist/pro/production/__pa_temp_15376/libm_a_powf.o
 .comment       0x000000000000002f       0x30 dist/pro/production/__pa_temp_15376/libc_a___sio_printf_s.o
 .comment       0x000000000000002f       0x30 dist/pro/production/__pa_temp_15376/libc_a___sio_printf_doux.o
 .comment       0x000000000000002f       0x30 dist/pro/production/__pa_temp_15376/libc_a___sio_printf_dosux.o
 .comment       0x000000000000002f       0x30 dist/pro/production/__pa_temp_15376/libc_a___printf_core.o
 .comment       0x000000000000002f       0x30 dist/pro/production/__pa_temp_15376/libc_a___pop_int.o
 .comment       0x000000000000002f       0x30 dist/pro/production/__pa_temp_15376/libc_a___int_vsnprintf.o
 .comment       0x000000000000002f       0x30 dist/pro/production/__pa_temp_15376/libc_a___int_vfprintf.o
 .comment       0x000000000000002f       0x30 dist/pro/production/__pa_temp_15376/libc_a___fmt_x.o
 .comment       0x000000000000002f       0x30 dist/pro/production/__pa_temp_15376/libc_a___fmt_u.o
 .comment       0x000000000000002f       0x30 dist/pro/production/__pa_temp_15376/libc_a___fmt_o.o
 .comment       0x000000000000002f       0x30 dist/pro/production/__pa_temp_15376/libc_a___fmt_d.o
 .comment       0x000000000000002f       0x30 build/pro/production/mcc_generated_files/adc/src/adc0.o
 .comment       0x000000000000002f       0x30 dist/pro/production/__pa_temp_15376/evsys.o
 .comment       0x000000000000002f       0x30 dist/pro/production/__pa_temp_15376/clock.o
 .comment       0x000000000000002f       0x30 build/pro/production/mcc_generated_files/system/src/system.o
 .comment       0x000000000000002f       0x30 build/pro/production/mcc_generated_files/system/src/config_bits.o
 .comment       0x000000000000002f       0x30 dist/pro/production/__pa_temp_15376/pins.o
 .comment       0x000000000000002f       0x30 build/pro/production/mcc_generated_files/system/src/interrupt.o
 .comment       0x000000000000002f       0x30 dist/pro/production/__pa_temp_15376/tcb0.o
 .comment       0x000000000000002f       0x30 build/pro/production/mcc_generated_files/timer/src/rtc.o
 .comment       0x000000000000002f       0x30 dist/pro/production/__pa_temp_15376/tcb1.o
 .comment       0x000000000000002f       0x30 dist/pro/production/__pa_temp_15376/usart0.o
 .comment       0x000000000000002f       0x30 dist/pro/production/__pa_temp_15376/usart1.o
 .comment       0x000000000000002f       0x30 build/pro/production/mcc_generated_files/vref/src/vref.o
 .comment       0x000000000000002f       0x30 build/pro/production/main.o
 .comment       0x000000000000002f       0x30 dist/pro/production/__pa_temp_15376/application.o
 .comment       0x000000000000002f       0x30 dist/pro/production/__pa_temp_15376/TWI.o
 .comment       0x000000000000002f       0x30 dist/pro/production/__pa_temp_15376/bme280.o
 .comment       0x000000000000002f       0x30 build/pro/production/ringBuffer.o
 .comment       0x000000000000002f       0x30 dist/pro/production/__pa_temp_15376/RN2xx3.o
 .comment       0x000000000000002f       0x30 c:/program files/microchip/xc8/v2.40/avr/bin/../lib/gcc/avr/5.4.0/../../../../avr/lib/avrxmega2/memx-const/mapped\libm.a(fabsf.o)
 .comment       0x000000000000002f       0x30 c:/program files/microchip/xc8/v2.40/avr/bin/../lib/gcc/avr/5.4.0/../../../../avr/lib/avrxmega2/memx-const/mapped\libc.a(tolower.o)
 .comment       0x000000000000002f       0x30 c:/program files/microchip/xc8/v2.40/avr/bin/../lib/gcc/avr/5.4.0/../../../../avr/lib/avrxmega2/memx-const/mapped\libc.a(toupper.o)
 .comment       0x000000000000002f       0x30 c:/program files/microchip/xc8/v2.40/avr/bin/../lib/gcc/avr/5.4.0/../../../../avr/lib/avrxmega2/memx-const/mapped\libc.a(errno.o)
 .comment       0x000000000000002f       0x30 c:/program files/microchip/xc8/v2.40/avr/bin/../lib/gcc/avr/5.4.0/../../../../avr/lib/avrxmega2/memx-const/mapped\libc.a(exit.o)
 .comment       0x000000000000002f       0x30 c:/program files/microchip/xc8/v2.40/avr/bin/../lib/gcc/avr/5.4.0/../../../../avr/lib/avrxmega2/memx-const/mapped\libc.a(__sio_sprintf_doux.o)
 .comment       0x000000000000002f       0x30 c:/program files/microchip/xc8/v2.40/avr/bin/../lib/gcc/avr/5.4.0/../../../../avr/lib/avrxmega2/memx-const/mapped\libc.a(__fmt_s.o)
 .comment       0x000000000000002f       0x30 c:/program files/microchip/xc8/v2.40/avr/bin/../lib/gcc/avr/5.4.0/../../../../avr/lib/avrxmega2/memx-const/mapped\libc.a(fputc.o)
 .comment       0x000000000000002f       0x30 c:/program files/microchip/xc8/v2.40/avr/bin/../lib/gcc/avr/5.4.0/../../../../avr/lib/avrxmega2/memx-const/mapped\libc.a(puts.o)
 .comment       0x000000000000002f       0x30 c:/program files/microchip/xc8/v2.40/avr/bin/../lib/gcc/avr/5.4.0/../../../../avr/lib/avrxmega2/memx-const/mapped\libc.a(stdout.o)
 .comment       0x000000000000002f       0x30 c:/program files/microchip/xc8/v2.40/avr/bin/../lib/gcc/avr/5.4.0/../../../../avr/lib/avrxmega2/memx-const/mapped\libc.a(strlen.o)
 .comment       0x000000000000002f       0x30 c:/program files/microchip/xc8/v2.40/avr/bin/../lib/gcc/avr/5.4.0/../../../../avr/lib/avrxmega2/memx-const/mapped\libc.a(_Exit.o)
 .comment       0x000000000000002f       0x30 c:/program files/microchip/xc8/v2.40/avr/bin/../lib/gcc/avr/5.4.0/../../../../avr/lib/avrxmega2/memx-const/mapped\libc.a(__int_vsprintf.o)
 .comment       0x000000000000002f       0x30 c:/program files/microchip/xc8/v2.40/avr/bin/../lib/gcc/avr/5.4.0/../../../../avr/lib/avrxmega2/memx-const/mapped\libc.a(fputs.o)

.note.GNU-stack
                0x0000000000000000        0x0
 .note.GNU-stack
                0x0000000000000000        0x0 dist/pro/production/__pa_temp_15376/libm_a_sqrtf.o
 .note.GNU-stack
                0x0000000000000000        0x0 dist/pro/production/__pa_temp_15376/libm_a_scalbnf.o
 .note.GNU-stack
                0x0000000000000000        0x0 dist/pro/production/__pa_temp_15376/libm_a_powf.o
 .note.GNU-stack
                0x0000000000000000        0x0 dist/pro/production/__pa_temp_15376/libm_a_mulsf3x.o
 .note.GNU-stack
                0x0000000000000000        0x0 dist/pro/production/__pa_temp_15376/libm_a_floatsisf.o
 .note.GNU-stack
                0x0000000000000000        0x0 dist/pro/production/__pa_temp_15376/libm_a_fixunssfsi.o
 .note.GNU-stack
                0x0000000000000000        0x0 dist/pro/production/__pa_temp_15376/libm_a_divsf3x.o
 .note.GNU-stack
                0x0000000000000000        0x0 dist/pro/production/__pa_temp_15376/libm_a_addsf3x.o
 .note.GNU-stack
                0x0000000000000000        0x0 dist/pro/production/__pa_temp_15376/libc_a___sio_printf_s.o
 .note.GNU-stack
                0x0000000000000000        0x0 dist/pro/production/__pa_temp_15376/libc_a___sio_printf_doux.o
 .note.GNU-stack
                0x0000000000000000        0x0 dist/pro/production/__pa_temp_15376/libc_a___sio_printf_dosux.o
 .note.GNU-stack
                0x0000000000000000        0x0 dist/pro/production/__pa_temp_15376/libc_a___printf_core.o
 .note.GNU-stack
                0x0000000000000000        0x0 dist/pro/production/__pa_temp_15376/libc_a___pop_int.o
 .note.GNU-stack
                0x0000000000000000        0x0 dist/pro/production/__pa_temp_15376/libc_a___int_vsnprintf.o
 .note.GNU-stack
                0x0000000000000000        0x0 dist/pro/production/__pa_temp_15376/libc_a___int_vfprintf.o
 .note.GNU-stack
                0x0000000000000000        0x0 dist/pro/production/__pa_temp_15376/libc_a___fmt_x.o
 .note.GNU-stack
                0x0000000000000000        0x0 dist/pro/production/__pa_temp_15376/libc_a___fmt_u.o
 .note.GNU-stack
                0x0000000000000000        0x0 dist/pro/production/__pa_temp_15376/libc_a___fmt_o.o
 .note.GNU-stack
                0x0000000000000000        0x0 dist/pro/production/__pa_temp_15376/libc_a___fmt_d.o
 .note.GNU-stack
                0x0000000000000000        0x0 c:/program files/microchip/xc8/v2.40/avr/bin/../lib/gcc/avr/5.4.0/../../../../avr/lib/avrxmega2/memx-const/mapped\libm.a(addsf3.o)
 .note.GNU-stack
                0x0000000000000000        0x0 c:/program files/microchip/xc8/v2.40/avr/bin/../lib/gcc/avr/5.4.0/../../../../avr/lib/avrxmega2/memx-const/mapped\libm.a(cmpsf2.o)
 .note.GNU-stack
                0x0000000000000000        0x0 c:/program files/microchip/xc8/v2.40/avr/bin/../lib/gcc/avr/5.4.0/../../../../avr/lib/avrxmega2/memx-const/mapped\libm.a(divsf3.o)
 .note.GNU-stack
                0x0000000000000000        0x0 c:/program files/microchip/xc8/v2.40/avr/bin/../lib/gcc/avr/5.4.0/../../../../avr/lib/avrxmega2/memx-const/mapped\libm.a(fixsfsi.o)
 .note.GNU-stack
                0x0000000000000000        0x0 c:/program files/microchip/xc8/v2.40/avr/bin/../lib/gcc/avr/5.4.0/../../../../avr/lib/avrxmega2/memx-const/mapped\libm.a(fp_cmp.o)
 .note.GNU-stack
                0x0000000000000000        0x0 c:/program files/microchip/xc8/v2.40/avr/bin/../lib/gcc/avr/5.4.0/../../../../avr/lib/avrxmega2/memx-const/mapped\libm.a(fp_inf.o)
 .note.GNU-stack
                0x0000000000000000        0x0 c:/program files/microchip/xc8/v2.40/avr/bin/../lib/gcc/avr/5.4.0/../../../../avr/lib/avrxmega2/memx-const/mapped\libm.a(fp_nan.o)
 .note.GNU-stack
                0x0000000000000000        0x0 c:/program files/microchip/xc8/v2.40/avr/bin/../lib/gcc/avr/5.4.0/../../../../avr/lib/avrxmega2/memx-const/mapped\libm.a(fp_pscA.o)
 .note.GNU-stack
                0x0000000000000000        0x0 c:/program files/microchip/xc8/v2.40/avr/bin/../lib/gcc/avr/5.4.0/../../../../avr/lib/avrxmega2/memx-const/mapped\libm.a(fp_pscB.o)
 .note.GNU-stack
                0x0000000000000000        0x0 c:/program files/microchip/xc8/v2.40/avr/bin/../lib/gcc/avr/5.4.0/../../../../avr/lib/avrxmega2/memx-const/mapped\libm.a(fp_round.o)
 .note.GNU-stack
                0x0000000000000000        0x0 c:/program files/microchip/xc8/v2.40/avr/bin/../lib/gcc/avr/5.4.0/../../../../avr/lib/avrxmega2/memx-const/mapped\libm.a(fp_split3.o)
 .note.GNU-stack
                0x0000000000000000        0x0 c:/program files/microchip/xc8/v2.40/avr/bin/../lib/gcc/avr/5.4.0/../../../../avr/lib/avrxmega2/memx-const/mapped\libm.a(fp_zero.o)
 .note.GNU-stack
                0x0000000000000000        0x0 c:/program files/microchip/xc8/v2.40/avr/bin/../lib/gcc/avr/5.4.0/../../../../avr/lib/avrxmega2/memx-const/mapped\libm.a(gesf2.o)
 .note.GNU-stack
                0x0000000000000000        0x0 c:/program files/microchip/xc8/v2.40/avr/bin/../lib/gcc/avr/5.4.0/../../../../avr/lib/avrxmega2/memx-const/mapped\libm.a(mulsf3.o)
 .note.GNU-stack
                0x0000000000000000        0x0 c:/program files/microchip/xc8/v2.40/avr/bin/../lib/gcc/avr/5.4.0/../../../../avr/lib/avrxmega2/memx-const/mapped\libm.a(fabsf.o)
 .note.GNU-stack
                0x0000000000000000        0x0 c:/program files/microchip/xc8/v2.40/avr/bin/../lib/gcc/avr/5.4.0/../../../../avr/lib/avrxmega2/memx-const/mapped\libc.a(tolower.o)
 .note.GNU-stack
                0x0000000000000000        0x0 c:/program files/microchip/xc8/v2.40/avr/bin/../lib/gcc/avr/5.4.0/../../../../avr/lib/avrxmega2/memx-const/mapped\libc.a(toupper.o)
 .note.GNU-stack
                0x0000000000000000        0x0 c:/program files/microchip/xc8/v2.40/avr/bin/../lib/gcc/avr/5.4.0/../../../../avr/lib/avrxmega2/memx-const/mapped\libc.a(errno.o)
 .note.GNU-stack
                0x0000000000000000        0x0 c:/program files/microchip/xc8/v2.40/avr/bin/../lib/gcc/avr/5.4.0/../../../../avr/lib/avrxmega2/memx-const/mapped\libc.a(exit.o)
 .note.GNU-stack
                0x0000000000000000        0x0 c:/program files/microchip/xc8/v2.40/avr/bin/../lib/gcc/avr/5.4.0/../../../../avr/lib/avrxmega2/memx-const/mapped\libc.a(__sio_sprintf_doux.o)
 .note.GNU-stack
                0x0000000000000000        0x0 c:/program files/microchip/xc8/v2.40/avr/bin/../lib/gcc/avr/5.4.0/../../../../avr/lib/avrxmega2/memx-const/mapped\libc.a(__fmt_s.o)
 .note.GNU-stack
                0x0000000000000000        0x0 c:/program files/microchip/xc8/v2.40/avr/bin/../lib/gcc/avr/5.4.0/../../../../avr/lib/avrxmega2/memx-const/mapped\libc.a(fputc.o)
 .note.GNU-stack
                0x0000000000000000        0x0 c:/program files/microchip/xc8/v2.40/avr/bin/../lib/gcc/avr/5.4.0/../../../../avr/lib/avrxmega2/memx-const/mapped\libc.a(puts.o)
 .note.GNU-stack
                0x0000000000000000        0x0 c:/program files/microchip/xc8/v2.40/avr/bin/../lib/gcc/avr/5.4.0/../../../../avr/lib/avrxmega2/memx-const/mapped\libc.a(stdout.o)
 .note.GNU-stack
                0x0000000000000000        0x0 c:/program files/microchip/xc8/v2.40/avr/bin/../lib/gcc/avr/5.4.0/../../../../avr/lib/avrxmega2/memx-const/mapped\libc.a(strlen.o)
 .note.GNU-stack
                0x0000000000000000        0x0 c:/program files/microchip/xc8/v2.40/avr/bin/../lib/gcc/avr/5.4.0/../../../../avr/lib/avrxmega2/memx-const/mapped\libc.a(_Exit.o)
 .note.GNU-stack
                0x0000000000000000        0x0 c:/program files/microchip/xc8/v2.40/avr/bin/../lib/gcc/avr/5.4.0/../../../../avr/lib/avrxmega2/memx-const/mapped\libc.a(__int_vsprintf.o)
 .note.GNU-stack
                0x0000000000000000        0x0 c:/program files/microchip/xc8/v2.40/avr/bin/../lib/gcc/avr/5.4.0/../../../../avr/lib/avrxmega2/memx-const/mapped\libc.a(fputs.o)

.stack.descriptors.hdr
                0x0000000000000000      0x16c
 .stack.descriptors.hdr
                0x0000000000000000        0xe dist/pro/production/__pa_temp_15376/libm_a_mulsf3x.o
 .stack.descriptors.hdr
                0x000000000000000e        0xe dist/pro/production/__pa_temp_15376/libm_a_floatsisf.o
 .stack.descriptors.hdr
                0x000000000000001c        0xe dist/pro/production/__pa_temp_15376/libm_a_fixunssfsi.o
 .stack.descriptors.hdr
                0x000000000000002a        0xe dist/pro/production/__pa_temp_15376/libm_a_divsf3x.o
 .stack.descriptors.hdr
                0x0000000000000038        0xe dist/pro/production/__pa_temp_15376/libm_a_addsf3x.o
 .stack.descriptors.hdr
                0x0000000000000046        0xe c:/program files/microchip/xc8/v2.40/avr/bin/../lib/gcc/avr/5.4.0/../../../../avr/lib/avrxmega2/memx-const/mapped\libm.a(addsf3.o)
 .stack.descriptors.hdr
                0x0000000000000054        0xe c:/program files/microchip/xc8/v2.40/avr/bin/../lib/gcc/avr/5.4.0/../../../../avr/lib/avrxmega2/memx-const/mapped\libm.a(cmpsf2.o)
 .stack.descriptors.hdr
                0x0000000000000062        0xe c:/program files/microchip/xc8/v2.40/avr/bin/../lib/gcc/avr/5.4.0/../../../../avr/lib/avrxmega2/memx-const/mapped\libm.a(divsf3.o)
 .stack.descriptors.hdr
                0x0000000000000070        0xe c:/program files/microchip/xc8/v2.40/avr/bin/../lib/gcc/avr/5.4.0/../../../../avr/lib/avrxmega2/memx-const/mapped\libm.a(fixsfsi.o)
 .stack.descriptors.hdr
                0x000000000000007e        0xe c:/program files/microchip/xc8/v2.40/avr/bin/../lib/gcc/avr/5.4.0/../../../../avr/lib/avrxmega2/memx-const/mapped\libm.a(fp_cmp.o)
 .stack.descriptors.hdr
                0x000000000000008c        0xe c:/program files/microchip/xc8/v2.40/avr/bin/../lib/gcc/avr/5.4.0/../../../../avr/lib/avrxmega2/memx-const/mapped\libm.a(fp_inf.o)
 .stack.descriptors.hdr
                0x000000000000009a        0xe c:/program files/microchip/xc8/v2.40/avr/bin/../lib/gcc/avr/5.4.0/../../../../avr/lib/avrxmega2/memx-const/mapped\libm.a(fp_nan.o)
 .stack.descriptors.hdr
                0x00000000000000a8        0xe c:/program files/microchip/xc8/v2.40/avr/bin/../lib/gcc/avr/5.4.0/../../../../avr/lib/avrxmega2/memx-const/mapped\libm.a(fp_pscA.o)
 .stack.descriptors.hdr
                0x00000000000000b6        0xe c:/program files/microchip/xc8/v2.40/avr/bin/../lib/gcc/avr/5.4.0/../../../../avr/lib/avrxmega2/memx-const/mapped\libm.a(fp_pscB.o)
 .stack.descriptors.hdr
                0x00000000000000c4        0xe c:/program files/microchip/xc8/v2.40/avr/bin/../lib/gcc/avr/5.4.0/../../../../avr/lib/avrxmega2/memx-const/mapped\libm.a(fp_round.o)
 .stack.descriptors.hdr
                0x00000000000000d2        0xe c:/program files/microchip/xc8/v2.40/avr/bin/../lib/gcc/avr/5.4.0/../../../../avr/lib/avrxmega2/memx-const/mapped\libm.a(fp_split3.o)
 .stack.descriptors.hdr
                0x00000000000000e0        0xe c:/program files/microchip/xc8/v2.40/avr/bin/../lib/gcc/avr/5.4.0/../../../../avr/lib/avrxmega2/memx-const/mapped\libm.a(fp_zero.o)
 .stack.descriptors.hdr
                0x00000000000000ee        0xe c:/program files/microchip/xc8/v2.40/avr/bin/../lib/gcc/avr/5.4.0/../../../../avr/lib/avrxmega2/memx-const/mapped\libm.a(gesf2.o)
 .stack.descriptors.hdr
                0x00000000000000fc        0xe c:/program files/microchip/xc8/v2.40/avr/bin/../lib/gcc/avr/5.4.0/../../../../avr/lib/avrxmega2/memx-const/mapped\libm.a(mulsf3.o)
 .stack.descriptors.hdr
                0x000000000000010a        0xe c:/program files/microchip/xc8/v2.40/avr/bin/../lib/gcc/avr/5.4.0/avrxmega2/memx-const/mapped\libgcc.a(_mulsi3.o)
 .stack.descriptors.hdr
                0x0000000000000118        0xe c:/program files/microchip/xc8/v2.40/avr/bin/../lib/gcc/avr/5.4.0/avrxmega2/memx-const/mapped\libgcc.a(_udivmodsi4.o)
 .stack.descriptors.hdr
                0x0000000000000126        0xe c:/program files/microchip/xc8/v2.40/avr/bin/../lib/gcc/avr/5.4.0/avrxmega2/memx-const/mapped\libgcc.a(_tablejump2.o)
 .stack.descriptors.hdr
                0x0000000000000134        0xe c:/program files/microchip/xc8/v2.40/avr/bin/../lib/gcc/avr/5.4.0/avrxmega2/memx-const/mapped\libgcc.a(_muluhisi3.o)
 .stack.descriptors.hdr
                0x0000000000000142        0xe c:/program files/microchip/xc8/v2.40/avr/bin/../lib/gcc/avr/5.4.0/avrxmega2/memx-const/mapped\libgcc.a(_mulshisi3.o)
 .stack.descriptors.hdr
                0x0000000000000150        0xe c:/program files/microchip/xc8/v2.40/avr/bin/../lib/gcc/avr/5.4.0/avrxmega2/memx-const/mapped\libgcc.a(_umulhisi3.o)
 .stack.descriptors.hdr
                0x000000000000015e        0xe c:/program files/microchip/xc8/v2.40/avr/bin/../lib/gcc/avr/5.4.0/avrxmega2/memx-const/mapped\libgcc.a(_exit.o)

.note.gnu.build-id
 *(.note.gnu.build-id)

.debug
 *(.debug)

.line
 *(.line)

.debug_srcinfo
 *(.debug_srcinfo)

.debug_sfnames
 *(.debug_sfnames)

.debug_aranges  0x0000000000000000      0x858
 *(.debug_aranges)
 .debug_aranges
                0x0000000000000000       0xc8 build/pro/production/mcc_generated_files/adc/src/adc0.o
 .debug_aranges
                0x00000000000000c8       0x30 dist/pro/production/__pa_temp_15376/evsys.o
 .debug_aranges
                0x00000000000000f8       0x38 dist/pro/production/__pa_temp_15376/clock.o
 .debug_aranges
                0x0000000000000130       0x28 build/pro/production/mcc_generated_files/system/src/system.o
 .debug_aranges
                0x0000000000000158       0x18 build/pro/production/mcc_generated_files/system/src/config_bits.o
 .debug_aranges
                0x0000000000000170       0xa0 dist/pro/production/__pa_temp_15376/pins.o
 .debug_aranges
                0x0000000000000210       0x20 build/pro/production/mcc_generated_files/system/src/protected_io.o
 .debug_aranges
                0x0000000000000230       0x20 build/pro/production/mcc_generated_files/system/src/interrupt.o
 .debug_aranges
                0x0000000000000250       0x90 dist/pro/production/__pa_temp_15376/tcb0.o
 .debug_aranges
                0x00000000000002e0       0xb8 build/pro/production/mcc_generated_files/timer/src/rtc.o
 .debug_aranges
                0x0000000000000398       0x90 dist/pro/production/__pa_temp_15376/tcb1.o
 .debug_aranges
                0x0000000000000428       0xb0 dist/pro/production/__pa_temp_15376/usart0.o
 .debug_aranges
                0x00000000000004d8       0xa8 dist/pro/production/__pa_temp_15376/usart1.o
 .debug_aranges
                0x0000000000000580       0x20 build/pro/production/mcc_generated_files/vref/src/vref.o
 .debug_aranges
                0x00000000000005a0       0x20 build/pro/production/main.o
 .debug_aranges
                0x00000000000005c0       0x80 dist/pro/production/__pa_temp_15376/application.o
 .debug_aranges
                0x0000000000000640       0x70 dist/pro/production/__pa_temp_15376/TWI.o
 .debug_aranges
                0x00000000000006b0       0x98 dist/pro/production/__pa_temp_15376/bme280.o
 .debug_aranges
                0x0000000000000748       0x60 build/pro/production/ringBuffer.o
 .debug_aranges
                0x00000000000007a8       0xb0 dist/pro/production/__pa_temp_15376/RN2xx3.o

.debug_pubnames
 *(.debug_pubnames)

.debug_info     0x0000000000000000     0xeb9b
 *(.debug_info .gnu.linkonce.wi.*)
 .debug_info    0x0000000000000000     0x22a4 C:/Users/C70348/.mchp_packs/Microchip/AVR-Dx_DFP/2.1.152/xc8/avr/lib/avrxmega2/memx-const/mapped/crtavr64dd32.o
 .debug_info    0x00000000000022a4     0x103c build/pro/production/mcc_generated_files/adc/src/adc0.o
 .debug_info    0x00000000000032e0      0x6cc dist/pro/production/__pa_temp_15376/evsys.o
 .debug_info    0x00000000000039ac      0x7ff dist/pro/production/__pa_temp_15376/clock.o
 .debug_info    0x00000000000041ab      0x570 build/pro/production/mcc_generated_files/system/src/system.o
 .debug_info    0x000000000000471b      0x901 build/pro/production/mcc_generated_files/system/src/config_bits.o
 .debug_info    0x000000000000501c      0xcc6 dist/pro/production/__pa_temp_15376/pins.o
 .debug_info    0x0000000000005ce2       0xa2 build/pro/production/mcc_generated_files/system/src/protected_io.o
 .debug_info    0x0000000000005d84      0x40d build/pro/production/mcc_generated_files/system/src/interrupt.o
 .debug_info    0x0000000000006191      0x7ec dist/pro/production/__pa_temp_15376/tcb0.o
 .debug_info    0x000000000000697d      0x8ee build/pro/production/mcc_generated_files/timer/src/rtc.o
 .debug_info    0x000000000000726b      0x7ec dist/pro/production/__pa_temp_15376/tcb1.o
 .debug_info    0x0000000000007a57      0xe02 dist/pro/production/__pa_temp_15376/usart0.o
 .debug_info    0x0000000000008859      0xc3a dist/pro/production/__pa_temp_15376/usart1.o
 .debug_info    0x0000000000009493      0x379 build/pro/production/mcc_generated_files/vref/src/vref.o
 .debug_info    0x000000000000980c      0x36c build/pro/production/main.o
 .debug_info    0x0000000000009b78     0x11fb dist/pro/production/__pa_temp_15376/application.o
 .debug_info    0x000000000000ad73      0xbdc dist/pro/production/__pa_temp_15376/TWI.o
 .debug_info    0x000000000000b94f      0xf19 dist/pro/production/__pa_temp_15376/bme280.o
 .debug_info    0x000000000000c868      0x7b6 build/pro/production/ringBuffer.o
 .debug_info    0x000000000000d01e     0x1b7d dist/pro/production/__pa_temp_15376/RN2xx3.o

.debug_abbrev   0x0000000000000000     0x3e5a
 *(.debug_abbrev)
 .debug_abbrev  0x0000000000000000     0x20ce C:/Users/C70348/.mchp_packs/Microchip/AVR-Dx_DFP/2.1.152/xc8/avr/lib/avrxmega2/memx-const/mapped/crtavr64dd32.o
 .debug_abbrev  0x00000000000020ce      0x25d build/pro/production/mcc_generated_files/adc/src/adc0.o
 .debug_abbrev  0x000000000000232b       0xcd dist/pro/production/__pa_temp_15376/evsys.o
 .debug_abbrev  0x00000000000023f8      0x130 dist/pro/production/__pa_temp_15376/clock.o
 .debug_abbrev  0x0000000000002528      0x13e build/pro/production/mcc_generated_files/system/src/system.o
 .debug_abbrev  0x0000000000002666       0x97 build/pro/production/mcc_generated_files/system/src/config_bits.o
 .debug_abbrev  0x00000000000026fd      0x153 dist/pro/production/__pa_temp_15376/pins.o
 .debug_abbrev  0x0000000000002850       0x14 build/pro/production/mcc_generated_files/system/src/protected_io.o
 .debug_abbrev  0x0000000000002864       0xfa build/pro/production/mcc_generated_files/system/src/interrupt.o
 .debug_abbrev  0x000000000000295e      0x19d dist/pro/production/__pa_temp_15376/tcb0.o
 .debug_abbrev  0x0000000000002afb      0x14c build/pro/production/mcc_generated_files/timer/src/rtc.o
 .debug_abbrev  0x0000000000002c47      0x19d dist/pro/production/__pa_temp_15376/tcb1.o
 .debug_abbrev  0x0000000000002de4      0x2b5 dist/pro/production/__pa_temp_15376/usart0.o
 .debug_abbrev  0x0000000000003099      0x25a dist/pro/production/__pa_temp_15376/usart1.o
 .debug_abbrev  0x00000000000032f3       0x8c build/pro/production/mcc_generated_files/vref/src/vref.o
 .debug_abbrev  0x000000000000337f       0x8b build/pro/production/main.o
 .debug_abbrev  0x000000000000340a      0x206 dist/pro/production/__pa_temp_15376/application.o
 .debug_abbrev  0x0000000000003610      0x1eb dist/pro/production/__pa_temp_15376/TWI.o
 .debug_abbrev  0x00000000000037fb      0x22d dist/pro/production/__pa_temp_15376/bme280.o
 .debug_abbrev  0x0000000000003a28      0x1c4 build/pro/production/ringBuffer.o
 .debug_abbrev  0x0000000000003bec      0x26e dist/pro/production/__pa_temp_15376/RN2xx3.o

.debug_line     0x0000000000000000     0x4042
 *(.debug_line .debug_line.* .debug_line_end)
 .debug_line    0x0000000000000000      0x19e C:/Users/C70348/.mchp_packs/Microchip/AVR-Dx_DFP/2.1.152/xc8/avr/lib/avrxmega2/memx-const/mapped/crtavr64dd32.o
 .debug_line    0x000000000000019e      0x3f4 build/pro/production/mcc_generated_files/adc/src/adc0.o
 .debug_line    0x0000000000000592      0x1e7 dist/pro/production/__pa_temp_15376/evsys.o
 .debug_line    0x0000000000000779      0x205 dist/pro/production/__pa_temp_15376/clock.o
 .debug_line    0x000000000000097e      0x32b build/pro/production/mcc_generated_files/system/src/system.o
 .debug_line    0x0000000000000ca9       0xf0 build/pro/production/mcc_generated_files/system/src/config_bits.o
 .debug_line    0x0000000000000d99      0x46e dist/pro/production/__pa_temp_15376/pins.o
 .debug_line    0x0000000000001207       0x6d build/pro/production/mcc_generated_files/system/src/protected_io.o
 .debug_line    0x0000000000001274      0x189 build/pro/production/mcc_generated_files/system/src/interrupt.o
 .debug_line    0x00000000000013fd      0x2fc dist/pro/production/__pa_temp_15376/tcb0.o
 .debug_line    0x00000000000016f9      0x37c build/pro/production/mcc_generated_files/timer/src/rtc.o
 .debug_line    0x0000000000001a75      0x2fc dist/pro/production/__pa_temp_15376/tcb1.o
 .debug_line    0x0000000000001d71      0x452 dist/pro/production/__pa_temp_15376/usart0.o
 .debug_line    0x00000000000021c3      0x3e3 dist/pro/production/__pa_temp_15376/usart1.o
 .debug_line    0x00000000000025a6      0x10f build/pro/production/mcc_generated_files/vref/src/vref.o
 .debug_line    0x00000000000026b5       0xf2 build/pro/production/main.o
 .debug_line    0x00000000000027a7      0x5b7 dist/pro/production/__pa_temp_15376/application.o
 .debug_line    0x0000000000002d5e      0x373 dist/pro/production/__pa_temp_15376/TWI.o
 .debug_line    0x00000000000030d1      0x498 dist/pro/production/__pa_temp_15376/bme280.o
 .debug_line    0x0000000000003569      0x2cf build/pro/production/ringBuffer.o
 .debug_line    0x0000000000003838      0x80a dist/pro/production/__pa_temp_15376/RN2xx3.o

.debug_frame    0x0000000000000000     0x15b8
 *(.debug_frame)
 .debug_frame   0x0000000000000000      0x204 build/pro/production/mcc_generated_files/adc/src/adc0.o
 .debug_frame   0x0000000000000204       0x44 dist/pro/production/__pa_temp_15376/evsys.o
 .debug_frame   0x0000000000000248       0x54 dist/pro/production/__pa_temp_15376/clock.o
 .debug_frame   0x000000000000029c       0x34 build/pro/production/mcc_generated_files/system/src/system.o
 .debug_frame   0x00000000000002d0      0x2f0 dist/pro/production/__pa_temp_15376/pins.o
 .debug_frame   0x00000000000005c0       0x24 build/pro/production/mcc_generated_files/system/src/interrupt.o
 .debug_frame   0x00000000000005e4      0x14c dist/pro/production/__pa_temp_15376/tcb0.o
 .debug_frame   0x0000000000000730      0x1e4 build/pro/production/mcc_generated_files/timer/src/rtc.o
 .debug_frame   0x0000000000000914      0x14c dist/pro/production/__pa_temp_15376/tcb1.o
 .debug_frame   0x0000000000000a60      0x16c dist/pro/production/__pa_temp_15376/usart0.o
 .debug_frame   0x0000000000000bcc      0x154 dist/pro/production/__pa_temp_15376/usart1.o
 .debug_frame   0x0000000000000d20       0x24 build/pro/production/mcc_generated_files/vref/src/vref.o
 .debug_frame   0x0000000000000d44       0x24 build/pro/production/main.o
 .debug_frame   0x0000000000000d68      0x1d4 dist/pro/production/__pa_temp_15376/application.o
 .debug_frame   0x0000000000000f3c      0x12c dist/pro/production/__pa_temp_15376/TWI.o
 .debug_frame   0x0000000000001068      0x248 dist/pro/production/__pa_temp_15376/bme280.o
 .debug_frame   0x00000000000012b0       0xe4 build/pro/production/ringBuffer.o
 .debug_frame   0x0000000000001394      0x224 dist/pro/production/__pa_temp_15376/RN2xx3.o

.debug_str      0x0000000000000000     0x1337
 *(.debug_str)
 .debug_str     0x0000000000000000      0xefb C:/Users/C70348/.mchp_packs/Microchip/AVR-Dx_DFP/2.1.152/xc8/avr/lib/avrxmega2/memx-const/mapped/crtavr64dd32.o
 .debug_str     0x0000000000000efb       0x11 build/pro/production/mcc_generated_files/adc/src/adc0.o
 .debug_str     0x0000000000000f0c        0x0 dist/pro/production/__pa_temp_15376/evsys.o
 .debug_str     0x0000000000000f0c       0x13 dist/pro/production/__pa_temp_15376/clock.o
 .debug_str     0x0000000000000f1f       0xd1 build/pro/production/mcc_generated_files/system/src/system.o
 .debug_str     0x0000000000000ff0        0x0 build/pro/production/mcc_generated_files/system/src/config_bits.o
 .debug_str     0x0000000000000ff0       0x30 dist/pro/production/__pa_temp_15376/pins.o
 .debug_str     0x0000000000001020       0x13 build/pro/production/mcc_generated_files/system/src/interrupt.o
 .debug_str     0x0000000000001033        0x0 dist/pro/production/__pa_temp_15376/tcb0.o
 .debug_str     0x0000000000001033        0x9 build/pro/production/mcc_generated_files/timer/src/rtc.o
 .debug_str     0x000000000000103c        0x0 dist/pro/production/__pa_temp_15376/tcb1.o
 .debug_str     0x000000000000103c       0x10 dist/pro/production/__pa_temp_15376/usart0.o
 .debug_str     0x000000000000104c       0x10 dist/pro/production/__pa_temp_15376/usart1.o
 .debug_str     0x000000000000105c        0x0 build/pro/production/mcc_generated_files/vref/src/vref.o
 .debug_str     0x000000000000105c       0x7c build/pro/production/main.o
 .debug_str     0x00000000000010d8      0x10c dist/pro/production/__pa_temp_15376/application.o
 .debug_str     0x00000000000011e4       0x15 dist/pro/production/__pa_temp_15376/TWI.o
 .debug_str     0x00000000000011f9       0x2d dist/pro/production/__pa_temp_15376/bme280.o
 .debug_str     0x0000000000001226       0x29 build/pro/production/ringBuffer.o
 .debug_str     0x000000000000124f       0xe8 dist/pro/production/__pa_temp_15376/RN2xx3.o

.debug_loc      0x0000000000000000     0x18bf
 *(.debug_loc)
 .debug_loc     0x0000000000000000      0x149 build/pro/production/mcc_generated_files/adc/src/adc0.o
 .debug_loc     0x0000000000000149       0x73 dist/pro/production/__pa_temp_15376/clock.o
 .debug_loc     0x00000000000001bc       0x52 build/pro/production/mcc_generated_files/system/src/system.o
 .debug_loc     0x000000000000020e       0x2a build/pro/production/mcc_generated_files/system/src/interrupt.o
 .debug_loc     0x0000000000000238       0x64 dist/pro/production/__pa_temp_15376/usart0.o
 .debug_loc     0x000000000000029c      0x20f dist/pro/production/__pa_temp_15376/application.o
 .debug_loc     0x00000000000004ab      0x3fd dist/pro/production/__pa_temp_15376/TWI.o
 .debug_loc     0x00000000000008a8      0x6f6 dist/pro/production/__pa_temp_15376/bme280.o
 .debug_loc     0x0000000000000f9e      0x239 build/pro/production/ringBuffer.o
 .debug_loc     0x00000000000011d7      0x6e8 dist/pro/production/__pa_temp_15376/RN2xx3.o

.debug_macinfo
 *(.debug_macinfo)

.debug_weaknames
 *(.debug_weaknames)

.debug_funcnames
 *(.debug_funcnames)

.debug_typenames
 *(.debug_typenames)

.debug_varnames
 *(.debug_varnames)

.debug_pubtypes
 *(.debug_pubtypes)

.debug_ranges   0x0000000000000000      0x718
 *(.debug_ranges)
 .debug_ranges  0x0000000000000000       0xb8 build/pro/production/mcc_generated_files/adc/src/adc0.o
 .debug_ranges  0x00000000000000b8       0x20 dist/pro/production/__pa_temp_15376/evsys.o
 .debug_ranges  0x00000000000000d8       0x28 dist/pro/production/__pa_temp_15376/clock.o
 .debug_ranges  0x0000000000000100       0x18 build/pro/production/mcc_generated_files/system/src/system.o
 .debug_ranges  0x0000000000000118       0x90 dist/pro/production/__pa_temp_15376/pins.o
 .debug_ranges  0x00000000000001a8       0x10 build/pro/production/mcc_generated_files/system/src/interrupt.o
 .debug_ranges  0x00000000000001b8       0x80 dist/pro/production/__pa_temp_15376/tcb0.o
 .debug_ranges  0x0000000000000238       0xa8 build/pro/production/mcc_generated_files/timer/src/rtc.o
 .debug_ranges  0x00000000000002e0       0x80 dist/pro/production/__pa_temp_15376/tcb1.o
 .debug_ranges  0x0000000000000360       0xa0 dist/pro/production/__pa_temp_15376/usart0.o
 .debug_ranges  0x0000000000000400       0x98 dist/pro/production/__pa_temp_15376/usart1.o
 .debug_ranges  0x0000000000000498       0x10 build/pro/production/mcc_generated_files/vref/src/vref.o
 .debug_ranges  0x00000000000004a8       0x10 build/pro/production/main.o
 .debug_ranges  0x00000000000004b8       0x70 dist/pro/production/__pa_temp_15376/application.o
 .debug_ranges  0x0000000000000528       0x78 dist/pro/production/__pa_temp_15376/TWI.o
 .debug_ranges  0x00000000000005a0       0x88 dist/pro/production/__pa_temp_15376/bme280.o
 .debug_ranges  0x0000000000000628       0x50 build/pro/production/ringBuffer.o
 .debug_ranges  0x0000000000000678       0xa0 dist/pro/production/__pa_temp_15376/RN2xx3.o

.debug_macro
 *(.debug_macro)
OUTPUT(dist/pro/production/agri-iot-hackster.X.production.elf elf32-avr)
LOAD linker stubs
LOAD data_init

.note.gnu.avr.deviceinfo
                0x0000000000000000       0x3c
 .note.gnu.avr.deviceinfo
                0x0000000000000000       0x3c C:/Users/C70348/.mchp_packs/Microchip/AVR-Dx_DFP/2.1.152/xc8/avr/lib/avrxmega2/memx-const/mapped/crtavr64dd32.o

.bss.ADC0_resrdy_cb
                0x000000000080629d        0x2
 .bss.ADC0_resrdy_cb
                0x000000000080629d        0x2 build/pro/production/mcc_generated_files/adc/src/adc0.o
                0x000000000080629d                ADC0_resrdy_cb

.bss.ADC0_window_cb
                0x000000000080629f        0x2
 .bss.ADC0_window_cb
                0x000000000080629f        0x2 build/pro/production/mcc_generated_files/adc/src/adc0.o
                0x000000000080629f                ADC0_window_cb

.bss.PF5_InterruptHandler
                0x00000000008062a1        0x2
 .bss.PF5_InterruptHandler
                0x00000000008062a1        0x2 dist/pro/production/__pa_temp_15376/pins.o

.bss.PD1_InterruptHandler
                0x00000000008062a3        0x2
 .bss.PD1_InterruptHandler
                0x00000000008062a3        0x2 dist/pro/production/__pa_temp_15376/pins.o

.bss.PC2_InterruptHandler
                0x00000000008062a5        0x2
 .bss.PC2_InterruptHandler
                0x00000000008062a5        0x2 dist/pro/production/__pa_temp_15376/pins.o

.bss.PA1_InterruptHandler
                0x00000000008062a7        0x2
 .bss.PA1_InterruptHandler
                0x00000000008062a7        0x2 dist/pro/production/__pa_temp_15376/pins.o

.bss.PA0_InterruptHandler
                0x00000000008062a9        0x2
 .bss.PA0_InterruptHandler
                0x00000000008062a9        0x2 dist/pro/production/__pa_temp_15376/pins.o

.bss.PF6_InterruptHandler
                0x00000000008062ab        0x2
 .bss.PF6_InterruptHandler
                0x00000000008062ab        0x2 dist/pro/production/__pa_temp_15376/pins.o

.bss.PD4_InterruptHandler
                0x00000000008062ad        0x2
 .bss.PD4_InterruptHandler
                0x00000000008062ad        0x2 dist/pro/production/__pa_temp_15376/pins.o

.bss.PD5_InterruptHandler
                0x00000000008062af        0x2
 .bss.PD5_InterruptHandler
                0x00000000008062af        0x2 dist/pro/production/__pa_temp_15376/pins.o

.bss.PD2_InterruptHandler
                0x00000000008062b1        0x2
 .bss.PD2_InterruptHandler
                0x00000000008062b1        0x2 dist/pro/production/__pa_temp_15376/pins.o

.bss.PC0_InterruptHandler
                0x00000000008062b3        0x2
 .bss.PC0_InterruptHandler
                0x00000000008062b3        0x2 dist/pro/production/__pa_temp_15376/pins.o

.bss.PC1_InterruptHandler
                0x00000000008062b5        0x2
 .bss.PC1_InterruptHandler
                0x00000000008062b5        0x2 dist/pro/production/__pa_temp_15376/pins.o

.bss.TCB0_CAPT_isr_cb
                0x00000000008062b7        0x2
 .bss.TCB0_CAPT_isr_cb
                0x00000000008062b7        0x2 dist/pro/production/__pa_temp_15376/tcb0.o
                0x00000000008062b7                TCB0_CAPT_isr_cb

.bss.RTC_PIT_isr_cb
                0x00000000008062b9        0x2
 .bss.RTC_PIT_isr_cb
                0x00000000008062b9        0x2 build/pro/production/mcc_generated_files/timer/src/rtc.o
                0x00000000008062b9                RTC_PIT_isr_cb

.bss.RTC_CMP_isr_cb
                0x00000000008062bb        0x2
 .bss.RTC_CMP_isr_cb
                0x00000000008062bb        0x2 build/pro/production/mcc_generated_files/timer/src/rtc.o
                0x00000000008062bb                RTC_CMP_isr_cb

.bss.RTC_OVF_isr_cb
                0x00000000008062bd        0x2
 .bss.RTC_OVF_isr_cb
                0x00000000008062bd        0x2 build/pro/production/mcc_generated_files/timer/src/rtc.o
                0x00000000008062bd                RTC_OVF_isr_cb

.bss.TCB1_CAPT_isr_cb
                0x00000000008062bf        0x2
 .bss.TCB1_CAPT_isr_cb
                0x00000000008062bf        0x2 dist/pro/production/__pa_temp_15376/tcb1.o
                0x00000000008062bf                TCB1_CAPT_isr_cb

.bss.USART0_ParityErrorHandler
                0x00000000008062c1        0x2
 .bss.USART0_ParityErrorHandler
                0x00000000008062c1        0x2 dist/pro/production/__pa_temp_15376/usart0.o
                0x00000000008062c1                USART0_ParityErrorHandler

.bss.USART0_OverrunErrorHandler
                0x00000000008062c3        0x2
 .bss.USART0_OverrunErrorHandler
                0x00000000008062c3        0x2 dist/pro/production/__pa_temp_15376/usart0.o
                0x00000000008062c3                USART0_OverrunErrorHandler

.bss.USART0_FramingErrorHandler
                0x00000000008062c5        0x2
 .bss.USART0_FramingErrorHandler
                0x00000000008062c5        0x2 dist/pro/production/__pa_temp_15376/usart0.o
                0x00000000008062c5                USART0_FramingErrorHandler

.bss.usart0RxLastError
                0x00000000008062c7        0x2
 .bss.usart0RxLastError
                0x00000000008062c7        0x2 dist/pro/production/__pa_temp_15376/usart0.o

.bss.USART1_ParityErrorHandler
                0x00000000008062c9        0x2
 .bss.USART1_ParityErrorHandler
                0x00000000008062c9        0x2 dist/pro/production/__pa_temp_15376/usart1.o
                0x00000000008062c9                USART1_ParityErrorHandler

.bss.USART1_OverrunErrorHandler
                0x00000000008062cb        0x2
 .bss.USART1_OverrunErrorHandler
                0x00000000008062cb        0x2 dist/pro/production/__pa_temp_15376/usart1.o
                0x00000000008062cb                USART1_OverrunErrorHandler

.bss.USART1_FramingErrorHandler
                0x00000000008062cd        0x2
 .bss.USART1_FramingErrorHandler
                0x00000000008062cd        0x2 dist/pro/production/__pa_temp_15376/usart1.o
                0x00000000008062cd                USART1_FramingErrorHandler

.bss.usart1RxLastError
                0x00000000008062cf        0x2
 .bss.usart1RxLastError
                0x00000000008062cf        0x2 dist/pro/production/__pa_temp_15376/usart1.o

.bss.numTx      0x00000000008062d7        0x1
 .bss.numTx     0x00000000008062d7        0x1 dist/pro/production/__pa_temp_15376/application.o

.bss.state      0x00000000008062d8        0x1
 .bss.state     0x00000000008062d8        0x1 dist/pro/production/__pa_temp_15376/application.o

.bss.event_flags
                0x00000000008062d1        0x2
 .bss.event_flags
                0x00000000008062d1        0x2 dist/pro/production/__pa_temp_15376/application.o

.bss.data       0x0000000000806281        0x4
 .bss.data      0x0000000000806281        0x4 dist/pro/production/__pa_temp_15376/application.o

.bss.payload    0x0000000000806247        0xb
 .bss.payload   0x0000000000806247        0xb dist/pro/production/__pa_temp_15376/application.o
                0x0000000000806247                payload

.bss.secs       0x0000000000806285        0x4
 .bss.secs      0x0000000000806285        0x4 dist/pro/production/__pa_temp_15376/application.o
                0x0000000000806285                secs

.bss.millis     0x0000000000806289        0x4
 .bss.millis    0x0000000000806289        0x4 dist/pro/production/__pa_temp_15376/application.o
                0x0000000000806289                millis

.bss.t_fine     0x000000000080628d        0x4
 .bss.t_fine    0x000000000080628d        0x4 dist/pro/production/__pa_temp_15376/bme280.o
                0x000000000080628d                t_fine

.bss.adc_P      0x0000000000806291        0x4
 .bss.adc_P     0x0000000000806291        0x4 dist/pro/production/__pa_temp_15376/bme280.o
                0x0000000000806291                adc_P

.bss.adc_H      0x0000000000806295        0x4
 .bss.adc_H     0x0000000000806295        0x4 dist/pro/production/__pa_temp_15376/bme280.o
                0x0000000000806295                adc_H

.bss.adc_T      0x0000000000806299        0x4
 .bss.adc_T     0x0000000000806299        0x4 dist/pro/production/__pa_temp_15376/bme280.o
                0x0000000000806299                adc_T

.bss.calibParam
                0x0000000000806200       0x21
 .bss.calibParam
                0x0000000000806200       0x21 dist/pro/production/__pa_temp_15376/bme280.o
                0x0000000000806200                calibParam

.bss.bme280_ctrl_meas
                0x00000000008062d9        0x1
 .bss.bme280_ctrl_meas
                0x00000000008062d9        0x1 dist/pro/production/__pa_temp_15376/bme280.o
                0x00000000008062d9                bme280_ctrl_meas

.bss.bme280_ctrl_hum
                0x00000000008062da        0x1
 .bss.bme280_ctrl_hum
                0x00000000008062da        0x1 dist/pro/production/__pa_temp_15376/bme280.o
                0x00000000008062da                bme280_ctrl_hum

.bss.bme280_config
                0x00000000008062db        0x1
 .bss.bme280_config
                0x00000000008062db        0x1 dist/pro/production/__pa_temp_15376/bme280.o
                0x00000000008062db                bme280_config

.bss.rx_buffer  0x0000000000806277        0x5
 .bss.rx_buffer
                0x0000000000806277        0x5 dist/pro/production/__pa_temp_15376/RN2xx3.o
                0x0000000000806277                rx_buffer

.bss.tx_buffer  0x000000000080627c        0x5
 .bss.tx_buffer
                0x000000000080627c        0x5 dist/pro/production/__pa_temp_15376/RN2xx3.o
                0x000000000080627c                tx_buffer

.bss.tx_text    0x0000000000806002       0xff
 .bss.tx_text   0x0000000000806002       0xff dist/pro/production/__pa_temp_15376/RN2xx3.o

.bss.rx_text    0x0000000000806101       0xff
 .bss.rx_text   0x0000000000806101       0xff dist/pro/production/__pa_temp_15376/RN2xx3.o

.bss.__stdout   0x00000000008062d5        0x2
 .bss.__stdout  0x00000000008062d5        0x2 c:/program files/microchip/xc8/v2.40/avr/bin/../lib/gcc/avr/5.4.0/../../../../avr/lib/avrxmega2/memx-const/mapped\libc.a(stdout.o)

.rodata         0x0000000000808134      0x4b2 load address 0x0000000000000134
 .rodata        0x0000000000808134      0x4b2 dist/pro/production/__pa_temp_15376/RN2xx3.o

.rodata         0x00000000008085e6      0x2eb load address 0x00000000000005e6
 .rodata        0x00000000008085e6      0x2eb dist/pro/production/__pa_temp_15376/application.o

.rodata         0x00000000008088d1       0x2b load address 0x00000000000008d1
 .rodata        0x00000000008088d1       0x2b dist/pro/production/__pa_temp_15376/bme280.o

.rodata         0x00000000008088fc       0x1a load address 0x00000000000008fc
 .rodata        0x00000000008088fc       0x1a build/pro/production/main.o

.text.powf      0x0000000000000916      0xa10
 .text.powf     0x0000000000000916      0xa10 dist/pro/production/__pa_temp_15376/libm_a_powf.o
                0x0000000000000916                pow
                0x0000000000000916                powl
                0x0000000000000916                powf

.text.vfpfcnvrt
                0x0000000000001326      0x2ce
 .text.vfpfcnvrt
                0x0000000000001326      0x2ce dist/pro/production/__pa_temp_15376/libc_a___printf_core.o
                0x0000000000001326                vfpfcnvrt

.text.BME280_compensatePressure
                0x00000000000015f4      0x1fa
 .text.BME280_compensatePressure
                0x00000000000015f4      0x1fa dist/pro/production/__pa_temp_15376/bme280.o
                0x00000000000015f4                BME280_compensatePressure

.text.sqrtf     0x00000000000017ee      0x1da
 .text.sqrtf    0x00000000000017ee      0x1da dist/pro/production/__pa_temp_15376/libm_a_sqrtf.o
                0x00000000000017ee                sqrtl
                0x00000000000017ee                sqrtf
                0x00000000000017ee                sqrt

.text.__fmt_x   0x00000000000019c8      0x1ca
 .text.__fmt_x  0x00000000000019c8      0x1ca dist/pro/production/__pa_temp_15376/libc_a___fmt_x.o
                0x00000000000019c8                __fmt_x_needed
                0x00000000000019c8                __fmt_x

.text.BME280_compensateHumidity
                0x0000000000001b92      0x19c
 .text.BME280_compensateHumidity
                0x0000000000001b92      0x19c dist/pro/production/__pa_temp_15376/bme280.o
                0x0000000000001b92                BME280_compensateHumidity

.text.stateMachine
                0x0000000000001d2e      0x176
 .text.stateMachine
                0x0000000000001d2e      0x176 dist/pro/production/__pa_temp_15376/application.o
                0x0000000000001d2e                stateMachine

.text.BME280_readFactoryCalibrationParams
                0x0000000000001ea4      0x162
 .text.BME280_readFactoryCalibrationParams
                0x0000000000001ea4      0x162 dist/pro/production/__pa_temp_15376/bme280.o
                0x0000000000001ea4                BME280_readFactoryCalibrationParams

.text.PIN_MANAGER_Initialize
                0x0000000000002006      0x136
 .text.PIN_MANAGER_Initialize
                0x0000000000002006      0x136 dist/pro/production/__pa_temp_15376/pins.o
                0x0000000000002006                PIN_MANAGER_Initialize

.text.BME280_compensateTemperature
                0x000000000000213c       0xd8
 .text.BME280_compensateTemperature
                0x000000000000213c       0xd8 dist/pro/production/__pa_temp_15376/bme280.o
                0x000000000000213c                BME280_compensateTemperature

.text           0x0000000000002214       0xd6
 .text          0x0000000000002214       0xd6 dist/pro/production/__pa_temp_15376/libm_a_divsf3x.o
                0x0000000000002214                __divsf3x
                0x000000000000223c                __divsf3_pse

.text           0x00000000000022ea       0xd0
 .text          0x00000000000022ea       0xd0 dist/pro/production/__pa_temp_15376/libm_a_mulsf3x.o
                0x00000000000022ea                __mulsf3x
                0x0000000000002310                __mulsf3_pse

.text           0x00000000000023ba       0xca
 .text          0x00000000000023ba       0xca dist/pro/production/__pa_temp_15376/libm_a_addsf3x.o
                0x00000000000023ba                __addsf3x

.text.__cvt_u   0x0000000000002484       0xca
 .text.__cvt_u  0x0000000000002484       0xca dist/pro/production/__pa_temp_15376/libc_a___fmt_u.o
                0x0000000000002484                __cvt_u

.text.__fmt_d   0x000000000000254e       0xc8
 .text.__fmt_d  0x000000000000254e       0xc8 dist/pro/production/__pa_temp_15376/libc_a___fmt_d.o
                0x000000000000254e                __fmt_d
                0x000000000000254e                __fmt_d_needed

.text.printSensorData
                0x0000000000002616       0xc2
 .text.printSensorData
                0x0000000000002616       0xc2 dist/pro/production/__pa_temp_15376/application.o
                0x0000000000002616                printSensorData

.text.RN2xx3_init
                0x00000000000026d8       0xbc
 .text.RN2xx3_init
                0x00000000000026d8       0xbc dist/pro/production/__pa_temp_15376/RN2xx3.o
                0x00000000000026d8                RN2xx3_init

.text.__pop_int
                0x0000000000002794       0xb0
 .text.__pop_int
                0x0000000000002794       0xb0 dist/pro/production/__pa_temp_15376/libc_a___pop_int.o
                0x0000000000002794                __pop_int_needed
                0x0000000000002794                __pop_int

.text.BME280_readMeasurements
                0x0000000000002844       0xae
 .text.BME280_readMeasurements
                0x0000000000002844       0xae dist/pro/production/__pa_temp_15376/bme280.o
                0x0000000000002844                BME280_readMeasurements

.text.formatPayload
                0x00000000000028f2       0xaa
 .text.formatPayload
                0x00000000000028f2       0xaa dist/pro/production/__pa_temp_15376/application.o
                0x00000000000028f2                formatPayload

.text.TWI_sendAndReadBytes
                0x000000000000299c       0x96
 .text.TWI_sendAndReadBytes
                0x000000000000299c       0x96 dist/pro/production/__pa_temp_15376/TWI.o
                0x000000000000299c                TWI_sendAndReadBytes

.text.scalbnf   0x0000000000002a32       0x92
 .text.scalbnf  0x0000000000002a32       0x92 dist/pro/production/__pa_temp_15376/libm_a_scalbnf.o
                0x0000000000002a32                scalbnf

.text.RN2xx3_disable_unused_channels
                0x0000000000002ac4       0x92
 .text.RN2xx3_disable_unused_channels
                0x0000000000002ac4       0x92 dist/pro/production/__pa_temp_15376/RN2xx3.o
                0x0000000000002ac4                RN2xx3_disable_unused_channels

.text.fputc     0x0000000000002b56       0x92
 .text.fputc    0x0000000000002b56       0x92 c:/program files/microchip/xc8/v2.40/avr/bin/../lib/gcc/avr/5.4.0/../../../../avr/lib/avrxmega2/memx-const/mapped\libc.a(fputc.o)
                0x0000000000002b56                fputc
                0x0000000000002b56                putc

.text.RN2xx3_config_OTAA
                0x0000000000002be8       0x8c
 .text.RN2xx3_config_OTAA
                0x0000000000002be8       0x8c dist/pro/production/__pa_temp_15376/RN2xx3.o
                0x0000000000002be8                RN2xx3_config_OTAA

.text.__fmt_o   0x0000000000002c74       0x8a
 .text.__fmt_o  0x0000000000002c74       0x8a dist/pro/production/__pa_temp_15376/libc_a___fmt_o.o
                0x0000000000002c74                __fmt_o
                0x0000000000002c74                __fmt_o_needed

.text.__vector_24
                0x0000000000002cfe       0x80
 .text.__vector_24
                0x0000000000002cfe       0x80 dist/pro/production/__pa_temp_15376/pins.o
                0x0000000000002cfe                __vector_24

.text.BME280_getPressure
                0x0000000000002d7e       0x7e
 .text.BME280_getPressure
                0x0000000000002d7e       0x7e dist/pro/production/__pa_temp_15376/bme280.o
                0x0000000000002d7e                BME280_getPressure

.text.__printf_core
                0x0000000000002dfc       0x76
 .text.__printf_core
                0x0000000000002dfc       0x76 dist/pro/production/__pa_temp_15376/libc_a___printf_core.o
                0x0000000000002dfc                __printf_core

.text.__vector_5
                0x0000000000002e72       0x76
 .text.__vector_5
                0x0000000000002e72       0x76 build/pro/production/mcc_generated_files/timer/src/rtc.o
                0x0000000000002e72                __vector_5

.text.__pad     0x0000000000002ee8       0x72
 .text.__pad    0x0000000000002ee8       0x72 dist/pro/production/__pa_temp_15376/libc_a___printf_core.o
                0x0000000000002ee8                __pad

.text.__vsnprintf
                0x0000000000002f5a       0x72
 .text.__vsnprintf
                0x0000000000002f5a       0x72 dist/pro/production/__pa_temp_15376/libc_a___int_vsnprintf.o
                0x0000000000002f5a                __vsnprintf

.text.__vector_29
                0x0000000000002fcc       0x72
 .text.__vector_29
                0x0000000000002fcc       0x72 dist/pro/production/__pa_temp_15376/pins.o
                0x0000000000002fcc                __vector_29

.text.RN2xx3_getHWEUI
                0x000000000000303e       0x70
 .text.RN2xx3_getHWEUI
                0x000000000000303e       0x70 dist/pro/production/__pa_temp_15376/RN2xx3.o
                0x000000000000303e                RN2xx3_getHWEUI

.text           0x00000000000030ae       0x6e
 .text          0x00000000000030ae       0x6e dist/pro/production/__pa_temp_15376/libm_a_floatsisf.o
                0x00000000000030ae                __floatunsisf
                0x00000000000030b2                __floatsisf

.text.RN2xx3_resp2
                0x000000000000311c       0x6a
 .text.RN2xx3_resp2
                0x000000000000311c       0x6a dist/pro/production/__pa_temp_15376/RN2xx3.o
                0x000000000000311c                RN2xx3_resp2

.text.RN2xx3_cmd
                0x0000000000003186       0x68
 .text.RN2xx3_cmd
                0x0000000000003186       0x68 dist/pro/production/__pa_temp_15376/RN2xx3.o
                0x0000000000003186                RN2xx3_cmd

.text.__fmt_u   0x00000000000031ee       0x66
 .text.__fmt_u  0x00000000000031ee       0x66 dist/pro/production/__pa_temp_15376/libc_a___fmt_u.o
                0x00000000000031ee                __fmt_u_needed
                0x00000000000031ee                __fmt_u

.text.__vector_8
                0x0000000000003254       0x64
 .text.__vector_8
                0x0000000000003254       0x64 dist/pro/production/__pa_temp_15376/pins.o
                0x0000000000003254                __vector_8

.text.__vector_34
                0x00000000000032b8       0x64
 .text.__vector_34
                0x00000000000032b8       0x64 dist/pro/production/__pa_temp_15376/pins.o
                0x00000000000032b8                __vector_34

.text.__vector_14
                0x000000000000331c       0x60
 .text.__vector_14
                0x000000000000331c       0x60 dist/pro/production/__pa_temp_15376/tcb0.o
                0x000000000000331c                __vector_14

.text.__vector_15
                0x000000000000337c       0x60
 .text.__vector_15
                0x000000000000337c       0x60 dist/pro/production/__pa_temp_15376/tcb1.o
                0x000000000000337c                __vector_15

.text.fputs     0x00000000000033dc       0x5e
 .text.fputs    0x00000000000033dc       0x5e c:/program files/microchip/xc8/v2.40/avr/bin/../lib/gcc/avr/5.4.0/../../../../avr/lib/avrxmega2/memx-const/mapped\libc.a(fputs.o)
                0x00000000000033dc                fputs
                0x00000000000033dc                fputs_unlocked

.text.CLOCK_Initialize
                0x000000000000343a       0x5a
 .text.CLOCK_Initialize
                0x000000000000343a       0x5a dist/pro/production/__pa_temp_15376/clock.o
                0x000000000000343a                CLOCK_Initialize

.text.__vector_27
                0x0000000000003494       0x58
 .text.__vector_27
                0x0000000000003494       0x58 build/pro/production/mcc_generated_files/adc/src/adc0.o
                0x0000000000003494                __vector_27

.text.__vector_26
                0x00000000000034ec       0x58
 .text.__vector_26
                0x00000000000034ec       0x58 build/pro/production/mcc_generated_files/adc/src/adc0.o
                0x00000000000034ec                __vector_26

.text.__vector_6
                0x0000000000003544       0x58
 .text.__vector_6
                0x0000000000003544       0x58 build/pro/production/mcc_generated_files/timer/src/rtc.o
                0x0000000000003544                __vector_6

.text.RN2xx3_interface
                0x000000000000359c       0x56
 .text.RN2xx3_interface
                0x000000000000359c       0x56 dist/pro/production/__pa_temp_15376/RN2xx3.o
                0x000000000000359c                RN2xx3_interface

.text.__fmt_s   0x00000000000035f2       0x54
 .text.__fmt_s  0x00000000000035f2       0x54 c:/program files/microchip/xc8/v2.40/avr/bin/../lib/gcc/avr/5.4.0/../../../../avr/lib/avrxmega2/memx-const/mapped\libc.a(__fmt_s.o)
                0x00000000000035f2                __fmt_s
                0x00000000000035f2                __fmt_0_needed
                0x00000000000035f2                __fmt_s_needed

.text           0x0000000000003646       0x52
 .text          0x0000000000003646       0x52 dist/pro/production/__pa_temp_15376/libm_a_fixunssfsi.o
                0x0000000000003646                __fixunssfsi

.text.read_prec_or_width
                0x0000000000003698       0x52
 .text.read_prec_or_width
                0x0000000000003698       0x52 dist/pro/production/__pa_temp_15376/libc_a___printf_core.o

.text.RN2xx3_tx_cnf
                0x00000000000036ea       0x50
 .text.RN2xx3_tx_cnf
                0x00000000000036ea       0x50 dist/pro/production/__pa_temp_15376/RN2xx3.o
                0x00000000000036ea                RN2xx3_tx_cnf

.text.BME280_initializeSensor
                0x000000000000373a       0x4e
 .text.BME280_initializeSensor
                0x000000000000373a       0x4e dist/pro/production/__pa_temp_15376/bme280.o
                0x000000000000373a                BME280_initializeSensor

.text.RN2xx3_resp
                0x0000000000003788       0x4e
 .text.RN2xx3_resp
                0x0000000000003788       0x4e dist/pro/production/__pa_temp_15376/RN2xx3.o
                0x0000000000003788                RN2xx3_resp

.text.RN2xx3_tx_uncnf
                0x00000000000037d6       0x4e
 .text.RN2xx3_tx_uncnf
                0x00000000000037d6       0x4e dist/pro/production/__pa_temp_15376/RN2xx3.o
                0x00000000000037d6                RN2xx3_tx_uncnf

.text._readFromTWI
                0x0000000000003824       0x4c
 .text._readFromTWI
                0x0000000000003824       0x4c dist/pro/production/__pa_temp_15376/TWI.o
                0x0000000000003824                _readFromTWI

.text.USART0_Initialize
                0x0000000000003870       0x4a
 .text.USART0_Initialize
                0x0000000000003870       0x4a dist/pro/production/__pa_temp_15376/usart0.o
                0x0000000000003870                USART0_Initialize

.text           0x00000000000038ba       0x48
 .text          0x00000000000038ba       0x48 c:/program files/microchip/xc8/v2.40/avr/bin/../lib/gcc/avr/5.4.0/../../../../avr/lib/avrxmega2/memx-const/mapped\libm.a(fp_cmp.o)
                0x00000000000038ba                __fp_cmp

.text.EVSYS_Initialize
                0x0000000000003902       0x46
 .text.EVSYS_Initialize
                0x0000000000003902       0x46 dist/pro/production/__pa_temp_15376/evsys.o
                0x0000000000003902                EVSYS_Initialize

.text._startTWI
                0x0000000000003948       0x46
 .text._startTWI
                0x0000000000003948       0x46 dist/pro/production/__pa_temp_15376/TWI.o
                0x0000000000003948                _startTWI

.text.getSensorData
                0x000000000000398e       0x44
 .text.getSensorData
                0x000000000000398e       0x44 dist/pro/production/__pa_temp_15376/application.o
                0x000000000000398e                getSensorData

.text           0x00000000000039d2       0x44
 .text          0x00000000000039d2       0x44 c:/program files/microchip/xc8/v2.40/avr/bin/../lib/gcc/avr/5.4.0/../../../../avr/lib/avrxmega2/memx-const/mapped\libm.a(fp_split3.o)
                0x00000000000039d2                __fp_split3
                0x00000000000039e2                __fp_splitA

.text.libgcc.div
                0x0000000000003a16       0x44
 .text.libgcc.div
                0x0000000000003a16       0x44 c:/program files/microchip/xc8/v2.40/avr/bin/../lib/gcc/avr/5.4.0/avrxmega2/memx-const/mapped\libgcc.a(_udivmodsi4.o)
                0x0000000000003a16                __udivmodsi4

.text.BME280_init
                0x0000000000003a5a       0x42
 .text.BME280_init
                0x0000000000003a5a       0x42 dist/pro/production/__pa_temp_15376/bme280.o
                0x0000000000003a5a                BME280_init

.text.__fmt_state
                0x0000000000003a9c       0x40
 .text.__fmt_state
                0x0000000000003a9c       0x40 dist/pro/production/__pa_temp_15376/libc_a___printf_core.o
                0x0000000000003a9c                __fmt_state

.text._writeToTWI
                0x0000000000003adc       0x40
 .text._writeToTWI
                0x0000000000003adc       0x40 dist/pro/production/__pa_temp_15376/TWI.o
                0x0000000000003adc                _writeToTWI

.text.RN2xx3_join_OTAA
                0x0000000000003b1c       0x40
 .text.RN2xx3_join_OTAA
                0x0000000000003b1c       0x40 dist/pro/production/__pa_temp_15376/RN2xx3.o
                0x0000000000003b1c                RN2xx3_join_OTAA

.text.RTC_Initialize
                0x0000000000003b5c       0x3e
 .text.RTC_Initialize
                0x0000000000003b5c       0x3e build/pro/production/mcc_generated_files/timer/src/rtc.o
                0x0000000000003b5c                RTC_Initialize

.text.map       0x0000000000003b9a       0x3e
 .text.map      0x0000000000003b9a       0x3e dist/pro/production/__pa_temp_15376/application.o
                0x0000000000003b9a                map

.text.ringBuffer_pushStr
                0x0000000000003bd8       0x3e
 .text.ringBuffer_pushStr
                0x0000000000003bd8       0x3e build/pro/production/ringBuffer.o
                0x0000000000003bd8                ringBuffer_pushStr

.text.USART0_sendStr
                0x0000000000003c16       0x3c
 .text.USART0_sendStr
                0x0000000000003c16       0x3c build/pro/production/ringBuffer.o
                0x0000000000003c16                USART0_sendStr

.text.__out     0x0000000000003c52       0x3a
 .text.__out    0x0000000000003c52       0x3a dist/pro/production/__pa_temp_15376/libc_a___printf_core.o
                0x0000000000003c52                __out

.text.USART1_Initialize
                0x0000000000003c8c       0x3a
 .text.USART1_Initialize
                0x0000000000003c8c       0x3a dist/pro/production/__pa_temp_15376/usart1.o
                0x0000000000003c8c                USART1_Initialize

.text.ADC0_Initialize
                0x0000000000003cc6       0x32
 .text.ADC0_Initialize
                0x0000000000003cc6       0x32 build/pro/production/mcc_generated_files/adc/src/adc0.o
                0x0000000000003cc6                ADC0_Initialize

.text.libgcc.prologue
                0x0000000000003cf8       0x32
 .text.libgcc.prologue
                0x0000000000003cf8       0x32 c:/program files/microchip/xc8/v2.40/avr/bin/../lib/gcc/avr/5.4.0/avrxmega2/memx-const/mapped\libgcc.a(_prologue.o)
                0x0000000000003cf8                __prologue_saves__

.text.SYSTEM_Initialize
                0x0000000000003d2a       0x30
 .text.SYSTEM_Initialize
                0x0000000000003d2a       0x30 build/pro/production/mcc_generated_files/system/src/system.o
                0x0000000000003d2a                SYSTEM_Initialize

.text.libgcc.prologue
                0x0000000000003d5a       0x30
 .text.libgcc.prologue
                0x0000000000003d5a       0x30 c:/program files/microchip/xc8/v2.40/avr/bin/../lib/gcc/avr/5.4.0/avrxmega2/memx-const/mapped\libgcc.a(_epilogue.o)
                0x0000000000003d5a                __epilogue_restores__

.text.__vfprintf
                0x0000000000003d8a       0x2e
 .text.__vfprintf
                0x0000000000003d8a       0x2e dist/pro/production/__pa_temp_15376/libc_a___int_vfprintf.o
                0x0000000000003d8a                __vfprintf

.text.startup.main
                0x0000000000003db8       0x2e
 .text.startup.main
                0x0000000000003db8       0x2e build/pro/production/main.o
                0x0000000000003db8                main

.text.BUTTON_debounce
                0x0000000000003de6       0x2c
 .text.BUTTON_debounce
                0x0000000000003de6       0x2c dist/pro/production/__pa_temp_15376/application.o
                0x0000000000003de6                BUTTON_debounce

.text.TWI_sendBytes
                0x0000000000003e12       0x2a
 .text.TWI_sendBytes
                0x0000000000003e12       0x2a dist/pro/production/__pa_temp_15376/TWI.o
                0x0000000000003e12                TWI_sendBytes

.text.ringBuffer_push
                0x0000000000003e3c       0x2a
 .text.ringBuffer_push
                0x0000000000003e3c       0x2a build/pro/production/ringBuffer.o
                0x0000000000003e3c                ringBuffer_push

.text.BME280_startForcedSensing
                0x0000000000003e66       0x28
 .text.BME280_startForcedSensing
                0x0000000000003e66       0x28 dist/pro/production/__pa_temp_15376/bme280.o
                0x0000000000003e66                BME280_startForcedSensing

.text.__wrap_printf
                0x0000000000003e8e       0x26
 .text.__wrap_printf
                0x0000000000003e8e       0x26 dist/pro/production/__pa_temp_15376/libc_a___sio_printf_s.o
                0x0000000000003e8e                _printf_s

.text.__wrap_printf
                0x0000000000003eb4       0x26
 .text.__wrap_printf
                0x0000000000003eb4       0x26 dist/pro/production/__pa_temp_15376/libc_a___sio_printf_doux.o
                0x0000000000003eb4                _printf_cdopuxX

.text.__wrap_printf
                0x0000000000003eda       0x26
 .text.__wrap_printf
                0x0000000000003eda       0x26 dist/pro/production/__pa_temp_15376/libc_a___sio_printf_dosux.o
                0x0000000000003eda                _printf_cdopsuxX

.text.__wrap_sprintf
                0x0000000000003f00       0x24
 .text.__wrap_sprintf
                0x0000000000003f00       0x24 c:/program files/microchip/xc8/v2.40/avr/bin/../lib/gcc/avr/5.4.0/../../../../avr/lib/avrxmega2/memx-const/mapped\libc.a(__sio_sprintf_doux.o)
                0x0000000000003f00                _sprintf_cdopuxX

.text.ADC0_GetConversion
                0x0000000000003f24       0x22
 .text.ADC0_GetConversion
                0x0000000000003f24       0x22 build/pro/production/mcc_generated_files/adc/src/adc0.o
                0x0000000000003f24                ADC0_GetConversion

.text           0x0000000000003f46       0x22
 .text          0x0000000000003f46       0x22 c:/program files/microchip/xc8/v2.40/avr/bin/../lib/gcc/avr/5.4.0/../../../../avr/lib/avrxmega2/memx-const/mapped\libm.a(fp_round.o)
                0x0000000000003f46                __fp_round

.text.printRawValue
                0x0000000000003f68       0x20
 .text.printRawValue
                0x0000000000003f68       0x20 dist/pro/production/__pa_temp_15376/application.o
                0x0000000000003f68                printRawValue

.text.libgcc.mul
                0x0000000000003f88       0x20
 .text.libgcc.mul
                0x0000000000003f88       0x20 c:/program files/microchip/xc8/v2.40/avr/bin/../lib/gcc/avr/5.4.0/avrxmega2/memx-const/mapped\libgcc.a(_mulsi3.o)
                0x0000000000003f88                __mulsi3

.text.BME280_reset
                0x0000000000003fa8       0x1e
 .text.BME280_reset
                0x0000000000003fa8       0x1e dist/pro/production/__pa_temp_15376/bme280.o
                0x0000000000003fa8                BME280_reset

.text.USART0_sendByte
                0x0000000000003fc6       0x1e
 .text.USART0_sendByte
                0x0000000000003fc6       0x1e build/pro/production/ringBuffer.o
                0x0000000000003fc6                USART0_sendByte

.text.libgcc.mul
                0x0000000000003fe4       0x1e
 .text.libgcc.mul
                0x0000000000003fe4       0x1e c:/program files/microchip/xc8/v2.40/avr/bin/../lib/gcc/avr/5.4.0/avrxmega2/memx-const/mapped\libgcc.a(_umulhisi3.o)
                0x0000000000003fe4                __umulhisi3

.text.SLPCTRL_Initialize
                0x0000000000004002       0x1c
 .text.SLPCTRL_Initialize
                0x0000000000004002       0x1c build/pro/production/mcc_generated_files/system/src/system.o
                0x0000000000004002                SLPCTRL_Initialize

.text.TCB0_Initialize
                0x000000000000401e       0x1c
 .text.TCB0_Initialize
                0x000000000000401e       0x1c dist/pro/production/__pa_temp_15376/tcb0.o
                0x000000000000401e                TCB0_Initialize

.text.isTWIBad  0x000000000000403a       0x1c
 .text.isTWIBad
                0x000000000000403a       0x1c dist/pro/production/__pa_temp_15376/TWI.o
                0x000000000000403a                isTWIBad

.text.TWI_initHost
                0x0000000000004056       0x1c
 .text.TWI_initHost
                0x0000000000004056       0x1c dist/pro/production/__pa_temp_15376/TWI.o
                0x0000000000004056                TWI_initHost

.text.strlen    0x0000000000004072       0x1c
 .text.strlen   0x0000000000004072       0x1c c:/program files/microchip/xc8/v2.40/avr/bin/../lib/gcc/avr/5.4.0/../../../../avr/lib/avrxmega2/memx-const/mapped\libc.a(strlen.o)
                0x0000000000004072                strlen

.text.CPUINT_Initialize
                0x000000000000408e       0x1a
 .text.CPUINT_Initialize
                0x000000000000408e       0x1a build/pro/production/mcc_generated_files/system/src/interrupt.o
                0x000000000000408e                CPUINT_Initialize

.text.TCB1_Initialize
                0x00000000000040a8       0x1a
 .text.TCB1_Initialize
                0x00000000000040a8       0x1a dist/pro/production/__pa_temp_15376/tcb1.o
                0x00000000000040a8                TCB1_Initialize

.text.USART0_printCHAR
                0x00000000000040c2       0x18
 .text.USART0_printCHAR
                0x00000000000040c2       0x18 dist/pro/production/__pa_temp_15376/usart0.o
                0x00000000000040c2                USART0_printCHAR

.__pa__0_0      0x00000000000040da       0x18
 .__pa__0_0     0x00000000000040da       0x18 dist/pro/production/__pa_temp_15376/usart0.o
                0x00000000000040da                __pa__0_0

.text.RN2xx3_save
                0x00000000000040f2       0x18
 .text.RN2xx3_save
                0x00000000000040f2       0x18 dist/pro/production/__pa_temp_15376/RN2xx3.o
                0x00000000000040f2                RN2xx3_save

.__pa__0_57     0x000000000000410a       0x16
 .__pa__0_57    0x000000000000410a       0x16 dist/pro/production/__pa_temp_15376/libm_a_powf.o
                0x000000000000410a                __pa__0_57

.__pa__0_60     0x0000000000004120       0x16
 .__pa__0_60    0x0000000000004120       0x16 dist/pro/production/__pa_temp_15376/libm_a_powf.o
                0x0000000000004120                __pa__0_60

.text.libgcc.mul
                0x0000000000004136       0x16
 .text.libgcc.mul
                0x0000000000004136       0x16 c:/program files/microchip/xc8/v2.40/avr/bin/../lib/gcc/avr/5.4.0/avrxmega2/memx-const/mapped\libgcc.a(_muluhisi3.o)
                0x0000000000004136                __muluhisi3

.text.exit      0x000000000000414c       0x16
 .text.exit     0x000000000000414c       0x16 c:/program files/microchip/xc8/v2.40/avr/bin/../lib/gcc/avr/5.4.0/../../../../avr/lib/avrxmega2/memx-const/mapped\libc.a(exit.o)
                0x000000000000414c                exit

.__pa__1_b      0x0000000000004162       0x14
 .__pa__1_b     0x0000000000004162       0x14 dist/pro/production/__pa_temp_15376/libc_a___printf_core.o
                0x0000000000004162                __pa__1_b

.__pa__0_48     0x0000000000004176       0x14
 .__pa__0_48    0x0000000000004176       0x14 dist/pro/production/__pa_temp_15376/libc_a___fmt_d.o
                0x0000000000004176                __pa__0_48

.__pa__1_4      0x000000000000418a       0x14
 .__pa__1_4     0x000000000000418a       0x14 dist/pro/production/__pa_temp_15376/application.o
                0x000000000000418a                __pa__1_4

.text.BME280_getHumidity
                0x000000000000419e       0x14
 .text.BME280_getHumidity
                0x000000000000419e       0x14 dist/pro/production/__pa_temp_15376/bme280.o
                0x000000000000419e                BME280_getHumidity

.text.ringBuffer_pop
                0x00000000000041b2       0x14
 .text.ringBuffer_pop
                0x00000000000041b2       0x14 build/pro/production/ringBuffer.o
                0x00000000000041b2                ringBuffer_pop

.__pa__0_a      0x00000000000041c6       0x14
 .__pa__0_a     0x00000000000041c6       0x14 dist/pro/production/__pa_temp_15376/RN2xx3.o
                0x00000000000041c6                __pa__0_a

.__pa__0_67     0x00000000000041da       0x12
 .__pa__0_67    0x00000000000041da       0x12 dist/pro/production/__pa_temp_15376/libm_a_powf.o
                0x00000000000041da                __pa__0_67

.__pa__0_51     0x00000000000041ec       0x12
 .__pa__0_51    0x00000000000041ec       0x12 dist/pro/production/__pa_temp_15376/libc_a___printf_core.o
                0x00000000000041ec                __pa__0_51

.__pa__0_47     0x00000000000041fe       0x12
 .__pa__0_47    0x00000000000041fe       0x12 dist/pro/production/__pa_temp_15376/libc_a___fmt_o.o
                0x00000000000041fe                __pa__0_47

.text.TIMER_ms  0x0000000000004210       0x12
 .text.TIMER_ms
                0x0000000000004210       0x12 dist/pro/production/__pa_temp_15376/application.o
                0x0000000000004210                TIMER_ms

.text.RTC_PIT_Callback
                0x0000000000004222       0x12
 .text.RTC_PIT_Callback
                0x0000000000004222       0x12 dist/pro/production/__pa_temp_15376/application.o
                0x0000000000004222                RTC_PIT_Callback

.__pa__0_13     0x0000000000004234       0x12
 .__pa__0_13    0x0000000000004234       0x12 dist/pro/production/__pa_temp_15376/application.o
                0x0000000000004234                __pa__0_13

.__pa__0_14     0x0000000000004246       0x12
 .__pa__0_14    0x0000000000004246       0x12 dist/pro/production/__pa_temp_15376/application.o
                0x0000000000004246                __pa__0_14

.__pa__0_30     0x0000000000004258       0x12
 .__pa__0_30    0x0000000000004258       0x12 dist/pro/production/__pa_temp_15376/bme280.o
                0x0000000000004258                __pa__0_30

.text.toupper   0x000000000000426a       0x12
 .text.toupper  0x000000000000426a       0x12 c:/program files/microchip/xc8/v2.40/avr/bin/../lib/gcc/avr/5.4.0/../../../../avr/lib/avrxmega2/memx-const/mapped\libc.a(toupper.o)
                0x000000000000426a                toupper

.text.puts      0x000000000000427c       0x12
 .text.puts     0x000000000000427c       0x12 c:/program files/microchip/xc8/v2.40/avr/bin/../lib/gcc/avr/5.4.0/../../../../avr/lib/avrxmega2/memx-const/mapped\libc.a(puts.o)
                0x000000000000427c                puts

.__pa__0_63     0x000000000000428e       0x10
 .__pa__0_63    0x000000000000428e       0x10 dist/pro/production/__pa_temp_15376/libm_a_powf.o
                0x000000000000428e                __pa__0_63

.__pa__0_53     0x000000000000429e       0x10
 .__pa__0_53    0x000000000000429e       0x10 dist/pro/production/__pa_temp_15376/libm_a_fixunssfsi.o
                0x000000000000429e                __pa__0_53

.__pa__0_16     0x00000000000042ae       0x10
 .__pa__0_16    0x00000000000042ae       0x10 dist/pro/production/__pa_temp_15376/libc_a___sio_printf_dosux.o
                0x00000000000042ae                __pa__0_16

.__pa__0_4f     0x00000000000042be       0x10
 .__pa__0_4f    0x00000000000042be       0x10 dist/pro/production/__pa_temp_15376/libc_a___printf_core.o
                0x00000000000042be                __pa__0_4f

.__pa__0_52     0x00000000000042ce       0x10
 .__pa__0_52    0x00000000000042ce       0x10 dist/pro/production/__pa_temp_15376/libc_a___printf_core.o
                0x00000000000042ce                __pa__0_52

.__pa__1_7      0x00000000000042de       0x10
 .__pa__1_7     0x00000000000042de       0x10 dist/pro/production/__pa_temp_15376/libc_a___printf_core.o
                0x00000000000042de                __pa__1_7

.__pa__1_a      0x00000000000042ee       0x10
 .__pa__1_a     0x00000000000042ee       0x10 dist/pro/production/__pa_temp_15376/libc_a___printf_core.o
                0x00000000000042ee                __pa__1_a

.__pa__0_1c     0x00000000000042fe       0x10
 .__pa__0_1c    0x00000000000042fe       0x10 dist/pro/production/__pa_temp_15376/tcb0.o
                0x00000000000042fe                __pa__0_1c

.text.VREF_Initialize
                0x000000000000430e       0x10
 .text.VREF_Initialize
                0x000000000000430e       0x10 build/pro/production/mcc_generated_files/vref/src/vref.o
                0x000000000000430e                VREF_Initialize

.__pa__0_4      0x000000000000431e       0x10
 .__pa__0_4     0x000000000000431e       0x10 dist/pro/production/__pa_temp_15376/application.o
                0x000000000000431e                __pa__0_4

.text.configureTWIPins
                0x000000000000432e       0x10
 .text.configureTWIPins
                0x000000000000432e       0x10 dist/pro/production/__pa_temp_15376/TWI.o
                0x000000000000432e                configureTWIPins

.text.RN2xx3_join_TTN
                0x000000000000433e       0x10
 .text.RN2xx3_join_TTN
                0x000000000000433e       0x10 dist/pro/production/__pa_temp_15376/RN2xx3.o
                0x000000000000433e                RN2xx3_join_TTN

.__pa__0_44     0x000000000000434e       0x10
 .__pa__0_44    0x000000000000434e       0x10 dist/pro/production/__pa_temp_15376/RN2xx3.o
                0x000000000000434e                __pa__0_44

.text.libgcc.mul
                0x000000000000435e       0x10
 .text.libgcc.mul
                0x000000000000435e       0x10 c:/program files/microchip/xc8/v2.40/avr/bin/../lib/gcc/avr/5.4.0/avrxmega2/memx-const/mapped\libgcc.a(_mulshisi3.o)
                0x000000000000435e                __mulshisi3
                0x0000000000004364                __mulohisi3

.text.tolower   0x000000000000436e       0x10
 .text.tolower  0x000000000000436e       0x10 c:/program files/microchip/xc8/v2.40/avr/bin/../lib/gcc/avr/5.4.0/../../../../avr/lib/avrxmega2/memx-const/mapped\libc.a(tolower.o)
                0x000000000000436e                tolower

.__pa__0_d      0x000000000000437e        0xe
 .__pa__0_d     0x000000000000437e        0xe dist/pro/production/__pa_temp_15376/libm_a_scalbnf.o
                0x000000000000437e                __pa__0_d

.__pa__0_2c     0x000000000000438c        0xe
 .__pa__0_2c    0x000000000000438c        0xe dist/pro/production/__pa_temp_15376/libm_a_powf.o
                0x000000000000438c                __pa__0_2c

.__pa__0_5c     0x000000000000439a        0xe
 .__pa__0_5c    0x000000000000439a        0xe dist/pro/production/__pa_temp_15376/libm_a_powf.o
                0x000000000000439a                __pa__0_5c

.__pa__0_5d     0x00000000000043a8        0xe
 .__pa__0_5d    0x00000000000043a8        0xe dist/pro/production/__pa_temp_15376/libm_a_powf.o
                0x00000000000043a8                __pa__0_5d

.__pa__1_9      0x00000000000043b6        0xe
 .__pa__1_9     0x00000000000043b6        0xe dist/pro/production/__pa_temp_15376/libc_a___printf_core.o
                0x00000000000043b6                __pa__1_9

.__pa__0_4e     0x00000000000043c4        0xe
 .__pa__0_4e    0x00000000000043c4        0xe dist/pro/production/__pa_temp_15376/libc_a___pop_int.o
                0x00000000000043c4                __pa__0_4e

.__pa__0_11     0x00000000000043d2        0xe
 .__pa__0_11    0x00000000000043d2        0xe dist/pro/production/__pa_temp_15376/application.o
                0x00000000000043d2                __pa__0_11

.__pa__0_12     0x00000000000043e0        0xe
 .__pa__0_12    0x00000000000043e0        0xe dist/pro/production/__pa_temp_15376/application.o
                0x00000000000043e0                __pa__0_12

.__pa__1_3      0x00000000000043ee        0xe
 .__pa__1_3     0x00000000000043ee        0xe dist/pro/production/__pa_temp_15376/application.o
                0x00000000000043ee                __pa__1_3

.__pa__0_8      0x00000000000043fc        0xe
 .__pa__0_8     0x00000000000043fc        0xe dist/pro/production/__pa_temp_15376/bme280.o
                0x00000000000043fc                __pa__0_8

.__pa__0_e      0x000000000000440a        0xe
 .__pa__0_e     0x000000000000440a        0xe dist/pro/production/__pa_temp_15376/bme280.o
                0x000000000000440a                __pa__0_e

.__pa__0_24     0x0000000000004418        0xe
 .__pa__0_24    0x0000000000004418        0xe dist/pro/production/__pa_temp_15376/bme280.o
                0x0000000000004418                __pa__0_24

.text.ringBuffer_init
                0x0000000000004426        0xe
 .text.ringBuffer_init
                0x0000000000004426        0xe build/pro/production/ringBuffer.o
                0x0000000000004426                ringBuffer_init

.__pa__0_41     0x0000000000004434        0xe
 .__pa__0_41    0x0000000000004434        0xe dist/pro/production/__pa_temp_15376/RN2xx3.o
                0x0000000000004434                __pa__0_41

.__pa__0_43     0x0000000000004442        0xe
 .__pa__0_43    0x0000000000004442        0xe dist/pro/production/__pa_temp_15376/RN2xx3.o
                0x0000000000004442                __pa__0_43

.text           0x0000000000004450        0xe
 .text          0x0000000000004450        0xe c:/program files/microchip/xc8/v2.40/avr/bin/../lib/gcc/avr/5.4.0/../../../../avr/lib/avrxmega2/memx-const/mapped\libm.a(addsf3.o)
                0x0000000000004450                __subsf3
                0x0000000000004452                __addsf3

.text           0x000000000000445e        0xe
 .text          0x000000000000445e        0xe c:/program files/microchip/xc8/v2.40/avr/bin/../lib/gcc/avr/5.4.0/../../../../avr/lib/avrxmega2/memx-const/mapped\libm.a(fixsfsi.o)
                0x000000000000445e                __fixsfsi

.text           0x000000000000446c        0xe
 .text          0x000000000000446c        0xe c:/program files/microchip/xc8/v2.40/avr/bin/../lib/gcc/avr/5.4.0/../../../../avr/lib/avrxmega2/memx-const/mapped\libm.a(fp_pscA.o)
                0x000000000000446c                __fp_pscA

.text           0x000000000000447a        0xe
 .text          0x000000000000447a        0xe c:/program files/microchip/xc8/v2.40/avr/bin/../lib/gcc/avr/5.4.0/../../../../avr/lib/avrxmega2/memx-const/mapped\libm.a(fp_pscB.o)
                0x000000000000447a                __fp_pscB

.text           0x0000000000004488        0xe
 .text          0x0000000000004488        0xe c:/program files/microchip/xc8/v2.40/avr/bin/../lib/gcc/avr/5.4.0/../../../../avr/lib/avrxmega2/memx-const/mapped\libm.a(fp_zero.o)
                0x0000000000004488                __fp_zero
                0x000000000000448a                __fp_szero

.text.__vsprintf
                0x0000000000004496        0xe
 .text.__vsprintf
                0x0000000000004496        0xe c:/program files/microchip/xc8/v2.40/avr/bin/../lib/gcc/avr/5.4.0/../../../../avr/lib/avrxmega2/memx-const/mapped\libc.a(__int_vsprintf.o)
                0x0000000000004496                __vsprintf

.__pa__0_c      0x00000000000044a4        0xc
 .__pa__0_c     0x00000000000044a4        0xc dist/pro/production/__pa_temp_15376/libm_a_scalbnf.o
                0x00000000000044a4                __pa__0_c

.__pa__0_4a     0x00000000000044b0        0xc
 .__pa__0_4a    0x00000000000044b0        0xc dist/pro/production/__pa_temp_15376/libc_a___printf_core.o
                0x00000000000044b0                __pa__0_4a

.__pa__1_2      0x00000000000044bc        0xc
 .__pa__1_2     0x00000000000044bc        0xc dist/pro/production/__pa_temp_15376/libc_a___printf_core.o
                0x00000000000044bc                __pa__1_2

.__pa__0_4c     0x00000000000044c8        0xc
 .__pa__0_4c    0x00000000000044c8        0xc dist/pro/production/__pa_temp_15376/libc_a___fmt_d.o
                0x00000000000044c8                __pa__0_4c

.text.RTC_Start
                0x00000000000044d4        0xc
 .text.RTC_Start
                0x00000000000044d4        0xc build/pro/production/mcc_generated_files/timer/src/rtc.o
                0x00000000000044d4                RTC_Start

.text.RTC_Stop  0x00000000000044e0        0xc
 .text.RTC_Stop
                0x00000000000044e0        0xc build/pro/production/mcc_generated_files/timer/src/rtc.o
                0x00000000000044e0                RTC_Stop

.text.USART0_IsRxReady
                0x00000000000044ec        0xc
 .text.USART0_IsRxReady
                0x00000000000044ec        0xc dist/pro/production/__pa_temp_15376/usart0.o
                0x00000000000044ec                USART0_IsRxReady

.text.USART0_IsTxReady
                0x00000000000044f8        0xc
 .text.USART0_IsTxReady
                0x00000000000044f8        0xc dist/pro/production/__pa_temp_15376/usart0.o
                0x00000000000044f8                USART0_IsTxReady

.text.USART1_IsRxReady
                0x0000000000004504        0xc
 .text.USART1_IsRxReady
                0x0000000000004504        0xc dist/pro/production/__pa_temp_15376/usart1.o
                0x0000000000004504                USART1_IsRxReady

.text.USART1_IsTxReady
                0x0000000000004510        0xc
 .text.USART1_IsTxReady
                0x0000000000004510        0xc dist/pro/production/__pa_temp_15376/usart1.o
                0x0000000000004510                USART1_IsTxReady

.__pa__0_1e     0x000000000000451c        0xc
 .__pa__0_1e    0x000000000000451c        0xc dist/pro/production/__pa_temp_15376/bme280.o
                0x000000000000451c                __pa__0_1e

.__pa__0_2f     0x0000000000004528        0xc
 .__pa__0_2f    0x0000000000004528        0xc dist/pro/production/__pa_temp_15376/bme280.o
                0x0000000000004528                __pa__0_2f

.__pa__0_3c     0x0000000000004534        0xc
 .__pa__0_3c    0x0000000000004534        0xc dist/pro/production/__pa_temp_15376/RN2xx3.o
                0x0000000000004534                __pa__0_3c

.__pa__0_3d     0x0000000000004540        0xc
 .__pa__0_3d    0x0000000000004540        0xc dist/pro/production/__pa_temp_15376/RN2xx3.o
                0x0000000000004540                __pa__0_3d

.__pa__0_42     0x000000000000454c        0xc
 .__pa__0_42    0x000000000000454c        0xc dist/pro/production/__pa_temp_15376/RN2xx3.o
                0x000000000000454c                __pa__0_42

.text           0x0000000000004558        0xc
 .text          0x0000000000004558        0xc c:/program files/microchip/xc8/v2.40/avr/bin/../lib/gcc/avr/5.4.0/../../../../avr/lib/avrxmega2/memx-const/mapped\libm.a(fp_inf.o)
                0x0000000000004558                __fp_inf

.text.libgcc    0x0000000000004564        0xc
 .text.libgcc   0x0000000000004564        0xc c:/program files/microchip/xc8/v2.40/avr/bin/../lib/gcc/avr/5.4.0/avrxmega2/memx-const/mapped\libgcc.a(_tablejump2.o)
                0x0000000000004564                __tablejump2__

.__pa__0_68     0x0000000000004570        0xa
 .__pa__0_68    0x0000000000004570        0xa dist/pro/production/__pa_temp_15376/libm_a_sqrtf.o
                0x0000000000004570                __pa__0_68

.__pa__0_18     0x000000000000457a        0xa
 .__pa__0_18    0x000000000000457a        0xa dist/pro/production/__pa_temp_15376/libm_a_powf.o
                0x000000000000457a                __pa__0_18

.__pa__0_19     0x0000000000004584        0xa
 .__pa__0_19    0x0000000000004584        0xa dist/pro/production/__pa_temp_15376/libm_a_powf.o
                0x0000000000004584                __pa__0_19

.__pa__0_1a     0x000000000000458e        0xa
 .__pa__0_1a    0x000000000000458e        0xa dist/pro/production/__pa_temp_15376/libm_a_powf.o
                0x000000000000458e                __pa__0_1a

.__pa__0_1b     0x0000000000004598        0xa
 .__pa__0_1b    0x0000000000004598        0xa dist/pro/production/__pa_temp_15376/libm_a_powf.o
                0x0000000000004598                __pa__0_1b

.__pa__0_25     0x00000000000045a2        0xa
 .__pa__0_25    0x00000000000045a2        0xa dist/pro/production/__pa_temp_15376/libm_a_powf.o
                0x00000000000045a2                __pa__0_25

.__pa__0_2a     0x00000000000045ac        0xa
 .__pa__0_2a    0x00000000000045ac        0xa dist/pro/production/__pa_temp_15376/libm_a_powf.o
                0x00000000000045ac                __pa__0_2a

.__pa__0_2e     0x00000000000045b6        0xa
 .__pa__0_2e    0x00000000000045b6        0xa dist/pro/production/__pa_temp_15376/libm_a_powf.o
                0x00000000000045b6                __pa__0_2e

.__pa__0_32     0x00000000000045c0        0xa
 .__pa__0_32    0x00000000000045c0        0xa dist/pro/production/__pa_temp_15376/libm_a_powf.o
                0x00000000000045c0                __pa__0_32

.__pa__0_39     0x00000000000045ca        0xa
 .__pa__0_39    0x00000000000045ca        0xa dist/pro/production/__pa_temp_15376/libm_a_powf.o
                0x00000000000045ca                __pa__0_39

.__pa__0_3a     0x00000000000045d4        0xa
 .__pa__0_3a    0x00000000000045d4        0xa dist/pro/production/__pa_temp_15376/libm_a_powf.o
                0x00000000000045d4                __pa__0_3a

.__pa__0_54     0x00000000000045de        0xa
 .__pa__0_54    0x00000000000045de        0xa dist/pro/production/__pa_temp_15376/libm_a_powf.o
                0x00000000000045de                __pa__0_54

.__pa__0_55     0x00000000000045e8        0xa
 .__pa__0_55    0x00000000000045e8        0xa dist/pro/production/__pa_temp_15376/libm_a_powf.o
                0x00000000000045e8                __pa__0_55

.__pa__0_56     0x00000000000045f2        0xa
 .__pa__0_56    0x00000000000045f2        0xa dist/pro/production/__pa_temp_15376/libm_a_powf.o
                0x00000000000045f2                __pa__0_56

.__pa__0_58     0x00000000000045fc        0xa
 .__pa__0_58    0x00000000000045fc        0xa dist/pro/production/__pa_temp_15376/libm_a_powf.o
                0x00000000000045fc                __pa__0_58

.__pa__0_59     0x0000000000004606        0xa
 .__pa__0_59    0x0000000000004606        0xa dist/pro/production/__pa_temp_15376/libm_a_powf.o
                0x0000000000004606                __pa__0_59

.__pa__0_5a     0x0000000000004610        0xa
 .__pa__0_5a    0x0000000000004610        0xa dist/pro/production/__pa_temp_15376/libm_a_powf.o
                0x0000000000004610                __pa__0_5a

.__pa__0_5b     0x000000000000461a        0xa
 .__pa__0_5b    0x000000000000461a        0xa dist/pro/production/__pa_temp_15376/libm_a_powf.o
                0x000000000000461a                __pa__0_5b

.__pa__0_5e     0x0000000000004624        0xa
 .__pa__0_5e    0x0000000000004624        0xa dist/pro/production/__pa_temp_15376/libm_a_powf.o
                0x0000000000004624                __pa__0_5e

.__pa__0_5f     0x000000000000462e        0xa
 .__pa__0_5f    0x000000000000462e        0xa dist/pro/production/__pa_temp_15376/libm_a_powf.o
                0x000000000000462e                __pa__0_5f

.__pa__0_62     0x0000000000004638        0xa
 .__pa__0_62    0x0000000000004638        0xa dist/pro/production/__pa_temp_15376/libm_a_powf.o
                0x0000000000004638                __pa__0_62

.__pa__0_64     0x0000000000004642        0xa
 .__pa__0_64    0x0000000000004642        0xa dist/pro/production/__pa_temp_15376/libm_a_powf.o
                0x0000000000004642                __pa__0_64

.__pa__0_65     0x000000000000464c        0xa
 .__pa__0_65    0x000000000000464c        0xa dist/pro/production/__pa_temp_15376/libm_a_powf.o
                0x000000000000464c                __pa__0_65

.__pa__0_66     0x0000000000004656        0xa
 .__pa__0_66    0x0000000000004656        0xa dist/pro/production/__pa_temp_15376/libm_a_powf.o
                0x0000000000004656                __pa__0_66

.__pa__1_1      0x0000000000004660        0xa
 .__pa__1_1     0x0000000000004660        0xa dist/pro/production/__pa_temp_15376/libm_a_powf.o
                0x0000000000004660                __pa__1_1

.__pa__1_c      0x000000000000466a        0xa
 .__pa__1_c     0x000000000000466a        0xa dist/pro/production/__pa_temp_15376/libm_a_powf.o
                0x000000000000466a                __pa__1_c

.__pa__1_d      0x0000000000004674        0xa
 .__pa__1_d     0x0000000000004674        0xa dist/pro/production/__pa_temp_15376/libm_a_powf.o
                0x0000000000004674                __pa__1_d

.__pa__1_e      0x000000000000467e        0xa
 .__pa__1_e     0x000000000000467e        0xa dist/pro/production/__pa_temp_15376/libm_a_powf.o
                0x000000000000467e                __pa__1_e

.__pa__1_f      0x0000000000004688        0xa
 .__pa__1_f     0x0000000000004688        0xa dist/pro/production/__pa_temp_15376/libm_a_powf.o
                0x0000000000004688                __pa__1_f

.__pa__0_34     0x0000000000004692        0xa
 .__pa__0_34    0x0000000000004692        0xa dist/pro/production/__pa_temp_15376/libm_a_addsf3x.o
                0x0000000000004692                __pa__0_34

.__pa__0_49     0x000000000000469c        0xa
 .__pa__0_49    0x000000000000469c        0xa dist/pro/production/__pa_temp_15376/libc_a___printf_core.o
                0x000000000000469c                __pa__0_49

.__pa__0_50     0x00000000000046a6        0xa
 .__pa__0_50    0x00000000000046a6        0xa dist/pro/production/__pa_temp_15376/libc_a___printf_core.o
                0x00000000000046a6                __pa__0_50

.__pa__0_4d     0x00000000000046b0        0xa
 .__pa__0_4d    0x00000000000046b0        0xa dist/pro/production/__pa_temp_15376/libc_a___fmt_x.o
                0x00000000000046b0                __pa__0_4d

.__pa__0_6      0x00000000000046ba        0xa
 .__pa__0_6     0x00000000000046ba        0xa dist/pro/production/__pa_temp_15376/libc_a___fmt_d.o
                0x00000000000046ba                __pa__0_6

.__pa__0_35     0x00000000000046c4        0xa
 .__pa__0_35    0x00000000000046c4        0xa dist/pro/production/__pa_temp_15376/libc_a___fmt_d.o
                0x00000000000046c4                __pa__0_35

.__pa__0_3b     0x00000000000046ce        0xa
 .__pa__0_3b    0x00000000000046ce        0xa dist/pro/production/__pa_temp_15376/evsys.o
                0x00000000000046ce                __pa__0_3b

.__pa__0_9      0x00000000000046d8        0xa
 .__pa__0_9     0x00000000000046d8        0xa dist/pro/production/__pa_temp_15376/clock.o
                0x00000000000046d8                __pa__0_9

.text.TCB0_CaptureCallbackRegister
                0x00000000000046e2        0xa
 .text.TCB0_CaptureCallbackRegister
                0x00000000000046e2        0xa dist/pro/production/__pa_temp_15376/tcb0.o
                0x00000000000046e2                TCB0_CaptureCallbackRegister

.text.RTC_SetPITIsrCallback
                0x00000000000046ec        0xa
 .text.RTC_SetPITIsrCallback
                0x00000000000046ec        0xa build/pro/production/mcc_generated_files/timer/src/rtc.o
                0x00000000000046ec                RTC_SetPITIsrCallback

.text.TCB1_CaptureCallbackRegister
                0x00000000000046f6        0xa
 .text.TCB1_CaptureCallbackRegister
                0x00000000000046f6        0xa dist/pro/production/__pa_temp_15376/tcb1.o
                0x00000000000046f6                TCB1_CaptureCallbackRegister

.text.getMoistureMeasurement
                0x0000000000004700        0xa
 .text.getMoistureMeasurement
                0x0000000000004700        0xa dist/pro/production/__pa_temp_15376/application.o
                0x0000000000004700                getMoistureMeasurement

.__pa__0_1      0x000000000000470a        0xa
 .__pa__0_1     0x000000000000470a        0xa dist/pro/production/__pa_temp_15376/application.o
                0x000000000000470a                __pa__0_1

.__pa__0_2      0x0000000000004714        0xa
 .__pa__0_2     0x0000000000004714        0xa dist/pro/production/__pa_temp_15376/application.o
                0x0000000000004714                __pa__0_2

.__pa__0_3      0x000000000000471e        0xa
 .__pa__0_3     0x000000000000471e        0xa dist/pro/production/__pa_temp_15376/application.o
                0x000000000000471e                __pa__0_3

.__pa__0_5      0x0000000000004728        0xa
 .__pa__0_5     0x0000000000004728        0xa dist/pro/production/__pa_temp_15376/application.o
                0x0000000000004728                __pa__0_5

.__pa__0_46     0x0000000000004732        0xa
 .__pa__0_46    0x0000000000004732        0xa dist/pro/production/__pa_temp_15376/TWI.o
                0x0000000000004732                __pa__0_46

.text.BME280_getTemperature
                0x000000000000473c        0xa
 .text.BME280_getTemperature
                0x000000000000473c        0xa dist/pro/production/__pa_temp_15376/bme280.o
                0x000000000000473c                BME280_getTemperature

.__pa__0_1d     0x0000000000004746        0xa
 .__pa__0_1d    0x0000000000004746        0xa dist/pro/production/__pa_temp_15376/bme280.o
                0x0000000000004746                __pa__0_1d

.__pa__0_1f     0x0000000000004750        0xa
 .__pa__0_1f    0x0000000000004750        0xa dist/pro/production/__pa_temp_15376/bme280.o
                0x0000000000004750                __pa__0_1f

.__pa__0_20     0x000000000000475a        0xa
 .__pa__0_20    0x000000000000475a        0xa dist/pro/production/__pa_temp_15376/bme280.o
                0x000000000000475a                __pa__0_20

.__pa__0_26     0x0000000000004764        0xa
 .__pa__0_26    0x0000000000004764        0xa dist/pro/production/__pa_temp_15376/bme280.o
                0x0000000000004764                __pa__0_26

.__pa__0_27     0x000000000000476e        0xa
 .__pa__0_27    0x000000000000476e        0xa dist/pro/production/__pa_temp_15376/bme280.o
                0x000000000000476e                __pa__0_27

.__pa__0_28     0x0000000000004778        0xa
 .__pa__0_28    0x0000000000004778        0xa dist/pro/production/__pa_temp_15376/bme280.o
                0x0000000000004778                __pa__0_28

.__pa__0_29     0x0000000000004782        0xa
 .__pa__0_29    0x0000000000004782        0xa dist/pro/production/__pa_temp_15376/bme280.o
                0x0000000000004782                __pa__0_29

.__pa__0_2b     0x000000000000478c        0xa
 .__pa__0_2b    0x000000000000478c        0xa dist/pro/production/__pa_temp_15376/bme280.o
                0x000000000000478c                __pa__0_2b

.__pa__0_2d     0x0000000000004796        0xa
 .__pa__0_2d    0x0000000000004796        0xa dist/pro/production/__pa_temp_15376/bme280.o
                0x0000000000004796                __pa__0_2d

.__pa__0_31     0x00000000000047a0        0xa
 .__pa__0_31    0x00000000000047a0        0xa dist/pro/production/__pa_temp_15376/bme280.o
                0x00000000000047a0                __pa__0_31

.__pa__0_33     0x00000000000047aa        0xa
 .__pa__0_33    0x00000000000047aa        0xa dist/pro/production/__pa_temp_15376/bme280.o
                0x00000000000047aa                __pa__0_33

.__pa__0_36     0x00000000000047b4        0xa
 .__pa__0_36    0x00000000000047b4        0xa dist/pro/production/__pa_temp_15376/bme280.o
                0x00000000000047b4                __pa__0_36

.__pa__0_38     0x00000000000047be        0xa
 .__pa__0_38    0x00000000000047be        0xa dist/pro/production/__pa_temp_15376/bme280.o
                0x00000000000047be                __pa__0_38

.__pa__1_5      0x00000000000047c8        0xa
 .__pa__1_5     0x00000000000047c8        0xa dist/pro/production/__pa_temp_15376/bme280.o
                0x00000000000047c8                __pa__1_5

.__pa__1_6      0x00000000000047d2        0xa
 .__pa__1_6     0x00000000000047d2        0xa dist/pro/production/__pa_temp_15376/bme280.o
                0x00000000000047d2                __pa__1_6

.__pa__1_8      0x00000000000047dc        0xa
 .__pa__1_8     0x00000000000047dc        0xa dist/pro/production/__pa_temp_15376/bme280.o
                0x00000000000047dc                __pa__1_8

.text.ringBuffer_count
                0x00000000000047e6        0xa
 .text.ringBuffer_count
                0x00000000000047e6        0xa build/pro/production/ringBuffer.o
                0x00000000000047e6                ringBuffer_count

.__pa__0_3e     0x00000000000047f0        0xa
 .__pa__0_3e    0x00000000000047f0        0xa dist/pro/production/__pa_temp_15376/RN2xx3.o
                0x00000000000047f0                __pa__0_3e

.text           0x00000000000047fa        0xa
 .text          0x00000000000047fa        0xa c:/program files/microchip/xc8/v2.40/avr/bin/../lib/gcc/avr/5.4.0/../../../../avr/lib/avrxmega2/memx-const/mapped\libm.a(cmpsf2.o)
                0x00000000000047fa                __nesf2
                0x00000000000047fa                __eqsf2
                0x00000000000047fa                __cmpsf2
                0x00000000000047fa                __ltsf2
                0x00000000000047fa                __lesf2

.text           0x0000000000004804        0xa
 .text          0x0000000000004804        0xa c:/program files/microchip/xc8/v2.40/avr/bin/../lib/gcc/avr/5.4.0/../../../../avr/lib/avrxmega2/memx-const/mapped\libm.a(gesf2.o)
                0x0000000000004804                __gesf2
                0x0000000000004804                __gtsf2

.__pa__0_b      0x000000000000480e        0x8
 .__pa__0_b     0x000000000000480e        0x8 dist/pro/production/__pa_temp_15376/libm_a_powf.o
                0x000000000000480e                __pa__0_b

.text.ADC0_IsConversionDone
                0x0000000000004816        0x8
 .text.ADC0_IsConversionDone
                0x0000000000004816        0x8 build/pro/production/mcc_generated_files/adc/src/adc0.o
                0x0000000000004816                ADC0_IsConversionDone

.text.ccp_write_io
                0x000000000000481e        0x8
 .text.ccp_write_io
                0x000000000000481e        0x8 dist/pro/production/__pa_temp_15376/clock.o

.text.protected_write_io
                0x0000000000004826        0x8
 .text.protected_write_io
                0x0000000000004826        0x8 build/pro/production/mcc_generated_files/system/src/protected_io.o
                0x0000000000004826                protected_write_io

.text.BME280_readSensors
                0x000000000000482e        0x8
 .text.BME280_readSensors
                0x000000000000482e        0x8 dist/pro/production/__pa_temp_15376/application.o
                0x000000000000482e                BME280_readSensors

.__pa__0_f      0x0000000000004836        0x8
 .__pa__0_f     0x0000000000004836        0x8 dist/pro/production/__pa_temp_15376/application.o
                0x0000000000004836                __pa__0_f

.__pa__0_7      0x000000000000483e        0x8
 .__pa__0_7     0x000000000000483e        0x8 dist/pro/production/__pa_temp_15376/bme280.o
                0x000000000000483e                __pa__0_7

.__pa__0_15     0x0000000000004846        0x8
 .__pa__0_15    0x0000000000004846        0x8 dist/pro/production/__pa_temp_15376/bme280.o
                0x0000000000004846                __pa__0_15

.__pa__0_21     0x000000000000484e        0x8
 .__pa__0_21    0x000000000000484e        0x8 dist/pro/production/__pa_temp_15376/bme280.o
                0x000000000000484e                __pa__0_21

.__pa__0_22     0x0000000000004856        0x8
 .__pa__0_22    0x0000000000004856        0x8 dist/pro/production/__pa_temp_15376/bme280.o
                0x0000000000004856                __pa__0_22

.__pa__0_37     0x000000000000485e        0x8
 .__pa__0_37    0x000000000000485e        0x8 dist/pro/production/__pa_temp_15376/bme280.o
                0x000000000000485e                __pa__0_37

.__pa__1_0      0x0000000000004866        0x8
 .__pa__1_0     0x0000000000004866        0x8 dist/pro/production/__pa_temp_15376/bme280.o
                0x0000000000004866                __pa__1_0

.__pa__0_3f     0x000000000000486e        0x8
 .__pa__0_3f    0x000000000000486e        0x8 dist/pro/production/__pa_temp_15376/RN2xx3.o
                0x000000000000486e                __pa__0_3f

.__pa__0_40     0x0000000000004876        0x8
 .__pa__0_40    0x0000000000004876        0x8 dist/pro/production/__pa_temp_15376/RN2xx3.o
                0x0000000000004876                __pa__0_40

.__pa__0_45     0x000000000000487e        0x8
 .__pa__0_45    0x000000000000487e        0x8 dist/pro/production/__pa_temp_15376/RN2xx3.o
                0x000000000000487e                __pa__0_45

.text           0x0000000000004886        0x8
 .text          0x0000000000004886        0x8 c:/program files/microchip/xc8/v2.40/avr/bin/../lib/gcc/avr/5.4.0/../../../../avr/lib/avrxmega2/memx-const/mapped\libm.a(divsf3.o)
                0x0000000000004886                __divsf3

.text           0x000000000000488e        0x8
 .text          0x000000000000488e        0x8 c:/program files/microchip/xc8/v2.40/avr/bin/../lib/gcc/avr/5.4.0/../../../../avr/lib/avrxmega2/memx-const/mapped\libm.a(mulsf3.o)
                0x000000000000488e                __mulsf3

.__pa__0_61     0x0000000000004896        0x6
 .__pa__0_61    0x0000000000004896        0x6 dist/pro/production/__pa_temp_15376/libm_a_powf.o
                0x0000000000004896                __pa__0_61

.__pa__0_17     0x000000000000489c        0x6
 .__pa__0_17    0x000000000000489c        0x6 dist/pro/production/__pa_temp_15376/libc_a___printf_core.o
                0x000000000000489c                __pa__0_17

.__pa__0_4b     0x00000000000048a2        0x6
 .__pa__0_4b    0x00000000000048a2        0x6 dist/pro/production/__pa_temp_15376/libc_a___printf_core.o
                0x00000000000048a2                __pa__0_4b

.text.USART0_Read
                0x00000000000048a8        0x6
 .text.USART0_Read
                0x00000000000048a8        0x6 dist/pro/production/__pa_temp_15376/usart0.o
                0x00000000000048a8                USART0_Read

.text.USART0_Write
                0x00000000000048ae        0x6
 .text.USART0_Write
                0x00000000000048ae        0x6 dist/pro/production/__pa_temp_15376/usart0.o
                0x00000000000048ae                USART0_Write

.text.USART1_Read
                0x00000000000048b4        0x6
 .text.USART1_Read
                0x00000000000048b4        0x6 dist/pro/production/__pa_temp_15376/usart1.o
                0x00000000000048b4                USART1_Read

.text.USART1_Write
                0x00000000000048ba        0x6
 .text.USART1_Write
                0x00000000000048ba        0x6 dist/pro/production/__pa_temp_15376/usart1.o
                0x00000000000048ba                USART1_Write

.__pa__0_10     0x00000000000048c0        0x6
 .__pa__0_10    0x00000000000048c0        0x6 dist/pro/production/__pa_temp_15376/application.o
                0x00000000000048c0                __pa__0_10

.__pa__0_23     0x00000000000048c6        0x6
 .__pa__0_23    0x00000000000048c6        0x6 dist/pro/production/__pa_temp_15376/bme280.o
                0x00000000000048c6                __pa__0_23

.text           0x00000000000048cc        0x6
 .text          0x00000000000048cc        0x6 c:/program files/microchip/xc8/v2.40/avr/bin/../lib/gcc/avr/5.4.0/../../../../avr/lib/avrxmega2/memx-const/mapped\libm.a(fp_nan.o)
                0x00000000000048cc                __fp_nan

.text           0x00000000000048d2        0x4
 .text          0x00000000000048d2        0x4 C:/Users/C70348/.mchp_packs/Microchip/AVR-Dx_DFP/2.1.152/xc8/avr/lib/avrxmega2/memx-const/mapped/crtavr64dd32.o
                0x00000000000048d2                __vector_22
                0x00000000000048d2                __vector_28
                0x00000000000048d2                __vector_1
                0x00000000000048d2                __vector_32
                0x00000000000048d2                __vector_12
                0x00000000000048d2                __bad_interrupt
                0x00000000000048d2                __vector_31
                0x00000000000048d2                __vector_35
                0x00000000000048d2                __vector_3
                0x00000000000048d2                __vector_23
                0x00000000000048d2                __vector_30
                0x00000000000048d2                __vector_25
                0x00000000000048d2                __vector_11
                0x00000000000048d2                __vector_13
                0x00000000000048d2                __vector_17
                0x00000000000048d2                __vector_19
                0x00000000000048d2                __vector_7
                0x00000000000048d2                __vector_33
                0x00000000000048d2                __vector_4
                0x00000000000048d2                __vector_9
                0x00000000000048d2                __vector_2
                0x00000000000048d2                __vector_21
                0x00000000000048d2                __vector_10
                0x00000000000048d2                __vector_16
                0x00000000000048d2                __vector_18
                0x00000000000048d2                __vector_20

.text.RN2xx3_config_TTN
                0x00000000000048d6        0x4
 .text.RN2xx3_config_TTN
                0x00000000000048d6        0x4 dist/pro/production/__pa_temp_15376/RN2xx3.o
                0x00000000000048d6                RN2xx3_config_TTN

.text.fabsf     0x00000000000048da        0x4
 .text.fabsf    0x00000000000048da        0x4 c:/program files/microchip/xc8/v2.40/avr/bin/../lib/gcc/avr/5.4.0/../../../../avr/lib/avrxmega2/memx-const/mapped\libm.a(fabsf.o)
                0x00000000000048da                fabsf

.text._Exit     0x00000000000048de        0x4
 .text._Exit    0x00000000000048de        0x4 c:/program files/microchip/xc8/v2.40/avr/bin/../lib/gcc/avr/5.4.0/../../../../avr/lib/avrxmega2/memx-const/mapped\libc.a(_Exit.o)
                0x00000000000048de                _Exit

.text.PF5_DefaultInterruptHandler
                0x00000000000048e2        0x2
 .text.PF5_DefaultInterruptHandler
                0x00000000000048e2        0x2 dist/pro/production/__pa_temp_15376/pins.o
                0x00000000000048e2                PF5_DefaultInterruptHandler

.text.PD1_DefaultInterruptHandler
                0x00000000000048e4        0x2
 .text.PD1_DefaultInterruptHandler
                0x00000000000048e4        0x2 dist/pro/production/__pa_temp_15376/pins.o
                0x00000000000048e4                PD1_DefaultInterruptHandler

.text.PC1_DefaultInterruptHandler
                0x00000000000048e6        0x2
 .text.PC1_DefaultInterruptHandler
                0x00000000000048e6        0x2 dist/pro/production/__pa_temp_15376/pins.o
                0x00000000000048e6                PC1_DefaultInterruptHandler

.text.PC0_DefaultInterruptHandler
                0x00000000000048e8        0x2
 .text.PC0_DefaultInterruptHandler
                0x00000000000048e8        0x2 dist/pro/production/__pa_temp_15376/pins.o
                0x00000000000048e8                PC0_DefaultInterruptHandler

.text.PD2_DefaultInterruptHandler
                0x00000000000048ea        0x2
 .text.PD2_DefaultInterruptHandler
                0x00000000000048ea        0x2 dist/pro/production/__pa_temp_15376/pins.o
                0x00000000000048ea                PD2_DefaultInterruptHandler

.text.PD5_DefaultInterruptHandler
                0x00000000000048ec        0x2
 .text.PD5_DefaultInterruptHandler
                0x00000000000048ec        0x2 dist/pro/production/__pa_temp_15376/pins.o
                0x00000000000048ec                PD5_DefaultInterruptHandler

.text.PD4_DefaultInterruptHandler
                0x00000000000048ee        0x2
 .text.PD4_DefaultInterruptHandler
                0x00000000000048ee        0x2 dist/pro/production/__pa_temp_15376/pins.o
                0x00000000000048ee                PD4_DefaultInterruptHandler

.text.PF6_DefaultInterruptHandler
                0x00000000000048f0        0x2
 .text.PF6_DefaultInterruptHandler
                0x00000000000048f0        0x2 dist/pro/production/__pa_temp_15376/pins.o
                0x00000000000048f0                PF6_DefaultInterruptHandler

.text.PA0_DefaultInterruptHandler
                0x00000000000048f2        0x2
 .text.PA0_DefaultInterruptHandler
                0x00000000000048f2        0x2 dist/pro/production/__pa_temp_15376/pins.o
                0x00000000000048f2                PA0_DefaultInterruptHandler

.text.PA1_DefaultInterruptHandler
                0x00000000000048f4        0x2
 .text.PA1_DefaultInterruptHandler
                0x00000000000048f4        0x2 dist/pro/production/__pa_temp_15376/pins.o
                0x00000000000048f4                PA1_DefaultInterruptHandler

.text.PC2_DefaultInterruptHandler
                0x00000000000048f6        0x2
 .text.PC2_DefaultInterruptHandler
                0x00000000000048f6        0x2 dist/pro/production/__pa_temp_15376/pins.o
                0x00000000000048f6                PC2_DefaultInterruptHandler

.text.USART0_DefaultParityErrorCallback
                0x00000000000048f8        0x2
 .text.USART0_DefaultParityErrorCallback
                0x00000000000048f8        0x2 dist/pro/production/__pa_temp_15376/usart0.o

.text.USART0_DefaultOverrunErrorCallback
                0x00000000000048fa        0x2
 .text.USART0_DefaultOverrunErrorCallback
                0x00000000000048fa        0x2 dist/pro/production/__pa_temp_15376/usart0.o

.text.USART0_DefaultFramingErrorCallback
                0x00000000000048fc        0x2
 .text.USART0_DefaultFramingErrorCallback
                0x00000000000048fc        0x2 dist/pro/production/__pa_temp_15376/usart0.o

.text.USART1_DefaultParityErrorCallback
                0x00000000000048fe        0x2
 .text.USART1_DefaultParityErrorCallback
                0x00000000000048fe        0x2 dist/pro/production/__pa_temp_15376/usart1.o

.text.USART1_DefaultOverrunErrorCallback
                0x0000000000004900        0x2
 .text.USART1_DefaultOverrunErrorCallback
                0x0000000000004900        0x2 dist/pro/production/__pa_temp_15376/usart1.o

.text.USART1_DefaultFramingErrorCallback
                0x0000000000004902        0x2
 .text.USART1_DefaultFramingErrorCallback
                0x0000000000004902        0x2 dist/pro/production/__pa_temp_15376/usart1.o

.text.__dummy_fini
                0x0000000000004904        0x2
 .text.__dummy_fini
                0x0000000000004904        0x2 c:/program files/microchip/xc8/v2.40/avr/bin/../lib/gcc/avr/5.4.0/../../../../avr/lib/avrxmega2/memx-const/mapped\libc.a(exit.o)
                0x0000000000004904                _fini

.text.__dummy_funcs_on_exit
                0x0000000000004906        0x2
 .text.__dummy_funcs_on_exit
                0x0000000000004906        0x2 c:/program files/microchip/xc8/v2.40/avr/bin/../lib/gcc/avr/5.4.0/../../../../avr/lib/avrxmega2/memx-const/mapped\libc.a(exit.o)
                0x0000000000004906                __funcs_on_exit

.text.__dummy_simulator_exit
                0x0000000000004908        0x2
 .text.__dummy_simulator_exit
                0x0000000000004908        0x2 c:/program files/microchip/xc8/v2.40/avr/bin/../lib/gcc/avr/5.4.0/../../../../avr/lib/avrxmega2/memx-const/mapped\libc.a(exit.o)
                0x0000000000004908                __simulator_exit

.rodata.state_table
                0x0000000000806221       0x16 load address 0x000000000000490a
 .rodata.state_table
                0x0000000000806221       0x16 dist/pro/production/__pa_temp_15376/libc_a___printf_core.o

.data.USART0_stream
                0x0000000000806237       0x10 load address 0x0000000000004920
 .data.USART0_stream
                0x0000000000806237       0x10 dist/pro/production/__pa_temp_15376/usart0.o
                0x0000000000806237                USART0_stream

.rodata.dp_l    0x0000000000806252        0x8 load address 0x0000000000004930
 .rodata.dp_l   0x0000000000806252        0x8 dist/pro/production/__pa_temp_15376/libm_a_powf.o

.rodata.dp_h    0x000000000080625a        0x8 load address 0x0000000000004938
 .rodata.dp_h   0x000000000080625a        0x8 dist/pro/production/__pa_temp_15376/libm_a_powf.o

.rodata.bp      0x0000000000806262        0x8 load address 0x0000000000004940
 .rodata.bp     0x0000000000806262        0x8 dist/pro/production/__pa_temp_15376/libm_a_powf.o

.rodata.nuls.2781
                0x000000000080626a        0x7 load address 0x0000000000004948
 .rodata.nuls.2781
                0x000000000080626a        0x7 c:/program files/microchip/xc8/v2.40/avr/bin/../lib/gcc/avr/5.4.0/../../../../avr/lib/avrxmega2/memx-const/mapped\libc.a(__fmt_s.o)

.rodata.nilstr.2962
                0x0000000000806271        0x6 load address 0x000000000000494f
 .rodata.nilstr.2962
                0x0000000000806271        0x6 dist/pro/production/__pa_temp_15376/libc_a___printf_core.o

.data._stdout   0x00000000008062d3        0x2 load address 0x0000000000004955
 .data._stdout  0x00000000008062d3        0x2 c:/program files/microchip/xc8/v2.40/avr/bin/../lib/gcc/avr/5.4.0/../../../../avr/lib/avrxmega2/memx-const/mapped\libc.a(stdout.o)
                0x00000000008062d3                _stdout
