Archive member included to satisfy reference by file (symbol)

c:/program files/microchip/xc8/v2.40/avr/bin/../lib/gcc/avr/5.4.0/../../../../avr/lib/avrxmega2/memx-const/mapped\libm.a(addsf3.o)
                              build/free/production/bme280.o (__subsf3)
c:/program files/microchip/xc8/v2.40/avr/bin/../lib/gcc/avr/5.4.0/../../../../avr/lib/avrxmega2/memx-const/mapped\libm.a(addsf3x.o)
                              c:/program files/microchip/xc8/v2.40/avr/bin/../lib/gcc/avr/5.4.0/../../../../avr/lib/avrxmega2/memx-const/mapped\libm.a(addsf3.o) (__addsf3x)
c:/program files/microchip/xc8/v2.40/avr/bin/../lib/gcc/avr/5.4.0/../../../../avr/lib/avrxmega2/memx-const/mapped\libm.a(divsf3.o)
                              build/free/production/application.o (__divsf3)
c:/program files/microchip/xc8/v2.40/avr/bin/../lib/gcc/avr/5.4.0/../../../../avr/lib/avrxmega2/memx-const/mapped\libm.a(divsf3x.o)
                              c:/program files/microchip/xc8/v2.40/avr/bin/../lib/gcc/avr/5.4.0/../../../../avr/lib/avrxmega2/memx-const/mapped\libm.a(divsf3.o) (__divsf3x)
c:/program files/microchip/xc8/v2.40/avr/bin/../lib/gcc/avr/5.4.0/../../../../avr/lib/avrxmega2/memx-const/mapped\libm.a(fixsfsi.o)
                              build/free/production/application.o (__fixsfsi)
c:/program files/microchip/xc8/v2.40/avr/bin/../lib/gcc/avr/5.4.0/../../../../avr/lib/avrxmega2/memx-const/mapped\libm.a(fixunssfsi.o)
                              build/free/production/application.o (__fixunssfsi)
c:/program files/microchip/xc8/v2.40/avr/bin/../lib/gcc/avr/5.4.0/../../../../avr/lib/avrxmega2/memx-const/mapped\libm.a(floatsisf.o)
                              build/free/production/application.o (__floatunsisf)
c:/program files/microchip/xc8/v2.40/avr/bin/../lib/gcc/avr/5.4.0/../../../../avr/lib/avrxmega2/memx-const/mapped\libm.a(fp_inf.o)
                              c:/program files/microchip/xc8/v2.40/avr/bin/../lib/gcc/avr/5.4.0/../../../../avr/lib/avrxmega2/memx-const/mapped\libm.a(addsf3x.o) (__fp_inf)
c:/program files/microchip/xc8/v2.40/avr/bin/../lib/gcc/avr/5.4.0/../../../../avr/lib/avrxmega2/memx-const/mapped\libm.a(fp_nan.o)
                              c:/program files/microchip/xc8/v2.40/avr/bin/../lib/gcc/avr/5.4.0/../../../../avr/lib/avrxmega2/memx-const/mapped\libm.a(addsf3x.o) (__fp_nan)
c:/program files/microchip/xc8/v2.40/avr/bin/../lib/gcc/avr/5.4.0/../../../../avr/lib/avrxmega2/memx-const/mapped\libm.a(fp_pscA.o)
                              c:/program files/microchip/xc8/v2.40/avr/bin/../lib/gcc/avr/5.4.0/../../../../avr/lib/avrxmega2/memx-const/mapped\libm.a(addsf3x.o) (__fp_pscA)
c:/program files/microchip/xc8/v2.40/avr/bin/../lib/gcc/avr/5.4.0/../../../../avr/lib/avrxmega2/memx-const/mapped\libm.a(fp_pscB.o)
                              c:/program files/microchip/xc8/v2.40/avr/bin/../lib/gcc/avr/5.4.0/../../../../avr/lib/avrxmega2/memx-const/mapped\libm.a(addsf3x.o) (__fp_pscB)
c:/program files/microchip/xc8/v2.40/avr/bin/../lib/gcc/avr/5.4.0/../../../../avr/lib/avrxmega2/memx-const/mapped\libm.a(fp_round.o)
                              c:/program files/microchip/xc8/v2.40/avr/bin/../lib/gcc/avr/5.4.0/../../../../avr/lib/avrxmega2/memx-const/mapped\libm.a(addsf3.o) (__fp_round)
c:/program files/microchip/xc8/v2.40/avr/bin/../lib/gcc/avr/5.4.0/../../../../avr/lib/avrxmega2/memx-const/mapped\libm.a(fp_split3.o)
                              c:/program files/microchip/xc8/v2.40/avr/bin/../lib/gcc/avr/5.4.0/../../../../avr/lib/avrxmega2/memx-const/mapped\libm.a(addsf3x.o) (__fp_split3)
c:/program files/microchip/xc8/v2.40/avr/bin/../lib/gcc/avr/5.4.0/../../../../avr/lib/avrxmega2/memx-const/mapped\libm.a(fp_zero.o)
                              c:/program files/microchip/xc8/v2.40/avr/bin/../lib/gcc/avr/5.4.0/../../../../avr/lib/avrxmega2/memx-const/mapped\libm.a(addsf3x.o) (__fp_zero)
c:/program files/microchip/xc8/v2.40/avr/bin/../lib/gcc/avr/5.4.0/../../../../avr/lib/avrxmega2/memx-const/mapped\libm.a(mulsf3.o)
                              build/free/production/application.o (__mulsf3)
c:/program files/microchip/xc8/v2.40/avr/bin/../lib/gcc/avr/5.4.0/../../../../avr/lib/avrxmega2/memx-const/mapped\libm.a(mulsf3x.o)
                              c:/program files/microchip/xc8/v2.40/avr/bin/../lib/gcc/avr/5.4.0/../../../../avr/lib/avrxmega2/memx-const/mapped\libm.a(mulsf3.o) (__mulsf3x)
c:/program files/microchip/xc8/v2.40/avr/bin/../lib/gcc/avr/5.4.0/../../../../avr/lib/avrxmega2/memx-const/mapped\libm.a(powf.o)
                              build/free/production/bme280.o (pow)
c:/program files/microchip/xc8/v2.40/avr/bin/../lib/gcc/avr/5.4.0/../../../../avr/lib/avrxmega2/memx-const/mapped\libm.a(sqrtf.o)
                              c:/program files/microchip/xc8/v2.40/avr/bin/../lib/gcc/avr/5.4.0/../../../../avr/lib/avrxmega2/memx-const/mapped\libm.a(powf.o) (sqrtf)
c:/program files/microchip/xc8/v2.40/avr/bin/../lib/gcc/avr/5.4.0/../../../../avr/lib/avrxmega2/memx-const/mapped\libm.a(fabsf.o)
                              c:/program files/microchip/xc8/v2.40/avr/bin/../lib/gcc/avr/5.4.0/../../../../avr/lib/avrxmega2/memx-const/mapped\libm.a(powf.o) (fabsf)
c:/program files/microchip/xc8/v2.40/avr/bin/../lib/gcc/avr/5.4.0/../../../../avr/lib/avrxmega2/memx-const/mapped\libm.a(scalbnf.o)
                              c:/program files/microchip/xc8/v2.40/avr/bin/../lib/gcc/avr/5.4.0/../../../../avr/lib/avrxmega2/memx-const/mapped\libm.a(powf.o) (scalbnf)
c:/program files/microchip/xc8/v2.40/avr/bin/../lib/gcc/avr/5.4.0/../../../../avr/lib/avrxmega2/memx-const/mapped\libm.a(cmpsf2.o)
                              c:/program files/microchip/xc8/v2.40/avr/bin/../lib/gcc/avr/5.4.0/../../../../avr/lib/avrxmega2/memx-const/mapped\libm.a(powf.o) (__lesf2)
c:/program files/microchip/xc8/v2.40/avr/bin/../lib/gcc/avr/5.4.0/../../../../avr/lib/avrxmega2/memx-const/mapped\libm.a(fp_cmp.o)
                              c:/program files/microchip/xc8/v2.40/avr/bin/../lib/gcc/avr/5.4.0/../../../../avr/lib/avrxmega2/memx-const/mapped\libm.a(cmpsf2.o) (__fp_cmp)
c:/program files/microchip/xc8/v2.40/avr/bin/../lib/gcc/avr/5.4.0/../../../../avr/lib/avrxmega2/memx-const/mapped\libm.a(gesf2.o)
                              c:/program files/microchip/xc8/v2.40/avr/bin/../lib/gcc/avr/5.4.0/../../../../avr/lib/avrxmega2/memx-const/mapped\libm.a(sqrtf.o) (__gesf2)
c:/program files/microchip/xc8/v2.40/avr/bin/../lib/gcc/avr/5.4.0/avrxmega2/memx-const/mapped\libgcc.a(_mulsi3.o)
                              build/free/production/bme280.o (__mulsi3)
c:/program files/microchip/xc8/v2.40/avr/bin/../lib/gcc/avr/5.4.0/avrxmega2/memx-const/mapped\libgcc.a(_udivmodsi4.o)
                              build/free/production/application.o (__udivmodsi4)
c:/program files/microchip/xc8/v2.40/avr/bin/../lib/gcc/avr/5.4.0/avrxmega2/memx-const/mapped\libgcc.a(_tablejump2.o)
                              build/free/production/application.o (__tablejump2__)
c:/program files/microchip/xc8/v2.40/avr/bin/../lib/gcc/avr/5.4.0/avrxmega2/memx-const/mapped\libgcc.a(_copy_data.o)
                              build/free/production/mcc_generated_files/system/src/config_bits.o (__do_copy_data)
c:/program files/microchip/xc8/v2.40/avr/bin/../lib/gcc/avr/5.4.0/avrxmega2/memx-const/mapped\libgcc.a(_muluhisi3.o)
                              build/free/production/bme280.o (__muluhisi3)
c:/program files/microchip/xc8/v2.40/avr/bin/../lib/gcc/avr/5.4.0/avrxmega2/memx-const/mapped\libgcc.a(_mulshisi3.o)
                              build/free/production/bme280.o (__mulshisi3)
c:/program files/microchip/xc8/v2.40/avr/bin/../lib/gcc/avr/5.4.0/avrxmega2/memx-const/mapped\libgcc.a(_prologue.o)
                              c:/program files/microchip/xc8/v2.40/avr/bin/../lib/gcc/avr/5.4.0/../../../../avr/lib/avrxmega2/memx-const/mapped\libm.a(powf.o) (__prologue_saves__)
c:/program files/microchip/xc8/v2.40/avr/bin/../lib/gcc/avr/5.4.0/avrxmega2/memx-const/mapped\libgcc.a(_epilogue.o)
                              c:/program files/microchip/xc8/v2.40/avr/bin/../lib/gcc/avr/5.4.0/../../../../avr/lib/avrxmega2/memx-const/mapped\libm.a(powf.o) (__epilogue_restores__)
c:/program files/microchip/xc8/v2.40/avr/bin/../lib/gcc/avr/5.4.0/avrxmega2/memx-const/mapped\libgcc.a(_umulhisi3.o)
                              c:/program files/microchip/xc8/v2.40/avr/bin/../lib/gcc/avr/5.4.0/avrxmega2/memx-const/mapped\libgcc.a(_muluhisi3.o) (__umulhisi3)
c:/program files/microchip/xc8/v2.40/avr/bin/../lib/gcc/avr/5.4.0/../../../../avr/lib/avrxmega2/memx-const/mapped\libc.a(errno.o)
                              c:/program files/microchip/xc8/v2.40/avr/bin/../lib/gcc/avr/5.4.0/../../../../avr/lib/avrxmega2/memx-const/mapped\libm.a(powf.o) (__errno_val)
c:/program files/microchip/xc8/v2.40/avr/bin/../lib/gcc/avr/5.4.0/../../../../avr/lib/avrxmega2/memx-const/mapped\libc.a(exit.o)
                              C:/Users/C70348/.mchp_packs/Microchip/AVR-Dx_DFP/2.1.152/xc8/avr/lib/avrxmega2/memx-const/mapped/crtavr64dd32.o (exit)
c:/program files/microchip/xc8/v2.40/avr/bin/../lib/gcc/avr/5.4.0/../../../../avr/lib/avrxmega2/memx-const/mapped\libc.a(__sio_printf_dosux.o)
                              build/free/production/application.o (_printf_cdopsuxX)
c:/program files/microchip/xc8/v2.40/avr/bin/../lib/gcc/avr/5.4.0/../../../../avr/lib/avrxmega2/memx-const/mapped\libc.a(__sio_printf_doux.o)
                              build/free/production/application.o (_printf_cdopuxX)
c:/program files/microchip/xc8/v2.40/avr/bin/../lib/gcc/avr/5.4.0/../../../../avr/lib/avrxmega2/memx-const/mapped\libc.a(__sio_printf_s.o)
                              build/free/production/RN2xx3.o (_printf_s)
c:/program files/microchip/xc8/v2.40/avr/bin/../lib/gcc/avr/5.4.0/../../../../avr/lib/avrxmega2/memx-const/mapped\libc.a(__sio_sprintf_doux.o)
                              build/free/production/RN2xx3.o (_sprintf_cdopuxX)
c:/program files/microchip/xc8/v2.40/avr/bin/../lib/gcc/avr/5.4.0/../../../../avr/lib/avrxmega2/memx-const/mapped\libc.a(__fmt_d.o)
                              c:/program files/microchip/xc8/v2.40/avr/bin/../lib/gcc/avr/5.4.0/../../../../avr/lib/avrxmega2/memx-const/mapped\libc.a(__sio_printf_dosux.o) (__fmt_d_needed)
c:/program files/microchip/xc8/v2.40/avr/bin/../lib/gcc/avr/5.4.0/../../../../avr/lib/avrxmega2/memx-const/mapped\libc.a(__fmt_o.o)
                              c:/program files/microchip/xc8/v2.40/avr/bin/../lib/gcc/avr/5.4.0/../../../../avr/lib/avrxmega2/memx-const/mapped\libc.a(__sio_printf_dosux.o) (__fmt_o_needed)
c:/program files/microchip/xc8/v2.40/avr/bin/../lib/gcc/avr/5.4.0/../../../../avr/lib/avrxmega2/memx-const/mapped\libc.a(__fmt_s.o)
                              c:/program files/microchip/xc8/v2.40/avr/bin/../lib/gcc/avr/5.4.0/../../../../avr/lib/avrxmega2/memx-const/mapped\libc.a(__sio_printf_dosux.o) (__fmt_s_needed)
c:/program files/microchip/xc8/v2.40/avr/bin/../lib/gcc/avr/5.4.0/../../../../avr/lib/avrxmega2/memx-const/mapped\libc.a(__fmt_u.o)
                              c:/program files/microchip/xc8/v2.40/avr/bin/../lib/gcc/avr/5.4.0/../../../../avr/lib/avrxmega2/memx-const/mapped\libc.a(__fmt_d.o) (__cvt_u)
c:/program files/microchip/xc8/v2.40/avr/bin/../lib/gcc/avr/5.4.0/../../../../avr/lib/avrxmega2/memx-const/mapped\libc.a(__fmt_x.o)
                              c:/program files/microchip/xc8/v2.40/avr/bin/../lib/gcc/avr/5.4.0/../../../../avr/lib/avrxmega2/memx-const/mapped\libc.a(__sio_printf_dosux.o) (__fmt_x_needed)
c:/program files/microchip/xc8/v2.40/avr/bin/../lib/gcc/avr/5.4.0/../../../../avr/lib/avrxmega2/memx-const/mapped\libc.a(__pop_int.o)
                              c:/program files/microchip/xc8/v2.40/avr/bin/../lib/gcc/avr/5.4.0/../../../../avr/lib/avrxmega2/memx-const/mapped\libc.a(__sio_printf_dosux.o) (__pop_int_needed)
c:/program files/microchip/xc8/v2.40/avr/bin/../lib/gcc/avr/5.4.0/../../../../avr/lib/avrxmega2/memx-const/mapped\libc.a(__printf_core.o)
                              c:/program files/microchip/xc8/v2.40/avr/bin/../lib/gcc/avr/5.4.0/../../../../avr/lib/avrxmega2/memx-const/mapped\libc.a(__fmt_d.o) (__pad)
c:/program files/microchip/xc8/v2.40/avr/bin/../lib/gcc/avr/5.4.0/../../../../avr/lib/avrxmega2/memx-const/mapped\libc.a(fputc.o)
                              c:/program files/microchip/xc8/v2.40/avr/bin/../lib/gcc/avr/5.4.0/../../../../avr/lib/avrxmega2/memx-const/mapped\libc.a(__printf_core.o) (fputc)
c:/program files/microchip/xc8/v2.40/avr/bin/../lib/gcc/avr/5.4.0/../../../../avr/lib/avrxmega2/memx-const/mapped\libc.a(puts.o)
                              build/free/production/main.o (puts)
c:/program files/microchip/xc8/v2.40/avr/bin/../lib/gcc/avr/5.4.0/../../../../avr/lib/avrxmega2/memx-const/mapped\libc.a(stdout.o)
                              build/free/production/mcc_generated_files/uart/src/usart0.o (_stdout)
c:/program files/microchip/xc8/v2.40/avr/bin/../lib/gcc/avr/5.4.0/../../../../avr/lib/avrxmega2/memx-const/mapped\libc.a(strlen.o)
                              c:/program files/microchip/xc8/v2.40/avr/bin/../lib/gcc/avr/5.4.0/../../../../avr/lib/avrxmega2/memx-const/mapped\libc.a(__fmt_s.o) (strlen)
c:/program files/microchip/xc8/v2.40/avr/bin/../lib/gcc/avr/5.4.0/../../../../avr/lib/avrxmega2/memx-const/mapped\libc.a(tolower.o)
                              c:/program files/microchip/xc8/v2.40/avr/bin/../lib/gcc/avr/5.4.0/../../../../avr/lib/avrxmega2/memx-const/mapped\libc.a(__printf_core.o) (tolower)
c:/program files/microchip/xc8/v2.40/avr/bin/../lib/gcc/avr/5.4.0/../../../../avr/lib/avrxmega2/memx-const/mapped\libc.a(toupper.o)
                              c:/program files/microchip/xc8/v2.40/avr/bin/../lib/gcc/avr/5.4.0/../../../../avr/lib/avrxmega2/memx-const/mapped\libc.a(__fmt_x.o) (toupper)
c:/program files/microchip/xc8/v2.40/avr/bin/../lib/gcc/avr/5.4.0/../../../../avr/lib/avrxmega2/memx-const/mapped\libc.a(_Exit.o)
                              c:/program files/microchip/xc8/v2.40/avr/bin/../lib/gcc/avr/5.4.0/../../../../avr/lib/avrxmega2/memx-const/mapped\libc.a(exit.o) (_Exit)
c:/program files/microchip/xc8/v2.40/avr/bin/../lib/gcc/avr/5.4.0/../../../../avr/lib/avrxmega2/memx-const/mapped\libc.a(__int_vfprintf.o)
                              c:/program files/microchip/xc8/v2.40/avr/bin/../lib/gcc/avr/5.4.0/../../../../avr/lib/avrxmega2/memx-const/mapped\libc.a(__sio_printf_dosux.o) (__vfprintf)
c:/program files/microchip/xc8/v2.40/avr/bin/../lib/gcc/avr/5.4.0/../../../../avr/lib/avrxmega2/memx-const/mapped\libc.a(__int_vsprintf.o)
                              c:/program files/microchip/xc8/v2.40/avr/bin/../lib/gcc/avr/5.4.0/../../../../avr/lib/avrxmega2/memx-const/mapped\libc.a(__sio_sprintf_doux.o) (__vsprintf)
c:/program files/microchip/xc8/v2.40/avr/bin/../lib/gcc/avr/5.4.0/../../../../avr/lib/avrxmega2/memx-const/mapped\libc.a(__int_vsnprintf.o)
                              c:/program files/microchip/xc8/v2.40/avr/bin/../lib/gcc/avr/5.4.0/../../../../avr/lib/avrxmega2/memx-const/mapped\libc.a(__int_vsprintf.o) (__vsnprintf)
c:/program files/microchip/xc8/v2.40/avr/bin/../lib/gcc/avr/5.4.0/../../../../avr/lib/avrxmega2/memx-const/mapped\libc.a(fputs.o)
                              c:/program files/microchip/xc8/v2.40/avr/bin/../lib/gcc/avr/5.4.0/../../../../avr/lib/avrxmega2/memx-const/mapped\libc.a(puts.o) (fputs)
c:/program files/microchip/xc8/v2.40/avr/bin/../lib/gcc/avr/5.4.0/avrxmega2/memx-const/mapped\libgcc.a(_exit.o)
                              c:/program files/microchip/xc8/v2.40/avr/bin/../lib/gcc/avr/5.4.0/../../../../avr/lib/avrxmega2/memx-const/mapped\libc.a(_Exit.o) (_exit)

Allocating common symbols
Common symbol       size              file

__stdout_used       0x2               c:/program files/microchip/xc8/v2.40/avr/bin/../lib/gcc/avr/5.4.0/../../../../avr/lib/avrxmega2/memx-const/mapped\libc.a(stdout.o)
__errno_val         0x2               c:/program files/microchip/xc8/v2.40/avr/bin/../lib/gcc/avr/5.4.0/../../../../avr/lib/avrxmega2/memx-const/mapped\libc.a(errno.o)

Discarded input sections

 .data          0x0000000000000000        0x0 C:/Users/C70348/.mchp_packs/Microchip/AVR-Dx_DFP/2.1.152/xc8/avr/lib/avrxmega2/memx-const/mapped/crtavr64dd32.o
 .bss           0x0000000000000000        0x0 C:/Users/C70348/.mchp_packs/Microchip/AVR-Dx_DFP/2.1.152/xc8/avr/lib/avrxmega2/memx-const/mapped/crtavr64dd32.o
 .text          0x0000000000000000        0x0 build/free/production/mcc_generated_files/adc/src/adc0.o
 .data          0x0000000000000000        0x0 build/free/production/mcc_generated_files/adc/src/adc0.o
 .bss           0x0000000000000000        0x0 build/free/production/mcc_generated_files/adc/src/adc0.o
 .text.ADC0_Enable
                0x0000000000000000        0xc build/free/production/mcc_generated_files/adc/src/adc0.o
 .text.ADC0_Disable
                0x0000000000000000        0xc build/free/production/mcc_generated_files/adc/src/adc0.o
 .text.ADC0_EnableAutoTrigger
                0x0000000000000000        0xc build/free/production/mcc_generated_files/adc/src/adc0.o
 .text.ADC0_DisableAutoTrigger
                0x0000000000000000        0xc build/free/production/mcc_generated_files/adc/src/adc0.o
 .text.ADC0_SetWindowHigh
                0x0000000000000000        0xa build/free/production/mcc_generated_files/adc/src/adc0.o
 .text.ADC0_SetWindowLow
                0x0000000000000000        0xa build/free/production/mcc_generated_files/adc/src/adc0.o
 .text.ADC0_SetWindowMode
                0x0000000000000000        0x6 build/free/production/mcc_generated_files/adc/src/adc0.o
 .text.ADC0_SetWindowChannel
                0x0000000000000000        0x6 build/free/production/mcc_generated_files/adc/src/adc0.o
 .text.ADC0_StartConversion
                0x0000000000000000        0xc build/free/production/mcc_generated_files/adc/src/adc0.o
 .text.ADC0_StartDiffConversion
                0x0000000000000000        0xe build/free/production/mcc_generated_files/adc/src/adc0.o
 .text.ADC0_StopConversion
                0x0000000000000000        0x8 build/free/production/mcc_generated_files/adc/src/adc0.o
 .text.ADC0_GetConversionResult
                0x0000000000000000        0xa build/free/production/mcc_generated_files/adc/src/adc0.o
 .text.ADC0_GetWindowResult
                0x0000000000000000       0x10 build/free/production/mcc_generated_files/adc/src/adc0.o
 .text.ADC0_GetDiffConversion
                0x0000000000000000       0x26 build/free/production/mcc_generated_files/adc/src/adc0.o
 .text.ADC0_GetResolution
                0x0000000000000000       0x10 build/free/production/mcc_generated_files/adc/src/adc0.o
 .text.ADC0_RegisterWindowCallback
                0x0000000000000000        0xa build/free/production/mcc_generated_files/adc/src/adc0.o
 .text.ADC0_RegisterResrdyCallback
                0x0000000000000000        0xa build/free/production/mcc_generated_files/adc/src/adc0.o
 .text          0x0000000000000000        0x0 build/free/production/mcc_generated_files/evsys/src/evsys.o
 .data          0x0000000000000000        0x0 build/free/production/mcc_generated_files/evsys/src/evsys.o
 .bss           0x0000000000000000        0x0 build/free/production/mcc_generated_files/evsys/src/evsys.o
 .text.EVSYS_SoftwareEventASet
                0x0000000000000000        0x6 build/free/production/mcc_generated_files/evsys/src/evsys.o
 .text.EVSYS_SoftwareEventBSet
                0x0000000000000000        0x6 build/free/production/mcc_generated_files/evsys/src/evsys.o
 .text          0x0000000000000000        0x0 build/free/production/mcc_generated_files/system/src/clock.o
 .data          0x0000000000000000        0x0 build/free/production/mcc_generated_files/system/src/clock.o
 .bss           0x0000000000000000        0x0 build/free/production/mcc_generated_files/system/src/clock.o
 .text.CFD_Enable
                0x0000000000000000       0x10 build/free/production/mcc_generated_files/system/src/clock.o
 .text.CFD_Disable
                0x0000000000000000       0x12 build/free/production/mcc_generated_files/system/src/clock.o
 .text          0x0000000000000000        0x0 build/free/production/mcc_generated_files/system/src/system.o
 .data          0x0000000000000000        0x0 build/free/production/mcc_generated_files/system/src/system.o
 .bss           0x0000000000000000        0x0 build/free/production/mcc_generated_files/system/src/system.o
 .text          0x0000000000000000        0x0 build/free/production/mcc_generated_files/system/src/config_bits.o
 .data          0x0000000000000000        0x0 build/free/production/mcc_generated_files/system/src/config_bits.o
 .bss           0x0000000000000000        0x0 build/free/production/mcc_generated_files/system/src/config_bits.o
 .text          0x0000000000000000        0x0 build/free/production/mcc_generated_files/system/src/pins.o
 .data          0x0000000000000000        0x0 build/free/production/mcc_generated_files/system/src/pins.o
 .bss           0x0000000000000000        0x0 build/free/production/mcc_generated_files/system/src/pins.o
 .text.PC1_SetInterruptHandler
                0x0000000000000000        0xa build/free/production/mcc_generated_files/system/src/pins.o
 .text.PC0_SetInterruptHandler
                0x0000000000000000        0xa build/free/production/mcc_generated_files/system/src/pins.o
 .text.PD2_SetInterruptHandler
                0x0000000000000000        0xa build/free/production/mcc_generated_files/system/src/pins.o
 .text.PD5_SetInterruptHandler
                0x0000000000000000        0xa build/free/production/mcc_generated_files/system/src/pins.o
 .text.PD4_SetInterruptHandler
                0x0000000000000000        0xa build/free/production/mcc_generated_files/system/src/pins.o
 .text.PF6_SetInterruptHandler
                0x0000000000000000        0xa build/free/production/mcc_generated_files/system/src/pins.o
 .text.PA0_SetInterruptHandler
                0x0000000000000000        0xa build/free/production/mcc_generated_files/system/src/pins.o
 .text.PA1_SetInterruptHandler
                0x0000000000000000        0xa build/free/production/mcc_generated_files/system/src/pins.o
 .text.PC2_SetInterruptHandler
                0x0000000000000000        0xa build/free/production/mcc_generated_files/system/src/pins.o
 .text.PD1_SetInterruptHandler
                0x0000000000000000        0xa build/free/production/mcc_generated_files/system/src/pins.o
 .text.PF5_SetInterruptHandler
                0x0000000000000000        0xa build/free/production/mcc_generated_files/system/src/pins.o
 .text          0x0000000000000000        0x0 build/free/production/mcc_generated_files/system/src/protected_io.o
 .data          0x0000000000000000        0x0 build/free/production/mcc_generated_files/system/src/protected_io.o
 .bss           0x0000000000000000        0x0 build/free/production/mcc_generated_files/system/src/protected_io.o
 .text          0x0000000000000000        0x0 build/free/production/mcc_generated_files/system/src/interrupt.o
 .data          0x0000000000000000        0x0 build/free/production/mcc_generated_files/system/src/interrupt.o
 .bss           0x0000000000000000        0x0 build/free/production/mcc_generated_files/system/src/interrupt.o
 .text          0x0000000000000000        0x0 build/free/production/mcc_generated_files/timer/src/tcb0.o
 .data          0x0000000000000000        0x0 build/free/production/mcc_generated_files/timer/src/tcb0.o
 .bss           0x0000000000000000        0x0 build/free/production/mcc_generated_files/timer/src/tcb0.o
 .text.TCB0_Start
                0x0000000000000000        0xc build/free/production/mcc_generated_files/timer/src/tcb0.o
 .text.TCB0_Stop
                0x0000000000000000        0xc build/free/production/mcc_generated_files/timer/src/tcb0.o
 .text.TCB0_Write
                0x0000000000000000        0xa build/free/production/mcc_generated_files/timer/src/tcb0.o
 .text.TCB0_Read
                0x0000000000000000        0xa build/free/production/mcc_generated_files/timer/src/tcb0.o
 .text.TCB0_EnableCaptInterrupt
                0x0000000000000000        0xc build/free/production/mcc_generated_files/timer/src/tcb0.o
 .text.TCB0_EnableOvfInterrupt
                0x0000000000000000        0xc build/free/production/mcc_generated_files/timer/src/tcb0.o
 .text.TCB0_DisableCaptInterrupt
                0x0000000000000000        0xc build/free/production/mcc_generated_files/timer/src/tcb0.o
 .text.TCB0_DisableOvfInterrupt
                0x0000000000000000        0xc build/free/production/mcc_generated_files/timer/src/tcb0.o
 .text.TCB0_ClearCaptInterruptFlag
                0x0000000000000000        0xc build/free/production/mcc_generated_files/timer/src/tcb0.o
 .text.TCB0_ClearOvfInterruptFlag
                0x0000000000000000        0xc build/free/production/mcc_generated_files/timer/src/tcb0.o
 .text.TCB0_IsCaptInterruptEnabled
                0x0000000000000000        0xc build/free/production/mcc_generated_files/timer/src/tcb0.o
 .text.TCB0_IsOvfInterruptEnabled
                0x0000000000000000        0xc build/free/production/mcc_generated_files/timer/src/tcb0.o
 .rodata.TCB0_Interface
                0x0000000000000000        0xc build/free/production/mcc_generated_files/timer/src/tcb0.o
 .text          0x0000000000000000        0x0 build/free/production/mcc_generated_files/timer/src/rtc.o
 .data          0x0000000000000000        0x0 build/free/production/mcc_generated_files/timer/src/rtc.o
 .bss           0x0000000000000000        0x0 build/free/production/mcc_generated_files/timer/src/rtc.o
 .text.RTC_SetOVFIsrCallback
                0x0000000000000000        0xa build/free/production/mcc_generated_files/timer/src/rtc.o
 .text.RTC_SetCMPIsrCallback
                0x0000000000000000        0xa build/free/production/mcc_generated_files/timer/src/rtc.o
 .text.RTC_WriteCounter
                0x0000000000000000       0x16 build/free/production/mcc_generated_files/timer/src/rtc.o
 .text.RTC_ReadCounter
                0x0000000000000000        0xa build/free/production/mcc_generated_files/timer/src/rtc.o
 .text.RTC_WritePeriod
                0x0000000000000000       0x16 build/free/production/mcc_generated_files/timer/src/rtc.o
 .text.RTC_ReadPeriod
                0x0000000000000000        0xa build/free/production/mcc_generated_files/timer/src/rtc.o
 .text.RTC_EnableCMPInterrupt
                0x0000000000000000        0xc build/free/production/mcc_generated_files/timer/src/rtc.o
 .text.RTC_DisableCMPInterrupt
                0x0000000000000000        0xc build/free/production/mcc_generated_files/timer/src/rtc.o
 .text.RTC_EnableOVFInterrupt
                0x0000000000000000        0xc build/free/production/mcc_generated_files/timer/src/rtc.o
 .text.RTC_DisableOVFInterrupt
                0x0000000000000000        0xc build/free/production/mcc_generated_files/timer/src/rtc.o
 .text.RTC_EnablePITInterrupt
                0x0000000000000000        0xc build/free/production/mcc_generated_files/timer/src/rtc.o
 .text.RTC_DisablePITInterrupt
                0x0000000000000000        0xc build/free/production/mcc_generated_files/timer/src/rtc.o
 .text.RTC_ClearOVFInterruptFlag
                0x0000000000000000        0x8 build/free/production/mcc_generated_files/timer/src/rtc.o
 .text.RTC_IsOVFInterruptEnabled
                0x0000000000000000        0xc build/free/production/mcc_generated_files/timer/src/rtc.o
 .text          0x0000000000000000        0x0 build/free/production/mcc_generated_files/timer/src/tcb1.o
 .data          0x0000000000000000        0x0 build/free/production/mcc_generated_files/timer/src/tcb1.o
 .bss           0x0000000000000000        0x0 build/free/production/mcc_generated_files/timer/src/tcb1.o
 .text.TCB1_Start
                0x0000000000000000        0xc build/free/production/mcc_generated_files/timer/src/tcb1.o
 .text.TCB1_Stop
                0x0000000000000000        0xc build/free/production/mcc_generated_files/timer/src/tcb1.o
 .text.TCB1_Write
                0x0000000000000000        0xa build/free/production/mcc_generated_files/timer/src/tcb1.o
 .text.TCB1_Read
                0x0000000000000000        0xa build/free/production/mcc_generated_files/timer/src/tcb1.o
 .text.TCB1_EnableCaptInterrupt
                0x0000000000000000        0xc build/free/production/mcc_generated_files/timer/src/tcb1.o
 .text.TCB1_EnableOvfInterrupt
                0x0000000000000000        0xc build/free/production/mcc_generated_files/timer/src/tcb1.o
 .text.TCB1_DisableCaptInterrupt
                0x0000000000000000        0xc build/free/production/mcc_generated_files/timer/src/tcb1.o
 .text.TCB1_DisableOvfInterrupt
                0x0000000000000000        0xc build/free/production/mcc_generated_files/timer/src/tcb1.o
 .text.TCB1_ClearCaptInterruptFlag
                0x0000000000000000        0xc build/free/production/mcc_generated_files/timer/src/tcb1.o
 .text.TCB1_ClearOvfInterruptFlag
                0x0000000000000000        0xc build/free/production/mcc_generated_files/timer/src/tcb1.o
 .text.TCB1_IsCaptInterruptEnabled
                0x0000000000000000        0xc build/free/production/mcc_generated_files/timer/src/tcb1.o
 .text.TCB1_IsOvfInterruptEnabled
                0x0000000000000000        0xc build/free/production/mcc_generated_files/timer/src/tcb1.o
 .rodata.TCB1_Interface
                0x0000000000000000        0xc build/free/production/mcc_generated_files/timer/src/tcb1.o
 .text          0x0000000000000000        0x0 build/free/production/mcc_generated_files/uart/src/usart0.o
 .data          0x0000000000000000        0x0 build/free/production/mcc_generated_files/uart/src/usart0.o
 .bss           0x0000000000000000        0x0 build/free/production/mcc_generated_files/uart/src/usart0.o
 .text.USART0_Deinitialize
                0x0000000000000000       0x18 build/free/production/mcc_generated_files/uart/src/usart0.o
 .text.USART0_TransmitEnable
                0x0000000000000000        0xc build/free/production/mcc_generated_files/uart/src/usart0.o
 .text.USART0_TransmitDisable
                0x0000000000000000        0xc build/free/production/mcc_generated_files/uart/src/usart0.o
 .text.USART0_IsTxDone
                0x0000000000000000        0xc build/free/production/mcc_generated_files/uart/src/usart0.o
 .text.USART0_ErrorGet
                0x0000000000000000       0x72 build/free/production/mcc_generated_files/uart/src/usart0.o
 .text.USART0_FramingErrorCallbackRegister
                0x0000000000000000        0xe build/free/production/mcc_generated_files/uart/src/usart0.o
 .text.USART0_OverrunErrorCallbackRegister
                0x0000000000000000        0xe build/free/production/mcc_generated_files/uart/src/usart0.o
 .text.USART0_ParityErrorCallbackRegister
                0x0000000000000000        0xe build/free/production/mcc_generated_files/uart/src/usart0.o
 .text.USART0_Enable
                0x0000000000000000        0xc build/free/production/mcc_generated_files/uart/src/usart0.o
 .text.USART0_Disable
                0x0000000000000000        0xc build/free/production/mcc_generated_files/uart/src/usart0.o
 .text.USART0_ReceiveEnable
                0x0000000000000000        0xc build/free/production/mcc_generated_files/uart/src/usart0.o
 .text.USART0_ReceiveDisable
                0x0000000000000000        0xc build/free/production/mcc_generated_files/uart/src/usart0.o
 .rodata.UART0  0x0000000000000000       0x30 build/free/production/mcc_generated_files/uart/src/usart0.o
 .text          0x0000000000000000        0x0 build/free/production/mcc_generated_files/uart/src/usart1.o
 .data          0x0000000000000000        0x0 build/free/production/mcc_generated_files/uart/src/usart1.o
 .bss           0x0000000000000000        0x0 build/free/production/mcc_generated_files/uart/src/usart1.o
 .text.USART1_Deinitialize
                0x0000000000000000       0x18 build/free/production/mcc_generated_files/uart/src/usart1.o
 .text.USART1_TransmitEnable
                0x0000000000000000        0xc build/free/production/mcc_generated_files/uart/src/usart1.o
 .text.USART1_TransmitDisable
                0x0000000000000000        0xc build/free/production/mcc_generated_files/uart/src/usart1.o
 .text.USART1_IsTxDone
                0x0000000000000000        0xc build/free/production/mcc_generated_files/uart/src/usart1.o
 .text.USART1_ErrorGet
                0x0000000000000000       0x72 build/free/production/mcc_generated_files/uart/src/usart1.o
 .text.USART1_FramingErrorCallbackRegister
                0x0000000000000000        0xe build/free/production/mcc_generated_files/uart/src/usart1.o
 .text.USART1_OverrunErrorCallbackRegister
                0x0000000000000000        0xe build/free/production/mcc_generated_files/uart/src/usart1.o
 .text.USART1_ParityErrorCallbackRegister
                0x0000000000000000        0xe build/free/production/mcc_generated_files/uart/src/usart1.o
 .text.USART1_Enable
                0x0000000000000000        0xc build/free/production/mcc_generated_files/uart/src/usart1.o
 .text.USART1_Disable
                0x0000000000000000        0xc build/free/production/mcc_generated_files/uart/src/usart1.o
 .text.USART1_ReceiveEnable
                0x0000000000000000        0xc build/free/production/mcc_generated_files/uart/src/usart1.o
 .text.USART1_ReceiveDisable
                0x0000000000000000        0xc build/free/production/mcc_generated_files/uart/src/usart1.o
 .rodata.UART1  0x0000000000000000       0x30 build/free/production/mcc_generated_files/uart/src/usart1.o
 .text          0x0000000000000000        0x0 build/free/production/mcc_generated_files/vref/src/vref.o
 .data          0x0000000000000000        0x0 build/free/production/mcc_generated_files/vref/src/vref.o
 .bss           0x0000000000000000        0x0 build/free/production/mcc_generated_files/vref/src/vref.o
 .text          0x0000000000000000        0x0 build/free/production/main.o
 .data          0x0000000000000000        0x0 build/free/production/main.o
 .bss           0x0000000000000000        0x0 build/free/production/main.o
 .text          0x0000000000000000        0x0 build/free/production/application.o
 .data          0x0000000000000000        0x0 build/free/production/application.o
 .bss           0x0000000000000000        0x0 build/free/production/application.o
 .text.soilPulse
                0x0000000000000000       0xc8 build/free/production/application.o
 .text.printRawValues
                0x0000000000000000       0xe4 build/free/production/application.o
 .bss.loop_cnt.5145
                0x0000000000000000        0x4 build/free/production/application.o
 .bss.moist_range_t
                0x0000000000000000        0x4 build/free/production/application.o
 .bss.soil      0x0000000000000000        0xc build/free/production/application.o
 .bss.soilSecs  0x0000000000000000        0x4 build/free/production/application.o
 .bss.lastsecs  0x0000000000000000        0x4 build/free/production/application.o
 .bss.last_millis
                0x0000000000000000        0x4 build/free/production/application.o
 .text          0x0000000000000000        0x0 build/free/production/TWI.o
 .data          0x0000000000000000        0x0 build/free/production/TWI.o
 .bss           0x0000000000000000        0x0 build/free/production/TWI.o
 .text.TWI_sendByte
                0x0000000000000000       0x2e build/free/production/TWI.o
 .text.TWI_readByte
                0x0000000000000000       0x2c build/free/production/TWI.o
 .text.TWI_readBytes
                0x0000000000000000       0x2c build/free/production/TWI.o
 .text          0x0000000000000000        0x0 build/free/production/bme280.o
 .data          0x0000000000000000        0x0 build/free/production/bme280.o
 .bss           0x0000000000000000        0x0 build/free/production/bme280.o
 .text.BME280_getID
                0x0000000000000000       0x22 build/free/production/bme280.o
 .text.BME280_config
                0x0000000000000000       0x1e build/free/production/bme280.o
 .text.BME280_ctrl_meas
                0x0000000000000000       0x18 build/free/production/bme280.o
 .text.BME280_ctrl_hum
                0x0000000000000000        0x6 build/free/production/bme280.o
 .bss.weather_initialized
                0x0000000000000000        0x1 build/free/production/bme280.o
 .bss.str_hum   0x0000000000000000       0x1e build/free/production/bme280.o
 .bss.str_press
                0x0000000000000000       0x1e build/free/production/bme280.o
 .bss.str_temp  0x0000000000000000       0x1e build/free/production/bme280.o
 .text          0x0000000000000000        0x0 build/free/production/ringBuffer.o
 .data          0x0000000000000000        0x0 build/free/production/ringBuffer.o
 .bss           0x0000000000000000        0x0 build/free/production/ringBuffer.o
 .text.ringBuffer_reset
                0x0000000000000000       0x2c build/free/production/ringBuffer.o
 .text.USART0_sendBufferedString
                0x0000000000000000       0x80 build/free/production/ringBuffer.o
 .text          0x0000000000000000        0x0 build/free/production/RN2xx3.o
 .data          0x0000000000000000        0x0 build/free/production/RN2xx3.o
 .bss           0x0000000000000000        0x0 build/free/production/RN2xx3.o
 .text.RN2xx3_config_ABP
                0x0000000000000000       0x82 build/free/production/RN2xx3.o
 .text.RN2xx3_join_ABP
                0x0000000000000000       0x58 build/free/production/RN2xx3.o
 .text.RN2xx3_get_status
                0x0000000000000000       0xda build/free/production/RN2xx3.o
 .text.RN2xx3_sleep
                0x0000000000000000       0x30 build/free/production/RN2xx3.o
 .data          0x0000000000000000        0x0 c:/program files/microchip/xc8/v2.40/avr/bin/../lib/gcc/avr/5.4.0/../../../../avr/lib/avrxmega2/memx-const/mapped\libm.a(addsf3.o)
 .bss           0x0000000000000000        0x0 c:/program files/microchip/xc8/v2.40/avr/bin/../lib/gcc/avr/5.4.0/../../../../avr/lib/avrxmega2/memx-const/mapped\libm.a(addsf3.o)
 .stack.descriptors
                0x0000000000000000       0x2c c:/program files/microchip/xc8/v2.40/avr/bin/../lib/gcc/avr/5.4.0/../../../../avr/lib/avrxmega2/memx-const/mapped\libm.a(addsf3.o)
 .data          0x0000000000000000        0x0 c:/program files/microchip/xc8/v2.40/avr/bin/../lib/gcc/avr/5.4.0/../../../../avr/lib/avrxmega2/memx-const/mapped\libm.a(addsf3x.o)
 .bss           0x0000000000000000        0x0 c:/program files/microchip/xc8/v2.40/avr/bin/../lib/gcc/avr/5.4.0/../../../../avr/lib/avrxmega2/memx-const/mapped\libm.a(addsf3x.o)
 .stack.descriptors
                0x0000000000000000       0x17 c:/program files/microchip/xc8/v2.40/avr/bin/../lib/gcc/avr/5.4.0/../../../../avr/lib/avrxmega2/memx-const/mapped\libm.a(addsf3x.o)
 .data          0x0000000000000000        0x0 c:/program files/microchip/xc8/v2.40/avr/bin/../lib/gcc/avr/5.4.0/../../../../avr/lib/avrxmega2/memx-const/mapped\libm.a(divsf3.o)
 .bss           0x0000000000000000        0x0 c:/program files/microchip/xc8/v2.40/avr/bin/../lib/gcc/avr/5.4.0/../../../../avr/lib/avrxmega2/memx-const/mapped\libm.a(divsf3.o)
 .stack.descriptors
                0x0000000000000000       0x16 c:/program files/microchip/xc8/v2.40/avr/bin/../lib/gcc/avr/5.4.0/../../../../avr/lib/avrxmega2/memx-const/mapped\libm.a(divsf3.o)
 .data          0x0000000000000000        0x0 c:/program files/microchip/xc8/v2.40/avr/bin/../lib/gcc/avr/5.4.0/../../../../avr/lib/avrxmega2/memx-const/mapped\libm.a(divsf3x.o)
 .bss           0x0000000000000000        0x0 c:/program files/microchip/xc8/v2.40/avr/bin/../lib/gcc/avr/5.4.0/../../../../avr/lib/avrxmega2/memx-const/mapped\libm.a(divsf3x.o)
 .stack.descriptors
                0x0000000000000000       0x31 c:/program files/microchip/xc8/v2.40/avr/bin/../lib/gcc/avr/5.4.0/../../../../avr/lib/avrxmega2/memx-const/mapped\libm.a(divsf3x.o)
 .data          0x0000000000000000        0x0 c:/program files/microchip/xc8/v2.40/avr/bin/../lib/gcc/avr/5.4.0/../../../../avr/lib/avrxmega2/memx-const/mapped\libm.a(fixsfsi.o)
 .bss           0x0000000000000000        0x0 c:/program files/microchip/xc8/v2.40/avr/bin/../lib/gcc/avr/5.4.0/../../../../avr/lib/avrxmega2/memx-const/mapped\libm.a(fixsfsi.o)
 .stack.descriptors
                0x0000000000000000       0x17 c:/program files/microchip/xc8/v2.40/avr/bin/../lib/gcc/avr/5.4.0/../../../../avr/lib/avrxmega2/memx-const/mapped\libm.a(fixsfsi.o)
 .data          0x0000000000000000        0x0 c:/program files/microchip/xc8/v2.40/avr/bin/../lib/gcc/avr/5.4.0/../../../../avr/lib/avrxmega2/memx-const/mapped\libm.a(fixunssfsi.o)
 .bss           0x0000000000000000        0x0 c:/program files/microchip/xc8/v2.40/avr/bin/../lib/gcc/avr/5.4.0/../../../../avr/lib/avrxmega2/memx-const/mapped\libm.a(fixunssfsi.o)
 .stack.descriptors
                0x0000000000000000       0x1a c:/program files/microchip/xc8/v2.40/avr/bin/../lib/gcc/avr/5.4.0/../../../../avr/lib/avrxmega2/memx-const/mapped\libm.a(fixunssfsi.o)
 .data          0x0000000000000000        0x0 c:/program files/microchip/xc8/v2.40/avr/bin/../lib/gcc/avr/5.4.0/../../../../avr/lib/avrxmega2/memx-const/mapped\libm.a(floatsisf.o)
 .bss           0x0000000000000000        0x0 c:/program files/microchip/xc8/v2.40/avr/bin/../lib/gcc/avr/5.4.0/../../../../avr/lib/avrxmega2/memx-const/mapped\libm.a(floatsisf.o)
 .stack.descriptors
                0x0000000000000000       0x34 c:/program files/microchip/xc8/v2.40/avr/bin/../lib/gcc/avr/5.4.0/../../../../avr/lib/avrxmega2/memx-const/mapped\libm.a(floatsisf.o)
 .data          0x0000000000000000        0x0 c:/program files/microchip/xc8/v2.40/avr/bin/../lib/gcc/avr/5.4.0/../../../../avr/lib/avrxmega2/memx-const/mapped\libm.a(fp_inf.o)
 .bss           0x0000000000000000        0x0 c:/program files/microchip/xc8/v2.40/avr/bin/../lib/gcc/avr/5.4.0/../../../../avr/lib/avrxmega2/memx-const/mapped\libm.a(fp_inf.o)
 .stack.descriptors
                0x0000000000000000       0x16 c:/program files/microchip/xc8/v2.40/avr/bin/../lib/gcc/avr/5.4.0/../../../../avr/lib/avrxmega2/memx-const/mapped\libm.a(fp_inf.o)
 .data          0x0000000000000000        0x0 c:/program files/microchip/xc8/v2.40/avr/bin/../lib/gcc/avr/5.4.0/../../../../avr/lib/avrxmega2/memx-const/mapped\libm.a(fp_nan.o)
 .bss           0x0000000000000000        0x0 c:/program files/microchip/xc8/v2.40/avr/bin/../lib/gcc/avr/5.4.0/../../../../avr/lib/avrxmega2/memx-const/mapped\libm.a(fp_nan.o)
 .stack.descriptors
                0x0000000000000000       0x16 c:/program files/microchip/xc8/v2.40/avr/bin/../lib/gcc/avr/5.4.0/../../../../avr/lib/avrxmega2/memx-const/mapped\libm.a(fp_nan.o)
 .data          0x0000000000000000        0x0 c:/program files/microchip/xc8/v2.40/avr/bin/../lib/gcc/avr/5.4.0/../../../../avr/lib/avrxmega2/memx-const/mapped\libm.a(fp_pscA.o)
 .bss           0x0000000000000000        0x0 c:/program files/microchip/xc8/v2.40/avr/bin/../lib/gcc/avr/5.4.0/../../../../avr/lib/avrxmega2/memx-const/mapped\libm.a(fp_pscA.o)
 .stack.descriptors
                0x0000000000000000       0x17 c:/program files/microchip/xc8/v2.40/avr/bin/../lib/gcc/avr/5.4.0/../../../../avr/lib/avrxmega2/memx-const/mapped\libm.a(fp_pscA.o)
 .data          0x0000000000000000        0x0 c:/program files/microchip/xc8/v2.40/avr/bin/../lib/gcc/avr/5.4.0/../../../../avr/lib/avrxmega2/memx-const/mapped\libm.a(fp_pscB.o)
 .bss           0x0000000000000000        0x0 c:/program files/microchip/xc8/v2.40/avr/bin/../lib/gcc/avr/5.4.0/../../../../avr/lib/avrxmega2/memx-const/mapped\libm.a(fp_pscB.o)
 .stack.descriptors
                0x0000000000000000       0x17 c:/program files/microchip/xc8/v2.40/avr/bin/../lib/gcc/avr/5.4.0/../../../../avr/lib/avrxmega2/memx-const/mapped\libm.a(fp_pscB.o)
 .data          0x0000000000000000        0x0 c:/program files/microchip/xc8/v2.40/avr/bin/../lib/gcc/avr/5.4.0/../../../../avr/lib/avrxmega2/memx-const/mapped\libm.a(fp_round.o)
 .bss           0x0000000000000000        0x0 c:/program files/microchip/xc8/v2.40/avr/bin/../lib/gcc/avr/5.4.0/../../../../avr/lib/avrxmega2/memx-const/mapped\libm.a(fp_round.o)
 .stack.descriptors
                0x0000000000000000       0x18 c:/program files/microchip/xc8/v2.40/avr/bin/../lib/gcc/avr/5.4.0/../../../../avr/lib/avrxmega2/memx-const/mapped\libm.a(fp_round.o)
 .data          0x0000000000000000        0x0 c:/program files/microchip/xc8/v2.40/avr/bin/../lib/gcc/avr/5.4.0/../../../../avr/lib/avrxmega2/memx-const/mapped\libm.a(fp_split3.o)
 .bss           0x0000000000000000        0x0 c:/program files/microchip/xc8/v2.40/avr/bin/../lib/gcc/avr/5.4.0/../../../../avr/lib/avrxmega2/memx-const/mapped\libm.a(fp_split3.o)
 .stack.descriptors
                0x0000000000000000       0x32 c:/program files/microchip/xc8/v2.40/avr/bin/../lib/gcc/avr/5.4.0/../../../../avr/lib/avrxmega2/memx-const/mapped\libm.a(fp_split3.o)
 .data          0x0000000000000000        0x0 c:/program files/microchip/xc8/v2.40/avr/bin/../lib/gcc/avr/5.4.0/../../../../avr/lib/avrxmega2/memx-const/mapped\libm.a(fp_zero.o)
 .bss           0x0000000000000000        0x0 c:/program files/microchip/xc8/v2.40/avr/bin/../lib/gcc/avr/5.4.0/../../../../avr/lib/avrxmega2/memx-const/mapped\libm.a(fp_zero.o)
 .stack.descriptors
                0x0000000000000000       0x2f c:/program files/microchip/xc8/v2.40/avr/bin/../lib/gcc/avr/5.4.0/../../../../avr/lib/avrxmega2/memx-const/mapped\libm.a(fp_zero.o)
 .data          0x0000000000000000        0x0 c:/program files/microchip/xc8/v2.40/avr/bin/../lib/gcc/avr/5.4.0/../../../../avr/lib/avrxmega2/memx-const/mapped\libm.a(mulsf3.o)
 .bss           0x0000000000000000        0x0 c:/program files/microchip/xc8/v2.40/avr/bin/../lib/gcc/avr/5.4.0/../../../../avr/lib/avrxmega2/memx-const/mapped\libm.a(mulsf3.o)
 .stack.descriptors
                0x0000000000000000       0x16 c:/program files/microchip/xc8/v2.40/avr/bin/../lib/gcc/avr/5.4.0/../../../../avr/lib/avrxmega2/memx-const/mapped\libm.a(mulsf3.o)
 .data          0x0000000000000000        0x0 c:/program files/microchip/xc8/v2.40/avr/bin/../lib/gcc/avr/5.4.0/../../../../avr/lib/avrxmega2/memx-const/mapped\libm.a(mulsf3x.o)
 .bss           0x0000000000000000        0x0 c:/program files/microchip/xc8/v2.40/avr/bin/../lib/gcc/avr/5.4.0/../../../../avr/lib/avrxmega2/memx-const/mapped\libm.a(mulsf3x.o)
 .stack.descriptors
                0x0000000000000000       0x31 c:/program files/microchip/xc8/v2.40/avr/bin/../lib/gcc/avr/5.4.0/../../../../avr/lib/avrxmega2/memx-const/mapped\libm.a(mulsf3x.o)
 .text          0x0000000000000000        0x0 c:/program files/microchip/xc8/v2.40/avr/bin/../lib/gcc/avr/5.4.0/../../../../avr/lib/avrxmega2/memx-const/mapped\libm.a(powf.o)
 .data          0x0000000000000000        0x0 c:/program files/microchip/xc8/v2.40/avr/bin/../lib/gcc/avr/5.4.0/../../../../avr/lib/avrxmega2/memx-const/mapped\libm.a(powf.o)
 .bss           0x0000000000000000        0x0 c:/program files/microchip/xc8/v2.40/avr/bin/../lib/gcc/avr/5.4.0/../../../../avr/lib/avrxmega2/memx-const/mapped\libm.a(powf.o)
 .text          0x0000000000000000        0x0 c:/program files/microchip/xc8/v2.40/avr/bin/../lib/gcc/avr/5.4.0/../../../../avr/lib/avrxmega2/memx-const/mapped\libm.a(sqrtf.o)
 .data          0x0000000000000000        0x0 c:/program files/microchip/xc8/v2.40/avr/bin/../lib/gcc/avr/5.4.0/../../../../avr/lib/avrxmega2/memx-const/mapped\libm.a(sqrtf.o)
 .bss           0x0000000000000000        0x0 c:/program files/microchip/xc8/v2.40/avr/bin/../lib/gcc/avr/5.4.0/../../../../avr/lib/avrxmega2/memx-const/mapped\libm.a(sqrtf.o)
 .text          0x0000000000000000        0x0 c:/program files/microchip/xc8/v2.40/avr/bin/../lib/gcc/avr/5.4.0/../../../../avr/lib/avrxmega2/memx-const/mapped\libm.a(fabsf.o)
 .data          0x0000000000000000        0x0 c:/program files/microchip/xc8/v2.40/avr/bin/../lib/gcc/avr/5.4.0/../../../../avr/lib/avrxmega2/memx-const/mapped\libm.a(fabsf.o)
 .bss           0x0000000000000000        0x0 c:/program files/microchip/xc8/v2.40/avr/bin/../lib/gcc/avr/5.4.0/../../../../avr/lib/avrxmega2/memx-const/mapped\libm.a(fabsf.o)
 .text          0x0000000000000000        0x0 c:/program files/microchip/xc8/v2.40/avr/bin/../lib/gcc/avr/5.4.0/../../../../avr/lib/avrxmega2/memx-const/mapped\libm.a(scalbnf.o)
 .data          0x0000000000000000        0x0 c:/program files/microchip/xc8/v2.40/avr/bin/../lib/gcc/avr/5.4.0/../../../../avr/lib/avrxmega2/memx-const/mapped\libm.a(scalbnf.o)
 .bss           0x0000000000000000        0x0 c:/program files/microchip/xc8/v2.40/avr/bin/../lib/gcc/avr/5.4.0/../../../../avr/lib/avrxmega2/memx-const/mapped\libm.a(scalbnf.o)
 .data          0x0000000000000000        0x0 c:/program files/microchip/xc8/v2.40/avr/bin/../lib/gcc/avr/5.4.0/../../../../avr/lib/avrxmega2/memx-const/mapped\libm.a(cmpsf2.o)
 .bss           0x0000000000000000        0x0 c:/program files/microchip/xc8/v2.40/avr/bin/../lib/gcc/avr/5.4.0/../../../../avr/lib/avrxmega2/memx-const/mapped\libm.a(cmpsf2.o)
 .stack.descriptors
                0x0000000000000000       0x6a c:/program files/microchip/xc8/v2.40/avr/bin/../lib/gcc/avr/5.4.0/../../../../avr/lib/avrxmega2/memx-const/mapped\libm.a(cmpsf2.o)
 .data          0x0000000000000000        0x0 c:/program files/microchip/xc8/v2.40/avr/bin/../lib/gcc/avr/5.4.0/../../../../avr/lib/avrxmega2/memx-const/mapped\libm.a(fp_cmp.o)
 .bss           0x0000000000000000        0x0 c:/program files/microchip/xc8/v2.40/avr/bin/../lib/gcc/avr/5.4.0/../../../../avr/lib/avrxmega2/memx-const/mapped\libm.a(fp_cmp.o)
 .stack.descriptors
                0x0000000000000000       0x16 c:/program files/microchip/xc8/v2.40/avr/bin/../lib/gcc/avr/5.4.0/../../../../avr/lib/avrxmega2/memx-const/mapped\libm.a(fp_cmp.o)
 .data          0x0000000000000000        0x0 c:/program files/microchip/xc8/v2.40/avr/bin/../lib/gcc/avr/5.4.0/../../../../avr/lib/avrxmega2/memx-const/mapped\libm.a(gesf2.o)
 .bss           0x0000000000000000        0x0 c:/program files/microchip/xc8/v2.40/avr/bin/../lib/gcc/avr/5.4.0/../../../../avr/lib/avrxmega2/memx-const/mapped\libm.a(gesf2.o)
 .stack.descriptors
                0x0000000000000000       0x2a c:/program files/microchip/xc8/v2.40/avr/bin/../lib/gcc/avr/5.4.0/../../../../avr/lib/avrxmega2/memx-const/mapped\libm.a(gesf2.o)
 .text          0x0000000000000000        0x0 c:/program files/microchip/xc8/v2.40/avr/bin/../lib/gcc/avr/5.4.0/avrxmega2/memx-const/mapped\libgcc.a(_mulsi3.o)
 .data          0x0000000000000000        0x0 c:/program files/microchip/xc8/v2.40/avr/bin/../lib/gcc/avr/5.4.0/avrxmega2/memx-const/mapped\libgcc.a(_mulsi3.o)
 .bss           0x0000000000000000        0x0 c:/program files/microchip/xc8/v2.40/avr/bin/../lib/gcc/avr/5.4.0/avrxmega2/memx-const/mapped\libgcc.a(_mulsi3.o)
 .stack.descriptors
                0x0000000000000000       0x16 c:/program files/microchip/xc8/v2.40/avr/bin/../lib/gcc/avr/5.4.0/avrxmega2/memx-const/mapped\libgcc.a(_mulsi3.o)
 .text.libgcc.div
                0x0000000000000000        0x0 c:/program files/microchip/xc8/v2.40/avr/bin/../lib/gcc/avr/5.4.0/avrxmega2/memx-const/mapped\libgcc.a(_mulsi3.o)
 .text.libgcc   0x0000000000000000        0x0 c:/program files/microchip/xc8/v2.40/avr/bin/../lib/gcc/avr/5.4.0/avrxmega2/memx-const/mapped\libgcc.a(_mulsi3.o)
 .text.libgcc.prologue
                0x0000000000000000        0x0 c:/program files/microchip/xc8/v2.40/avr/bin/../lib/gcc/avr/5.4.0/avrxmega2/memx-const/mapped\libgcc.a(_mulsi3.o)
 .text.libgcc.builtins
                0x0000000000000000        0x0 c:/program files/microchip/xc8/v2.40/avr/bin/../lib/gcc/avr/5.4.0/avrxmega2/memx-const/mapped\libgcc.a(_mulsi3.o)
 .text.libgcc.fmul
                0x0000000000000000        0x0 c:/program files/microchip/xc8/v2.40/avr/bin/../lib/gcc/avr/5.4.0/avrxmega2/memx-const/mapped\libgcc.a(_mulsi3.o)
 .text.libgcc.fixed
                0x0000000000000000        0x0 c:/program files/microchip/xc8/v2.40/avr/bin/../lib/gcc/avr/5.4.0/avrxmega2/memx-const/mapped\libgcc.a(_mulsi3.o)
 .text          0x0000000000000000        0x0 c:/program files/microchip/xc8/v2.40/avr/bin/../lib/gcc/avr/5.4.0/avrxmega2/memx-const/mapped\libgcc.a(_udivmodsi4.o)
 .data          0x0000000000000000        0x0 c:/program files/microchip/xc8/v2.40/avr/bin/../lib/gcc/avr/5.4.0/avrxmega2/memx-const/mapped\libgcc.a(_udivmodsi4.o)
 .bss           0x0000000000000000        0x0 c:/program files/microchip/xc8/v2.40/avr/bin/../lib/gcc/avr/5.4.0/avrxmega2/memx-const/mapped\libgcc.a(_udivmodsi4.o)
 .text.libgcc.mul
                0x0000000000000000        0x0 c:/program files/microchip/xc8/v2.40/avr/bin/../lib/gcc/avr/5.4.0/avrxmega2/memx-const/mapped\libgcc.a(_udivmodsi4.o)
 .stack.descriptors
                0x0000000000000000       0x1a c:/program files/microchip/xc8/v2.40/avr/bin/../lib/gcc/avr/5.4.0/avrxmega2/memx-const/mapped\libgcc.a(_udivmodsi4.o)
 .text.libgcc   0x0000000000000000        0x0 c:/program files/microchip/xc8/v2.40/avr/bin/../lib/gcc/avr/5.4.0/avrxmega2/memx-const/mapped\libgcc.a(_udivmodsi4.o)
 .text.libgcc.prologue
                0x0000000000000000        0x0 c:/program files/microchip/xc8/v2.40/avr/bin/../lib/gcc/avr/5.4.0/avrxmega2/memx-const/mapped\libgcc.a(_udivmodsi4.o)
 .text.libgcc.builtins
                0x0000000000000000        0x0 c:/program files/microchip/xc8/v2.40/avr/bin/../lib/gcc/avr/5.4.0/avrxmega2/memx-const/mapped\libgcc.a(_udivmodsi4.o)
 .text.libgcc.fmul
                0x0000000000000000        0x0 c:/program files/microchip/xc8/v2.40/avr/bin/../lib/gcc/avr/5.4.0/avrxmega2/memx-const/mapped\libgcc.a(_udivmodsi4.o)
 .text.libgcc.fixed
                0x0000000000000000        0x0 c:/program files/microchip/xc8/v2.40/avr/bin/../lib/gcc/avr/5.4.0/avrxmega2/memx-const/mapped\libgcc.a(_udivmodsi4.o)
 .text          0x0000000000000000        0x0 c:/program files/microchip/xc8/v2.40/avr/bin/../lib/gcc/avr/5.4.0/avrxmega2/memx-const/mapped\libgcc.a(_tablejump2.o)
 .data          0x0000000000000000        0x0 c:/program files/microchip/xc8/v2.40/avr/bin/../lib/gcc/avr/5.4.0/avrxmega2/memx-const/mapped\libgcc.a(_tablejump2.o)
 .bss           0x0000000000000000        0x0 c:/program files/microchip/xc8/v2.40/avr/bin/../lib/gcc/avr/5.4.0/avrxmega2/memx-const/mapped\libgcc.a(_tablejump2.o)
 .text.libgcc.mul
                0x0000000000000000        0x0 c:/program files/microchip/xc8/v2.40/avr/bin/../lib/gcc/avr/5.4.0/avrxmega2/memx-const/mapped\libgcc.a(_tablejump2.o)
 .text.libgcc.div
                0x0000000000000000        0x0 c:/program files/microchip/xc8/v2.40/avr/bin/../lib/gcc/avr/5.4.0/avrxmega2/memx-const/mapped\libgcc.a(_tablejump2.o)
 .text.libgcc.prologue
                0x0000000000000000        0x0 c:/program files/microchip/xc8/v2.40/avr/bin/../lib/gcc/avr/5.4.0/avrxmega2/memx-const/mapped\libgcc.a(_tablejump2.o)
 .stack.descriptors
                0x0000000000000000       0x1c c:/program files/microchip/xc8/v2.40/avr/bin/../lib/gcc/avr/5.4.0/avrxmega2/memx-const/mapped\libgcc.a(_tablejump2.o)
 .text.libgcc.builtins
                0x0000000000000000        0x0 c:/program files/microchip/xc8/v2.40/avr/bin/../lib/gcc/avr/5.4.0/avrxmega2/memx-const/mapped\libgcc.a(_tablejump2.o)
 .text.libgcc.fmul
                0x0000000000000000        0x0 c:/program files/microchip/xc8/v2.40/avr/bin/../lib/gcc/avr/5.4.0/avrxmega2/memx-const/mapped\libgcc.a(_tablejump2.o)
 .text.libgcc.fixed
                0x0000000000000000        0x0 c:/program files/microchip/xc8/v2.40/avr/bin/../lib/gcc/avr/5.4.0/avrxmega2/memx-const/mapped\libgcc.a(_tablejump2.o)
 .text          0x0000000000000000        0x0 c:/program files/microchip/xc8/v2.40/avr/bin/../lib/gcc/avr/5.4.0/avrxmega2/memx-const/mapped\libgcc.a(_copy_data.o)
 .data          0x0000000000000000        0x0 c:/program files/microchip/xc8/v2.40/avr/bin/../lib/gcc/avr/5.4.0/avrxmega2/memx-const/mapped\libgcc.a(_copy_data.o)
 .bss           0x0000000000000000        0x0 c:/program files/microchip/xc8/v2.40/avr/bin/../lib/gcc/avr/5.4.0/avrxmega2/memx-const/mapped\libgcc.a(_copy_data.o)
 .text.libgcc.mul
                0x0000000000000000        0x0 c:/program files/microchip/xc8/v2.40/avr/bin/../lib/gcc/avr/5.4.0/avrxmega2/memx-const/mapped\libgcc.a(_copy_data.o)
 .text.libgcc.div
                0x0000000000000000        0x0 c:/program files/microchip/xc8/v2.40/avr/bin/../lib/gcc/avr/5.4.0/avrxmega2/memx-const/mapped\libgcc.a(_copy_data.o)
 .text.libgcc   0x0000000000000000        0x0 c:/program files/microchip/xc8/v2.40/avr/bin/../lib/gcc/avr/5.4.0/avrxmega2/memx-const/mapped\libgcc.a(_copy_data.o)
 .text.libgcc.prologue
                0x0000000000000000        0x0 c:/program files/microchip/xc8/v2.40/avr/bin/../lib/gcc/avr/5.4.0/avrxmega2/memx-const/mapped\libgcc.a(_copy_data.o)
 .text.libgcc.builtins
                0x0000000000000000        0x0 c:/program files/microchip/xc8/v2.40/avr/bin/../lib/gcc/avr/5.4.0/avrxmega2/memx-const/mapped\libgcc.a(_copy_data.o)
 .text.libgcc.fmul
                0x0000000000000000        0x0 c:/program files/microchip/xc8/v2.40/avr/bin/../lib/gcc/avr/5.4.0/avrxmega2/memx-const/mapped\libgcc.a(_copy_data.o)
 .text.libgcc.fixed
                0x0000000000000000        0x0 c:/program files/microchip/xc8/v2.40/avr/bin/../lib/gcc/avr/5.4.0/avrxmega2/memx-const/mapped\libgcc.a(_copy_data.o)
 .text          0x0000000000000000        0x0 c:/program files/microchip/xc8/v2.40/avr/bin/../lib/gcc/avr/5.4.0/avrxmega2/memx-const/mapped\libgcc.a(_muluhisi3.o)
 .data          0x0000000000000000        0x0 c:/program files/microchip/xc8/v2.40/avr/bin/../lib/gcc/avr/5.4.0/avrxmega2/memx-const/mapped\libgcc.a(_muluhisi3.o)
 .bss           0x0000000000000000        0x0 c:/program files/microchip/xc8/v2.40/avr/bin/../lib/gcc/avr/5.4.0/avrxmega2/memx-const/mapped\libgcc.a(_muluhisi3.o)
 .stack.descriptors
                0x0000000000000000       0x19 c:/program files/microchip/xc8/v2.40/avr/bin/../lib/gcc/avr/5.4.0/avrxmega2/memx-const/mapped\libgcc.a(_muluhisi3.o)
 .text.libgcc.div
                0x0000000000000000        0x0 c:/program files/microchip/xc8/v2.40/avr/bin/../lib/gcc/avr/5.4.0/avrxmega2/memx-const/mapped\libgcc.a(_muluhisi3.o)
 .text.libgcc   0x0000000000000000        0x0 c:/program files/microchip/xc8/v2.40/avr/bin/../lib/gcc/avr/5.4.0/avrxmega2/memx-const/mapped\libgcc.a(_muluhisi3.o)
 .text.libgcc.prologue
                0x0000000000000000        0x0 c:/program files/microchip/xc8/v2.40/avr/bin/../lib/gcc/avr/5.4.0/avrxmega2/memx-const/mapped\libgcc.a(_muluhisi3.o)
 .text.libgcc.builtins
                0x0000000000000000        0x0 c:/program files/microchip/xc8/v2.40/avr/bin/../lib/gcc/avr/5.4.0/avrxmega2/memx-const/mapped\libgcc.a(_muluhisi3.o)
 .text.libgcc.fmul
                0x0000000000000000        0x0 c:/program files/microchip/xc8/v2.40/avr/bin/../lib/gcc/avr/5.4.0/avrxmega2/memx-const/mapped\libgcc.a(_muluhisi3.o)
 .text.libgcc.fixed
                0x0000000000000000        0x0 c:/program files/microchip/xc8/v2.40/avr/bin/../lib/gcc/avr/5.4.0/avrxmega2/memx-const/mapped\libgcc.a(_muluhisi3.o)
 .text          0x0000000000000000        0x0 c:/program files/microchip/xc8/v2.40/avr/bin/../lib/gcc/avr/5.4.0/avrxmega2/memx-const/mapped\libgcc.a(_mulshisi3.o)
 .data          0x0000000000000000        0x0 c:/program files/microchip/xc8/v2.40/avr/bin/../lib/gcc/avr/5.4.0/avrxmega2/memx-const/mapped\libgcc.a(_mulshisi3.o)
 .bss           0x0000000000000000        0x0 c:/program files/microchip/xc8/v2.40/avr/bin/../lib/gcc/avr/5.4.0/avrxmega2/memx-const/mapped\libgcc.a(_mulshisi3.o)
 .stack.descriptors
                0x0000000000000000       0x32 c:/program files/microchip/xc8/v2.40/avr/bin/../lib/gcc/avr/5.4.0/avrxmega2/memx-const/mapped\libgcc.a(_mulshisi3.o)
 .text.libgcc.div
                0x0000000000000000        0x0 c:/program files/microchip/xc8/v2.40/avr/bin/../lib/gcc/avr/5.4.0/avrxmega2/memx-const/mapped\libgcc.a(_mulshisi3.o)
 .text.libgcc   0x0000000000000000        0x0 c:/program files/microchip/xc8/v2.40/avr/bin/../lib/gcc/avr/5.4.0/avrxmega2/memx-const/mapped\libgcc.a(_mulshisi3.o)
 .text.libgcc.prologue
                0x0000000000000000        0x0 c:/program files/microchip/xc8/v2.40/avr/bin/../lib/gcc/avr/5.4.0/avrxmega2/memx-const/mapped\libgcc.a(_mulshisi3.o)
 .text.libgcc.builtins
                0x0000000000000000        0x0 c:/program files/microchip/xc8/v2.40/avr/bin/../lib/gcc/avr/5.4.0/avrxmega2/memx-const/mapped\libgcc.a(_mulshisi3.o)
 .text.libgcc.fmul
                0x0000000000000000        0x0 c:/program files/microchip/xc8/v2.40/avr/bin/../lib/gcc/avr/5.4.0/avrxmega2/memx-const/mapped\libgcc.a(_mulshisi3.o)
 .text.libgcc.fixed
                0x0000000000000000        0x0 c:/program files/microchip/xc8/v2.40/avr/bin/../lib/gcc/avr/5.4.0/avrxmega2/memx-const/mapped\libgcc.a(_mulshisi3.o)
 .text          0x0000000000000000        0x0 c:/program files/microchip/xc8/v2.40/avr/bin/../lib/gcc/avr/5.4.0/avrxmega2/memx-const/mapped\libgcc.a(_prologue.o)
 .data          0x0000000000000000        0x0 c:/program files/microchip/xc8/v2.40/avr/bin/../lib/gcc/avr/5.4.0/avrxmega2/memx-const/mapped\libgcc.a(_prologue.o)
 .bss           0x0000000000000000        0x0 c:/program files/microchip/xc8/v2.40/avr/bin/../lib/gcc/avr/5.4.0/avrxmega2/memx-const/mapped\libgcc.a(_prologue.o)
 .text.libgcc.mul
                0x0000000000000000        0x0 c:/program files/microchip/xc8/v2.40/avr/bin/../lib/gcc/avr/5.4.0/avrxmega2/memx-const/mapped\libgcc.a(_prologue.o)
 .text.libgcc.div
                0x0000000000000000        0x0 c:/program files/microchip/xc8/v2.40/avr/bin/../lib/gcc/avr/5.4.0/avrxmega2/memx-const/mapped\libgcc.a(_prologue.o)
 .text.libgcc   0x0000000000000000        0x0 c:/program files/microchip/xc8/v2.40/avr/bin/../lib/gcc/avr/5.4.0/avrxmega2/memx-const/mapped\libgcc.a(_prologue.o)
 .text.libgcc.builtins
                0x0000000000000000        0x0 c:/program files/microchip/xc8/v2.40/avr/bin/../lib/gcc/avr/5.4.0/avrxmega2/memx-const/mapped\libgcc.a(_prologue.o)
 .text.libgcc.fmul
                0x0000000000000000        0x0 c:/program files/microchip/xc8/v2.40/avr/bin/../lib/gcc/avr/5.4.0/avrxmega2/memx-const/mapped\libgcc.a(_prologue.o)
 .text.libgcc.fixed
                0x0000000000000000        0x0 c:/program files/microchip/xc8/v2.40/avr/bin/../lib/gcc/avr/5.4.0/avrxmega2/memx-const/mapped\libgcc.a(_prologue.o)
 .text          0x0000000000000000        0x0 c:/program files/microchip/xc8/v2.40/avr/bin/../lib/gcc/avr/5.4.0/avrxmega2/memx-const/mapped\libgcc.a(_epilogue.o)
 .data          0x0000000000000000        0x0 c:/program files/microchip/xc8/v2.40/avr/bin/../lib/gcc/avr/5.4.0/avrxmega2/memx-const/mapped\libgcc.a(_epilogue.o)
 .bss           0x0000000000000000        0x0 c:/program files/microchip/xc8/v2.40/avr/bin/../lib/gcc/avr/5.4.0/avrxmega2/memx-const/mapped\libgcc.a(_epilogue.o)
 .text.libgcc.mul
                0x0000000000000000        0x0 c:/program files/microchip/xc8/v2.40/avr/bin/../lib/gcc/avr/5.4.0/avrxmega2/memx-const/mapped\libgcc.a(_epilogue.o)
 .text.libgcc.div
                0x0000000000000000        0x0 c:/program files/microchip/xc8/v2.40/avr/bin/../lib/gcc/avr/5.4.0/avrxmega2/memx-const/mapped\libgcc.a(_epilogue.o)
 .text.libgcc   0x0000000000000000        0x0 c:/program files/microchip/xc8/v2.40/avr/bin/../lib/gcc/avr/5.4.0/avrxmega2/memx-const/mapped\libgcc.a(_epilogue.o)
 .text.libgcc.builtins
                0x0000000000000000        0x0 c:/program files/microchip/xc8/v2.40/avr/bin/../lib/gcc/avr/5.4.0/avrxmega2/memx-const/mapped\libgcc.a(_epilogue.o)
 .text.libgcc.fmul
                0x0000000000000000        0x0 c:/program files/microchip/xc8/v2.40/avr/bin/../lib/gcc/avr/5.4.0/avrxmega2/memx-const/mapped\libgcc.a(_epilogue.o)
 .text.libgcc.fixed
                0x0000000000000000        0x0 c:/program files/microchip/xc8/v2.40/avr/bin/../lib/gcc/avr/5.4.0/avrxmega2/memx-const/mapped\libgcc.a(_epilogue.o)
 .text          0x0000000000000000        0x0 c:/program files/microchip/xc8/v2.40/avr/bin/../lib/gcc/avr/5.4.0/avrxmega2/memx-const/mapped\libgcc.a(_umulhisi3.o)
 .data          0x0000000000000000        0x0 c:/program files/microchip/xc8/v2.40/avr/bin/../lib/gcc/avr/5.4.0/avrxmega2/memx-const/mapped\libgcc.a(_umulhisi3.o)
 .bss           0x0000000000000000        0x0 c:/program files/microchip/xc8/v2.40/avr/bin/../lib/gcc/avr/5.4.0/avrxmega2/memx-const/mapped\libgcc.a(_umulhisi3.o)
 .stack.descriptors
                0x0000000000000000       0x19 c:/program files/microchip/xc8/v2.40/avr/bin/../lib/gcc/avr/5.4.0/avrxmega2/memx-const/mapped\libgcc.a(_umulhisi3.o)
 .text.libgcc.div
                0x0000000000000000        0x0 c:/program files/microchip/xc8/v2.40/avr/bin/../lib/gcc/avr/5.4.0/avrxmega2/memx-const/mapped\libgcc.a(_umulhisi3.o)
 .text.libgcc   0x0000000000000000        0x0 c:/program files/microchip/xc8/v2.40/avr/bin/../lib/gcc/avr/5.4.0/avrxmega2/memx-const/mapped\libgcc.a(_umulhisi3.o)
 .text.libgcc.prologue
                0x0000000000000000        0x0 c:/program files/microchip/xc8/v2.40/avr/bin/../lib/gcc/avr/5.4.0/avrxmega2/memx-const/mapped\libgcc.a(_umulhisi3.o)
 .text.libgcc.builtins
                0x0000000000000000        0x0 c:/program files/microchip/xc8/v2.40/avr/bin/../lib/gcc/avr/5.4.0/avrxmega2/memx-const/mapped\libgcc.a(_umulhisi3.o)
 .text.libgcc.fmul
                0x0000000000000000        0x0 c:/program files/microchip/xc8/v2.40/avr/bin/../lib/gcc/avr/5.4.0/avrxmega2/memx-const/mapped\libgcc.a(_umulhisi3.o)
 .text.libgcc.fixed
                0x0000000000000000        0x0 c:/program files/microchip/xc8/v2.40/avr/bin/../lib/gcc/avr/5.4.0/avrxmega2/memx-const/mapped\libgcc.a(_umulhisi3.o)
 .text          0x0000000000000000        0x0 c:/program files/microchip/xc8/v2.40/avr/bin/../lib/gcc/avr/5.4.0/../../../../avr/lib/avrxmega2/memx-const/mapped\libc.a(errno.o)
 .data          0x0000000000000000        0x0 c:/program files/microchip/xc8/v2.40/avr/bin/../lib/gcc/avr/5.4.0/../../../../avr/lib/avrxmega2/memx-const/mapped\libc.a(errno.o)
 .bss           0x0000000000000000        0x0 c:/program files/microchip/xc8/v2.40/avr/bin/../lib/gcc/avr/5.4.0/../../../../avr/lib/avrxmega2/memx-const/mapped\libc.a(errno.o)
 .text          0x0000000000000000        0x0 c:/program files/microchip/xc8/v2.40/avr/bin/../lib/gcc/avr/5.4.0/../../../../avr/lib/avrxmega2/memx-const/mapped\libc.a(exit.o)
 .data          0x0000000000000000        0x0 c:/program files/microchip/xc8/v2.40/avr/bin/../lib/gcc/avr/5.4.0/../../../../avr/lib/avrxmega2/memx-const/mapped\libc.a(exit.o)
 .bss           0x0000000000000000        0x0 c:/program files/microchip/xc8/v2.40/avr/bin/../lib/gcc/avr/5.4.0/../../../../avr/lib/avrxmega2/memx-const/mapped\libc.a(exit.o)
 .text          0x0000000000000000        0x0 c:/program files/microchip/xc8/v2.40/avr/bin/../lib/gcc/avr/5.4.0/../../../../avr/lib/avrxmega2/memx-const/mapped\libc.a(__sio_printf_dosux.o)
 .data          0x0000000000000000        0x0 c:/program files/microchip/xc8/v2.40/avr/bin/../lib/gcc/avr/5.4.0/../../../../avr/lib/avrxmega2/memx-const/mapped\libc.a(__sio_printf_dosux.o)
 .bss           0x0000000000000000        0x0 c:/program files/microchip/xc8/v2.40/avr/bin/../lib/gcc/avr/5.4.0/../../../../avr/lib/avrxmega2/memx-const/mapped\libc.a(__sio_printf_dosux.o)
 .text.__sio_printf_dosux
                0x0000000000000000       0x1a c:/program files/microchip/xc8/v2.40/avr/bin/../lib/gcc/avr/5.4.0/../../../../avr/lib/avrxmega2/memx-const/mapped\libc.a(__sio_printf_dosux.o)
 .text          0x0000000000000000        0x0 c:/program files/microchip/xc8/v2.40/avr/bin/../lib/gcc/avr/5.4.0/../../../../avr/lib/avrxmega2/memx-const/mapped\libc.a(__sio_printf_doux.o)
 .data          0x0000000000000000        0x0 c:/program files/microchip/xc8/v2.40/avr/bin/../lib/gcc/avr/5.4.0/../../../../avr/lib/avrxmega2/memx-const/mapped\libc.a(__sio_printf_doux.o)
 .bss           0x0000000000000000        0x0 c:/program files/microchip/xc8/v2.40/avr/bin/../lib/gcc/avr/5.4.0/../../../../avr/lib/avrxmega2/memx-const/mapped\libc.a(__sio_printf_doux.o)
 .text.__sio_printf_doux
                0x0000000000000000       0x1a c:/program files/microchip/xc8/v2.40/avr/bin/../lib/gcc/avr/5.4.0/../../../../avr/lib/avrxmega2/memx-const/mapped\libc.a(__sio_printf_doux.o)
 .text          0x0000000000000000        0x0 c:/program files/microchip/xc8/v2.40/avr/bin/../lib/gcc/avr/5.4.0/../../../../avr/lib/avrxmega2/memx-const/mapped\libc.a(__sio_printf_s.o)
 .data          0x0000000000000000        0x0 c:/program files/microchip/xc8/v2.40/avr/bin/../lib/gcc/avr/5.4.0/../../../../avr/lib/avrxmega2/memx-const/mapped\libc.a(__sio_printf_s.o)
 .bss           0x0000000000000000        0x0 c:/program files/microchip/xc8/v2.40/avr/bin/../lib/gcc/avr/5.4.0/../../../../avr/lib/avrxmega2/memx-const/mapped\libc.a(__sio_printf_s.o)
 .text.__sio_printf_s
                0x0000000000000000        0x6 c:/program files/microchip/xc8/v2.40/avr/bin/../lib/gcc/avr/5.4.0/../../../../avr/lib/avrxmega2/memx-const/mapped\libc.a(__sio_printf_s.o)
 .text          0x0000000000000000        0x0 c:/program files/microchip/xc8/v2.40/avr/bin/../lib/gcc/avr/5.4.0/../../../../avr/lib/avrxmega2/memx-const/mapped\libc.a(__sio_sprintf_doux.o)
 .data          0x0000000000000000        0x0 c:/program files/microchip/xc8/v2.40/avr/bin/../lib/gcc/avr/5.4.0/../../../../avr/lib/avrxmega2/memx-const/mapped\libc.a(__sio_sprintf_doux.o)
 .bss           0x0000000000000000        0x0 c:/program files/microchip/xc8/v2.40/avr/bin/../lib/gcc/avr/5.4.0/../../../../avr/lib/avrxmega2/memx-const/mapped\libc.a(__sio_sprintf_doux.o)
 .text.__sio_sprintf_doux
                0x0000000000000000       0x1a c:/program files/microchip/xc8/v2.40/avr/bin/../lib/gcc/avr/5.4.0/../../../../avr/lib/avrxmega2/memx-const/mapped\libc.a(__sio_sprintf_doux.o)
 .text          0x0000000000000000        0x0 c:/program files/microchip/xc8/v2.40/avr/bin/../lib/gcc/avr/5.4.0/../../../../avr/lib/avrxmega2/memx-const/mapped\libc.a(__fmt_d.o)
 .data          0x0000000000000000        0x0 c:/program files/microchip/xc8/v2.40/avr/bin/../lib/gcc/avr/5.4.0/../../../../avr/lib/avrxmega2/memx-const/mapped\libc.a(__fmt_d.o)
 .bss           0x0000000000000000        0x0 c:/program files/microchip/xc8/v2.40/avr/bin/../lib/gcc/avr/5.4.0/../../../../avr/lib/avrxmega2/memx-const/mapped\libc.a(__fmt_d.o)
 .text          0x0000000000000000        0x0 c:/program files/microchip/xc8/v2.40/avr/bin/../lib/gcc/avr/5.4.0/../../../../avr/lib/avrxmega2/memx-const/mapped\libc.a(__fmt_o.o)
 .data          0x0000000000000000        0x0 c:/program files/microchip/xc8/v2.40/avr/bin/../lib/gcc/avr/5.4.0/../../../../avr/lib/avrxmega2/memx-const/mapped\libc.a(__fmt_o.o)
 .bss           0x0000000000000000        0x0 c:/program files/microchip/xc8/v2.40/avr/bin/../lib/gcc/avr/5.4.0/../../../../avr/lib/avrxmega2/memx-const/mapped\libc.a(__fmt_o.o)
 .text          0x0000000000000000        0x0 c:/program files/microchip/xc8/v2.40/avr/bin/../lib/gcc/avr/5.4.0/../../../../avr/lib/avrxmega2/memx-const/mapped\libc.a(__fmt_s.o)
 .data          0x0000000000000000        0x0 c:/program files/microchip/xc8/v2.40/avr/bin/../lib/gcc/avr/5.4.0/../../../../avr/lib/avrxmega2/memx-const/mapped\libc.a(__fmt_s.o)
 .bss           0x0000000000000000        0x0 c:/program files/microchip/xc8/v2.40/avr/bin/../lib/gcc/avr/5.4.0/../../../../avr/lib/avrxmega2/memx-const/mapped\libc.a(__fmt_s.o)
 .text          0x0000000000000000        0x0 c:/program files/microchip/xc8/v2.40/avr/bin/../lib/gcc/avr/5.4.0/../../../../avr/lib/avrxmega2/memx-const/mapped\libc.a(__fmt_u.o)
 .data          0x0000000000000000        0x0 c:/program files/microchip/xc8/v2.40/avr/bin/../lib/gcc/avr/5.4.0/../../../../avr/lib/avrxmega2/memx-const/mapped\libc.a(__fmt_u.o)
 .bss           0x0000000000000000        0x0 c:/program files/microchip/xc8/v2.40/avr/bin/../lib/gcc/avr/5.4.0/../../../../avr/lib/avrxmega2/memx-const/mapped\libc.a(__fmt_u.o)
 .text          0x0000000000000000        0x0 c:/program files/microchip/xc8/v2.40/avr/bin/../lib/gcc/avr/5.4.0/../../../../avr/lib/avrxmega2/memx-const/mapped\libc.a(__fmt_x.o)
 .data          0x0000000000000000        0x0 c:/program files/microchip/xc8/v2.40/avr/bin/../lib/gcc/avr/5.4.0/../../../../avr/lib/avrxmega2/memx-const/mapped\libc.a(__fmt_x.o)
 .bss           0x0000000000000000        0x0 c:/program files/microchip/xc8/v2.40/avr/bin/../lib/gcc/avr/5.4.0/../../../../avr/lib/avrxmega2/memx-const/mapped\libc.a(__fmt_x.o)
 .text          0x0000000000000000        0x0 c:/program files/microchip/xc8/v2.40/avr/bin/../lib/gcc/avr/5.4.0/../../../../avr/lib/avrxmega2/memx-const/mapped\libc.a(__pop_int.o)
 .data          0x0000000000000000        0x0 c:/program files/microchip/xc8/v2.40/avr/bin/../lib/gcc/avr/5.4.0/../../../../avr/lib/avrxmega2/memx-const/mapped\libc.a(__pop_int.o)
 .bss           0x0000000000000000        0x0 c:/program files/microchip/xc8/v2.40/avr/bin/../lib/gcc/avr/5.4.0/../../../../avr/lib/avrxmega2/memx-const/mapped\libc.a(__pop_int.o)
 .text          0x0000000000000000        0x0 c:/program files/microchip/xc8/v2.40/avr/bin/../lib/gcc/avr/5.4.0/../../../../avr/lib/avrxmega2/memx-const/mapped\libc.a(__printf_core.o)
 .data          0x0000000000000000        0x0 c:/program files/microchip/xc8/v2.40/avr/bin/../lib/gcc/avr/5.4.0/../../../../avr/lib/avrxmega2/memx-const/mapped\libc.a(__printf_core.o)
 .bss           0x0000000000000000        0x0 c:/program files/microchip/xc8/v2.40/avr/bin/../lib/gcc/avr/5.4.0/../../../../avr/lib/avrxmega2/memx-const/mapped\libc.a(__printf_core.o)
 .text          0x0000000000000000        0x0 c:/program files/microchip/xc8/v2.40/avr/bin/../lib/gcc/avr/5.4.0/../../../../avr/lib/avrxmega2/memx-const/mapped\libc.a(fputc.o)
 .data          0x0000000000000000        0x0 c:/program files/microchip/xc8/v2.40/avr/bin/../lib/gcc/avr/5.4.0/../../../../avr/lib/avrxmega2/memx-const/mapped\libc.a(fputc.o)
 .bss           0x0000000000000000        0x0 c:/program files/microchip/xc8/v2.40/avr/bin/../lib/gcc/avr/5.4.0/../../../../avr/lib/avrxmega2/memx-const/mapped\libc.a(fputc.o)
 .text          0x0000000000000000        0x0 c:/program files/microchip/xc8/v2.40/avr/bin/../lib/gcc/avr/5.4.0/../../../../avr/lib/avrxmega2/memx-const/mapped\libc.a(puts.o)
 .data          0x0000000000000000        0x0 c:/program files/microchip/xc8/v2.40/avr/bin/../lib/gcc/avr/5.4.0/../../../../avr/lib/avrxmega2/memx-const/mapped\libc.a(puts.o)
 .bss           0x0000000000000000        0x0 c:/program files/microchip/xc8/v2.40/avr/bin/../lib/gcc/avr/5.4.0/../../../../avr/lib/avrxmega2/memx-const/mapped\libc.a(puts.o)
 .text          0x0000000000000000        0x0 c:/program files/microchip/xc8/v2.40/avr/bin/../lib/gcc/avr/5.4.0/../../../../avr/lib/avrxmega2/memx-const/mapped\libc.a(stdout.o)
 .data          0x0000000000000000        0x0 c:/program files/microchip/xc8/v2.40/avr/bin/../lib/gcc/avr/5.4.0/../../../../avr/lib/avrxmega2/memx-const/mapped\libc.a(stdout.o)
 .bss           0x0000000000000000        0x0 c:/program files/microchip/xc8/v2.40/avr/bin/../lib/gcc/avr/5.4.0/../../../../avr/lib/avrxmega2/memx-const/mapped\libc.a(stdout.o)
 .text.__init_stdout
                0x0000000000000000       0x1e c:/program files/microchip/xc8/v2.40/avr/bin/../lib/gcc/avr/5.4.0/../../../../avr/lib/avrxmega2/memx-const/mapped\libc.a(stdout.o)
 .data.f        0x0000000000000000       0x10 c:/program files/microchip/xc8/v2.40/avr/bin/../lib/gcc/avr/5.4.0/../../../../avr/lib/avrxmega2/memx-const/mapped\libc.a(stdout.o)
 COMMON         0x0000000000000000        0x2 c:/program files/microchip/xc8/v2.40/avr/bin/../lib/gcc/avr/5.4.0/../../../../avr/lib/avrxmega2/memx-const/mapped\libc.a(stdout.o)
 .text          0x0000000000000000        0x0 c:/program files/microchip/xc8/v2.40/avr/bin/../lib/gcc/avr/5.4.0/../../../../avr/lib/avrxmega2/memx-const/mapped\libc.a(strlen.o)
 .data          0x0000000000000000        0x0 c:/program files/microchip/xc8/v2.40/avr/bin/../lib/gcc/avr/5.4.0/../../../../avr/lib/avrxmega2/memx-const/mapped\libc.a(strlen.o)
 .bss           0x0000000000000000        0x0 c:/program files/microchip/xc8/v2.40/avr/bin/../lib/gcc/avr/5.4.0/../../../../avr/lib/avrxmega2/memx-const/mapped\libc.a(strlen.o)
 .text          0x0000000000000000        0x0 c:/program files/microchip/xc8/v2.40/avr/bin/../lib/gcc/avr/5.4.0/../../../../avr/lib/avrxmega2/memx-const/mapped\libc.a(tolower.o)
 .data          0x0000000000000000        0x0 c:/program files/microchip/xc8/v2.40/avr/bin/../lib/gcc/avr/5.4.0/../../../../avr/lib/avrxmega2/memx-const/mapped\libc.a(tolower.o)
 .bss           0x0000000000000000        0x0 c:/program files/microchip/xc8/v2.40/avr/bin/../lib/gcc/avr/5.4.0/../../../../avr/lib/avrxmega2/memx-const/mapped\libc.a(tolower.o)
 .text.__tolower_l
                0x0000000000000000        0x6 c:/program files/microchip/xc8/v2.40/avr/bin/../lib/gcc/avr/5.4.0/../../../../avr/lib/avrxmega2/memx-const/mapped\libc.a(tolower.o)
 .text          0x0000000000000000        0x0 c:/program files/microchip/xc8/v2.40/avr/bin/../lib/gcc/avr/5.4.0/../../../../avr/lib/avrxmega2/memx-const/mapped\libc.a(toupper.o)
 .data          0x0000000000000000        0x0 c:/program files/microchip/xc8/v2.40/avr/bin/../lib/gcc/avr/5.4.0/../../../../avr/lib/avrxmega2/memx-const/mapped\libc.a(toupper.o)
 .bss           0x0000000000000000        0x0 c:/program files/microchip/xc8/v2.40/avr/bin/../lib/gcc/avr/5.4.0/../../../../avr/lib/avrxmega2/memx-const/mapped\libc.a(toupper.o)
 .text.__toupper_l
                0x0000000000000000        0x6 c:/program files/microchip/xc8/v2.40/avr/bin/../lib/gcc/avr/5.4.0/../../../../avr/lib/avrxmega2/memx-const/mapped\libc.a(toupper.o)
 .text          0x0000000000000000        0x0 c:/program files/microchip/xc8/v2.40/avr/bin/../lib/gcc/avr/5.4.0/../../../../avr/lib/avrxmega2/memx-const/mapped\libc.a(_Exit.o)
 .data          0x0000000000000000        0x0 c:/program files/microchip/xc8/v2.40/avr/bin/../lib/gcc/avr/5.4.0/../../../../avr/lib/avrxmega2/memx-const/mapped\libc.a(_Exit.o)
 .bss           0x0000000000000000        0x0 c:/program files/microchip/xc8/v2.40/avr/bin/../lib/gcc/avr/5.4.0/../../../../avr/lib/avrxmega2/memx-const/mapped\libc.a(_Exit.o)
 .text          0x0000000000000000        0x0 c:/program files/microchip/xc8/v2.40/avr/bin/../lib/gcc/avr/5.4.0/../../../../avr/lib/avrxmega2/memx-const/mapped\libc.a(__int_vfprintf.o)
 .data          0x0000000000000000        0x0 c:/program files/microchip/xc8/v2.40/avr/bin/../lib/gcc/avr/5.4.0/../../../../avr/lib/avrxmega2/memx-const/mapped\libc.a(__int_vfprintf.o)
 .bss           0x0000000000000000        0x0 c:/program files/microchip/xc8/v2.40/avr/bin/../lib/gcc/avr/5.4.0/../../../../avr/lib/avrxmega2/memx-const/mapped\libc.a(__int_vfprintf.o)
 .text          0x0000000000000000        0x0 c:/program files/microchip/xc8/v2.40/avr/bin/../lib/gcc/avr/5.4.0/../../../../avr/lib/avrxmega2/memx-const/mapped\libc.a(__int_vsprintf.o)
 .data          0x0000000000000000        0x0 c:/program files/microchip/xc8/v2.40/avr/bin/../lib/gcc/avr/5.4.0/../../../../avr/lib/avrxmega2/memx-const/mapped\libc.a(__int_vsprintf.o)
 .bss           0x0000000000000000        0x0 c:/program files/microchip/xc8/v2.40/avr/bin/../lib/gcc/avr/5.4.0/../../../../avr/lib/avrxmega2/memx-const/mapped\libc.a(__int_vsprintf.o)
 .text          0x0000000000000000        0x0 c:/program files/microchip/xc8/v2.40/avr/bin/../lib/gcc/avr/5.4.0/../../../../avr/lib/avrxmega2/memx-const/mapped\libc.a(__int_vsnprintf.o)
 .data          0x0000000000000000        0x0 c:/program files/microchip/xc8/v2.40/avr/bin/../lib/gcc/avr/5.4.0/../../../../avr/lib/avrxmega2/memx-const/mapped\libc.a(__int_vsnprintf.o)
 .bss           0x0000000000000000        0x0 c:/program files/microchip/xc8/v2.40/avr/bin/../lib/gcc/avr/5.4.0/../../../../avr/lib/avrxmega2/memx-const/mapped\libc.a(__int_vsnprintf.o)
 .text          0x0000000000000000        0x0 c:/program files/microchip/xc8/v2.40/avr/bin/../lib/gcc/avr/5.4.0/../../../../avr/lib/avrxmega2/memx-const/mapped\libc.a(fputs.o)
 .data          0x0000000000000000        0x0 c:/program files/microchip/xc8/v2.40/avr/bin/../lib/gcc/avr/5.4.0/../../../../avr/lib/avrxmega2/memx-const/mapped\libc.a(fputs.o)
 .bss           0x0000000000000000        0x0 c:/program files/microchip/xc8/v2.40/avr/bin/../lib/gcc/avr/5.4.0/../../../../avr/lib/avrxmega2/memx-const/mapped\libc.a(fputs.o)
 .text          0x0000000000000000        0x0 c:/program files/microchip/xc8/v2.40/avr/bin/../lib/gcc/avr/5.4.0/avrxmega2/memx-const/mapped\libgcc.a(_exit.o)
 .data          0x0000000000000000        0x0 c:/program files/microchip/xc8/v2.40/avr/bin/../lib/gcc/avr/5.4.0/avrxmega2/memx-const/mapped\libgcc.a(_exit.o)
 .bss           0x0000000000000000        0x0 c:/program files/microchip/xc8/v2.40/avr/bin/../lib/gcc/avr/5.4.0/avrxmega2/memx-const/mapped\libgcc.a(_exit.o)
 .text.libgcc.mul
                0x0000000000000000        0x0 c:/program files/microchip/xc8/v2.40/avr/bin/../lib/gcc/avr/5.4.0/avrxmega2/memx-const/mapped\libgcc.a(_exit.o)
 .text.libgcc.div
                0x0000000000000000        0x0 c:/program files/microchip/xc8/v2.40/avr/bin/../lib/gcc/avr/5.4.0/avrxmega2/memx-const/mapped\libgcc.a(_exit.o)
 .text.libgcc   0x0000000000000000        0x0 c:/program files/microchip/xc8/v2.40/avr/bin/../lib/gcc/avr/5.4.0/avrxmega2/memx-const/mapped\libgcc.a(_exit.o)
 .text.libgcc.prologue
                0x0000000000000000        0x0 c:/program files/microchip/xc8/v2.40/avr/bin/../lib/gcc/avr/5.4.0/avrxmega2/memx-const/mapped\libgcc.a(_exit.o)
 .stack.descriptors
                0x0000000000000000       0x13 c:/program files/microchip/xc8/v2.40/avr/bin/../lib/gcc/avr/5.4.0/avrxmega2/memx-const/mapped\libgcc.a(_exit.o)
 .text.libgcc.builtins
                0x0000000000000000        0x0 c:/program files/microchip/xc8/v2.40/avr/bin/../lib/gcc/avr/5.4.0/avrxmega2/memx-const/mapped\libgcc.a(_exit.o)
 .text.libgcc.fmul
                0x0000000000000000        0x0 c:/program files/microchip/xc8/v2.40/avr/bin/../lib/gcc/avr/5.4.0/avrxmega2/memx-const/mapped\libgcc.a(_exit.o)
 .text.libgcc.fixed
                0x0000000000000000        0x0 c:/program files/microchip/xc8/v2.40/avr/bin/../lib/gcc/avr/5.4.0/avrxmega2/memx-const/mapped\libgcc.a(_exit.o)

Memory Configuration

Name             Origin             Length             Attributes
text             0x0000000000000000 0x0000000000010000 xr
data             0x0000000000806000 0x0000000000002000 rw !x
eeprom           0x0000000000810000 0x0000000000000100 rw !x
fuse             0x0000000000820000 0x0000000000000010 rw !x
lock             0x0000000000830000 0x0000000000000400 rw !x
signature        0x0000000000840000 0x0000000000000400 rw !x
user_signatures  0x0000000000850000 0x0000000000000400 rw !x
*default*        0x0000000000000000 0xffffffffffffffff

Linker script and memory map

Address of section .data set to 0x806000
                0x0000000000008000                __RODATA_PM_OFFSET__ = 0x8000
LOAD C:/Users/C70348/.mchp_packs/Microchip/AVR-Dx_DFP/2.1.152/xc8/avr/lib/avrxmega2/memx-const/mapped/crtavr64dd32.o
                0x0000000000000001                __MPLAB_BUILD = 0x1
LOAD build/free/production/mcc_generated_files/adc/src/adc0.o
LOAD build/free/production/mcc_generated_files/evsys/src/evsys.o
LOAD build/free/production/mcc_generated_files/system/src/clock.o
LOAD build/free/production/mcc_generated_files/system/src/system.o
LOAD build/free/production/mcc_generated_files/system/src/config_bits.o
LOAD build/free/production/mcc_generated_files/system/src/pins.o
LOAD build/free/production/mcc_generated_files/system/src/protected_io.o
LOAD build/free/production/mcc_generated_files/system/src/interrupt.o
LOAD build/free/production/mcc_generated_files/timer/src/tcb0.o
LOAD build/free/production/mcc_generated_files/timer/src/rtc.o
LOAD build/free/production/mcc_generated_files/timer/src/tcb1.o
LOAD build/free/production/mcc_generated_files/uart/src/usart0.o
LOAD build/free/production/mcc_generated_files/uart/src/usart1.o
LOAD build/free/production/mcc_generated_files/vref/src/vref.o
LOAD build/free/production/main.o
LOAD build/free/production/application.o
LOAD build/free/production/TWI.o
LOAD build/free/production/bme280.o
LOAD build/free/production/ringBuffer.o
LOAD build/free/production/RN2xx3.o
START GROUP
LOAD c:/program files/microchip/xc8/v2.40/avr/bin/../lib/gcc/avr/5.4.0/../../../../avr/lib/avrxmega2/memx-const/mapped\libm.a
END GROUP
START GROUP
LOAD c:/program files/microchip/xc8/v2.40/avr/bin/../lib/gcc/avr/5.4.0/avrxmega2/memx-const/mapped\libgcc.a
LOAD c:/program files/microchip/xc8/v2.40/avr/bin/../lib/gcc/avr/5.4.0/../../../../avr/lib/avrxmega2/memx-const/mapped\libm.a
LOAD c:/program files/microchip/xc8/v2.40/avr/bin/../lib/gcc/avr/5.4.0/../../../../avr/lib/avrxmega2/memx-const/mapped\libc.a
LOAD C:/Users/C70348/.mchp_packs/Microchip/AVR-Dx_DFP/2.1.152/xc8/avr/lib/avrxmega2/memx-const/mapped\libavr64dd32.a
END GROUP
                [0x0000000000000000]                __TEXT_REGION_ORIGIN__ = DEFINED (__TEXT_REGION_ORIGIN__)?__TEXT_REGION_ORIGIN__:0x0
                [0x0000000000806000]                __DATA_REGION_ORIGIN__ = DEFINED (__DATA_REGION_ORIGIN__)?__DATA_REGION_ORIGIN__:0x802000
                [0x0000000000010000]                __TEXT_REGION_LENGTH__ = DEFINED (__TEXT_REGION_LENGTH__)?__TEXT_REGION_LENGTH__:0x100000
                [0x0000000000002000]                __DATA_REGION_LENGTH__ = DEFINED (__DATA_REGION_LENGTH__)?__DATA_REGION_LENGTH__:0xffa0
                [0x0000000000000100]                __EEPROM_REGION_LENGTH__ = DEFINED (__EEPROM_REGION_LENGTH__)?__EEPROM_REGION_LENGTH__:0x10000
                [0x0000000000000010]                __FUSE_REGION_LENGTH__ = DEFINED (__FUSE_REGION_LENGTH__)?__FUSE_REGION_LENGTH__:0x400
                0x0000000000000400                __LOCK_REGION_LENGTH__ = DEFINED (__LOCK_REGION_LENGTH__)?__LOCK_REGION_LENGTH__:0x400
                0x0000000000000400                __SIGNATURE_REGION_LENGTH__ = DEFINED (__SIGNATURE_REGION_LENGTH__)?__SIGNATURE_REGION_LENGTH__:0x400
                0x0000000000000400                __USER_SIGNATURE_REGION_LENGTH__ = DEFINED (__USER_SIGNATURE_REGION_LENGTH__)?__USER_SIGNATURE_REGION_LENGTH__:0x400

.hash
 *(.hash)

.dynsym
 *(.dynsym)

.dynstr
 *(.dynstr)

.gnu.version
 *(.gnu.version)

.gnu.version_d
 *(.gnu.version_d)

.gnu.version_r
 *(.gnu.version_r)

.rel.init
 *(.rel.init)

.rela.init
 *(.rela.init)

.rel.text
 *(.rel.text)
 *(.rel.text.*)
 *(.rel.gnu.linkonce.t*)

.rela.text
 *(.rela.text)
 *(.rela.text.*)
 *(.rela.gnu.linkonce.t*)

.rel.fini
 *(.rel.fini)

.rela.fini
 *(.rela.fini)

.rel.rodata
 *(.rel.rodata)
 *(.rel.rodata.*)
 *(.rel.gnu.linkonce.r*)

.rela.rodata
 *(.rela.rodata)
 *(.rela.rodata.*)
 *(.rela.gnu.linkonce.r*)

.rel.data
 *(.rel.data)
 *(.rel.data.*)
 *(.rel.gnu.linkonce.d*)

.rela.data
 *(.rela.data)
 *(.rela.data.*)
 *(.rela.gnu.linkonce.d*)

.rel.ctors
 *(.rel.ctors)

.rela.ctors
 *(.rela.ctors)

.rel.dtors
 *(.rel.dtors)

.rela.dtors
 *(.rela.dtors)

.rel.got
 *(.rel.got)

.rela.got
 *(.rela.got)

.rel.bss
 *(.rel.bss)

.rela.bss
 *(.rela.bss)

.rel.plt
 *(.rel.plt)

.rela.plt
 *(.rela.plt)

.text           0x0000000000000000      0x134
 *(.vectors)
 .vectors       0x0000000000000000       0x90 C:/Users/C70348/.mchp_packs/Microchip/AVR-Dx_DFP/2.1.152/xc8/avr/lib/avrxmega2/memx-const/mapped/crtavr64dd32.o
                0x0000000000000000                __vector_default
                0x0000000000000000                __vectors
 *(.vectors)
 *(.progmem.gcc*)
 .progmem.gcc_sw_table.stateMachine
                0x0000000000000090       0x18 build/free/production/application.o
 *(.dinit)
 .dinit         0x00000000000000a8       0x29 data_init
                0x00000000000000d2                . = ALIGN (0x2)
 *fill*         0x00000000000000d1        0x1 
                0x00000000000000d2                __trampolines_start = .
 *(.trampolines)
 .trampolines   0x00000000000000d2        0x0 linker stubs
 *(.trampolines*)
                0x00000000000000d2                __trampolines_end = .
 *libprintf_flt.a:*(.progmem.data)
 *libc.a:*(.progmem.data)
                0x00000000000000d2                . = ALIGN (0x2)
 *(.jumptables)
 *(.jumptables*)
 *(.lowtext)
 *(.lowtext*)
                0x00000000000000d2                __ctors_start = .
 *(.ctors)
                0x00000000000000d2                __ctors_end = .
                0x00000000000000d2                __dtors_start = .
 *(.dtors)
                0x00000000000000d2                __dtors_end = .
 SORT(*)(.ctors)
 SORT(*)(.dtors)
 *(.init0)
 .init0         0x00000000000000d2        0x0 C:/Users/C70348/.mchp_packs/Microchip/AVR-Dx_DFP/2.1.152/xc8/avr/lib/avrxmega2/memx-const/mapped/crtavr64dd32.o
                0x00000000000000d2                __init
 *(.init0)
 *(.init1)
 .init1         0x00000000000000d2        0xe C:/Users/C70348/.mchp_packs/Microchip/AVR-Dx_DFP/2.1.152/xc8/avr/lib/avrxmega2/memx-const/mapped/crtavr64dd32.o
 *(.init1)
 *(.init2)
 .init2         0x00000000000000e0        0xc C:/Users/C70348/.mchp_packs/Microchip/AVR-Dx_DFP/2.1.152/xc8/avr/lib/avrxmega2/memx-const/mapped/crtavr64dd32.o
 *(.init2)
 *(.init3)
 *(.init3)
 *(.init4)
 .init4         0x00000000000000ec       0x3c c:/program files/microchip/xc8/v2.40/avr/bin/../lib/gcc/avr/5.4.0/avrxmega2/memx-const/mapped\libgcc.a(_copy_data.o)
                0x00000000000000ec                __do_copy_data
                0x000000000000011a                __do_clear_bss
 *(.init4)
 *(.init5)
 *(.init5)
 *(.init6)
 *(.init6)
 *(.init7)
 *(.init7)
 *(.init8)
 *(.init8)
 *(.init9)
 .init9         0x0000000000000128        0x8 C:/Users/C70348/.mchp_packs/Microchip/AVR-Dx_DFP/2.1.152/xc8/avr/lib/avrxmega2/memx-const/mapped/crtavr64dd32.o
 *(.init9)
                0x0000000000000130                . = ALIGN (0x2)
 *(.fini9)
 .fini9         0x0000000000000130        0x0 c:/program files/microchip/xc8/v2.40/avr/bin/../lib/gcc/avr/5.4.0/avrxmega2/memx-const/mapped\libgcc.a(_exit.o)
                0x0000000000000130                _exit
 *(.fini9)
 *(.fini8)
 *(.fini8)
 *(.fini7)
 *(.fini7)
 *(.fini6)
 *(.fini6)
 *(.fini5)
 *(.fini5)
 *(.fini4)
 *(.fini4)
 *(.fini3)
 *(.fini3)
 *(.fini2)
 *(.fini2)
 *(.fini1)
 *(.fini1)
 *(.fini0)
 .fini0         0x0000000000000130        0x4 c:/program files/microchip/xc8/v2.40/avr/bin/../lib/gcc/avr/5.4.0/avrxmega2/memx-const/mapped\libgcc.a(_exit.o)
 *(.fini0)
                0x0000000000000134                _etext = .

.data           0x0000000000806000        0x0 load address 0x0000000000000134
                [!provide]                        PROVIDE (__data_start, .)
 *(.gnu.linkonce.d*)
 *(.gnu.linkonce.r*)
                0x0000000000806000                . = ALIGN (0x2)
                0x0000000000806000                _edata = .
                [!provide]                        PROVIDE (__data_end, .)

.bss            0x0000000000806000        0x2
                [!provide]                        PROVIDE (__bss_start, .)
 *(COMMON)
 COMMON         0x0000000000806000        0x2 c:/program files/microchip/xc8/v2.40/avr/bin/../lib/gcc/avr/5.4.0/../../../../avr/lib/avrxmega2/memx-const/mapped\libc.a(errno.o)
                0x0000000000806000                __errno_val
                [!provide]                        PROVIDE (__bss_end, .)
                0x0000000000000134                __data_load_start = LOADADDR (.data)
                0x0000000000000134                __data_load_end = (__data_load_start + SIZEOF (.data))

.noinit         0x0000000000806002        0x0
                [!provide]                        PROVIDE (__noinit_start, .)
 *(.noinit*)
                [!provide]                        PROVIDE (__noinit_end, .)
                0x0000000000806002                _end = .

.eeprom         0x0000000000810000        0x0
 *(.eeprom*)
                0x0000000000810000                __eeprom_end = .

.fuse           0x0000000000820000        0x9
 *(.fuse)
 .fuse          0x0000000000820000        0x9 build/free/production/mcc_generated_files/system/src/config_bits.o
                0x0000000000820000                __fuse
 *(.lfuse)
 *(.hfuse)
 *(.efuse)

.lock
 *(.lock*)

.signature
 *(.signature*)

.user_signatures
 *(.user_signatures*)

.stab
 *(.stab)

.stabstr
 *(.stabstr)

.stab.excl
 *(.stab.excl)

.stab.exclstr
 *(.stab.exclstr)

.stab.index
 *(.stab.index)

.stab.indexstr
 *(.stab.indexstr)

.comment        0x0000000000000000       0x2f
 *(.comment)
 .comment       0x0000000000000000       0x2f build/free/production/mcc_generated_files/adc/src/adc0.o
                                         0x30 (size before relaxing)
 .comment       0x000000000000002f       0x30 build/free/production/mcc_generated_files/evsys/src/evsys.o
 .comment       0x000000000000002f       0x30 build/free/production/mcc_generated_files/system/src/clock.o
 .comment       0x000000000000002f       0x30 build/free/production/mcc_generated_files/system/src/system.o
 .comment       0x000000000000002f       0x30 build/free/production/mcc_generated_files/system/src/config_bits.o
 .comment       0x000000000000002f       0x30 build/free/production/mcc_generated_files/system/src/pins.o
 .comment       0x000000000000002f       0x30 build/free/production/mcc_generated_files/system/src/interrupt.o
 .comment       0x000000000000002f       0x30 build/free/production/mcc_generated_files/timer/src/tcb0.o
 .comment       0x000000000000002f       0x30 build/free/production/mcc_generated_files/timer/src/rtc.o
 .comment       0x000000000000002f       0x30 build/free/production/mcc_generated_files/timer/src/tcb1.o
 .comment       0x000000000000002f       0x30 build/free/production/mcc_generated_files/uart/src/usart0.o
 .comment       0x000000000000002f       0x30 build/free/production/mcc_generated_files/uart/src/usart1.o
 .comment       0x000000000000002f       0x30 build/free/production/mcc_generated_files/vref/src/vref.o
 .comment       0x000000000000002f       0x30 build/free/production/main.o
 .comment       0x000000000000002f       0x30 build/free/production/application.o
 .comment       0x000000000000002f       0x30 build/free/production/TWI.o
 .comment       0x000000000000002f       0x30 build/free/production/bme280.o
 .comment       0x000000000000002f       0x30 build/free/production/ringBuffer.o
 .comment       0x000000000000002f       0x30 build/free/production/RN2xx3.o
 .comment       0x000000000000002f       0x30 c:/program files/microchip/xc8/v2.40/avr/bin/../lib/gcc/avr/5.4.0/../../../../avr/lib/avrxmega2/memx-const/mapped\libm.a(powf.o)
 .comment       0x000000000000002f       0x30 c:/program files/microchip/xc8/v2.40/avr/bin/../lib/gcc/avr/5.4.0/../../../../avr/lib/avrxmega2/memx-const/mapped\libm.a(sqrtf.o)
 .comment       0x000000000000002f       0x30 c:/program files/microchip/xc8/v2.40/avr/bin/../lib/gcc/avr/5.4.0/../../../../avr/lib/avrxmega2/memx-const/mapped\libm.a(fabsf.o)
 .comment       0x000000000000002f       0x30 c:/program files/microchip/xc8/v2.40/avr/bin/../lib/gcc/avr/5.4.0/../../../../avr/lib/avrxmega2/memx-const/mapped\libm.a(scalbnf.o)
 .comment       0x000000000000002f       0x30 c:/program files/microchip/xc8/v2.40/avr/bin/../lib/gcc/avr/5.4.0/../../../../avr/lib/avrxmega2/memx-const/mapped\libc.a(errno.o)
 .comment       0x000000000000002f       0x30 c:/program files/microchip/xc8/v2.40/avr/bin/../lib/gcc/avr/5.4.0/../../../../avr/lib/avrxmega2/memx-const/mapped\libc.a(exit.o)
 .comment       0x000000000000002f       0x30 c:/program files/microchip/xc8/v2.40/avr/bin/../lib/gcc/avr/5.4.0/../../../../avr/lib/avrxmega2/memx-const/mapped\libc.a(__sio_printf_dosux.o)
 .comment       0x000000000000002f       0x30 c:/program files/microchip/xc8/v2.40/avr/bin/../lib/gcc/avr/5.4.0/../../../../avr/lib/avrxmega2/memx-const/mapped\libc.a(__sio_printf_doux.o)
 .comment       0x000000000000002f       0x30 c:/program files/microchip/xc8/v2.40/avr/bin/../lib/gcc/avr/5.4.0/../../../../avr/lib/avrxmega2/memx-const/mapped\libc.a(__sio_printf_s.o)
 .comment       0x000000000000002f       0x30 c:/program files/microchip/xc8/v2.40/avr/bin/../lib/gcc/avr/5.4.0/../../../../avr/lib/avrxmega2/memx-const/mapped\libc.a(__sio_sprintf_doux.o)
 .comment       0x000000000000002f       0x30 c:/program files/microchip/xc8/v2.40/avr/bin/../lib/gcc/avr/5.4.0/../../../../avr/lib/avrxmega2/memx-const/mapped\libc.a(__fmt_d.o)
 .comment       0x000000000000002f       0x30 c:/program files/microchip/xc8/v2.40/avr/bin/../lib/gcc/avr/5.4.0/../../../../avr/lib/avrxmega2/memx-const/mapped\libc.a(__fmt_o.o)
 .comment       0x000000000000002f       0x30 c:/program files/microchip/xc8/v2.40/avr/bin/../lib/gcc/avr/5.4.0/../../../../avr/lib/avrxmega2/memx-const/mapped\libc.a(__fmt_s.o)
 .comment       0x000000000000002f       0x30 c:/program files/microchip/xc8/v2.40/avr/bin/../lib/gcc/avr/5.4.0/../../../../avr/lib/avrxmega2/memx-const/mapped\libc.a(__fmt_u.o)
 .comment       0x000000000000002f       0x30 c:/program files/microchip/xc8/v2.40/avr/bin/../lib/gcc/avr/5.4.0/../../../../avr/lib/avrxmega2/memx-const/mapped\libc.a(__fmt_x.o)
 .comment       0x000000000000002f       0x30 c:/program files/microchip/xc8/v2.40/avr/bin/../lib/gcc/avr/5.4.0/../../../../avr/lib/avrxmega2/memx-const/mapped\libc.a(__pop_int.o)
 .comment       0x000000000000002f       0x30 c:/program files/microchip/xc8/v2.40/avr/bin/../lib/gcc/avr/5.4.0/../../../../avr/lib/avrxmega2/memx-const/mapped\libc.a(__printf_core.o)
 .comment       0x000000000000002f       0x30 c:/program files/microchip/xc8/v2.40/avr/bin/../lib/gcc/avr/5.4.0/../../../../avr/lib/avrxmega2/memx-const/mapped\libc.a(fputc.o)
 .comment       0x000000000000002f       0x30 c:/program files/microchip/xc8/v2.40/avr/bin/../lib/gcc/avr/5.4.0/../../../../avr/lib/avrxmega2/memx-const/mapped\libc.a(puts.o)
 .comment       0x000000000000002f       0x30 c:/program files/microchip/xc8/v2.40/avr/bin/../lib/gcc/avr/5.4.0/../../../../avr/lib/avrxmega2/memx-const/mapped\libc.a(stdout.o)
 .comment       0x000000000000002f       0x30 c:/program files/microchip/xc8/v2.40/avr/bin/../lib/gcc/avr/5.4.0/../../../../avr/lib/avrxmega2/memx-const/mapped\libc.a(strlen.o)
 .comment       0x000000000000002f       0x30 c:/program files/microchip/xc8/v2.40/avr/bin/../lib/gcc/avr/5.4.0/../../../../avr/lib/avrxmega2/memx-const/mapped\libc.a(tolower.o)
 .comment       0x000000000000002f       0x30 c:/program files/microchip/xc8/v2.40/avr/bin/../lib/gcc/avr/5.4.0/../../../../avr/lib/avrxmega2/memx-const/mapped\libc.a(toupper.o)
 .comment       0x000000000000002f       0x30 c:/program files/microchip/xc8/v2.40/avr/bin/../lib/gcc/avr/5.4.0/../../../../avr/lib/avrxmega2/memx-const/mapped\libc.a(_Exit.o)
 .comment       0x000000000000002f       0x30 c:/program files/microchip/xc8/v2.40/avr/bin/../lib/gcc/avr/5.4.0/../../../../avr/lib/avrxmega2/memx-const/mapped\libc.a(__int_vfprintf.o)
 .comment       0x000000000000002f       0x30 c:/program files/microchip/xc8/v2.40/avr/bin/../lib/gcc/avr/5.4.0/../../../../avr/lib/avrxmega2/memx-const/mapped\libc.a(__int_vsprintf.o)
 .comment       0x000000000000002f       0x30 c:/program files/microchip/xc8/v2.40/avr/bin/../lib/gcc/avr/5.4.0/../../../../avr/lib/avrxmega2/memx-const/mapped\libc.a(__int_vsnprintf.o)
 .comment       0x000000000000002f       0x30 c:/program files/microchip/xc8/v2.40/avr/bin/../lib/gcc/avr/5.4.0/../../../../avr/lib/avrxmega2/memx-const/mapped\libc.a(fputs.o)

.stack.descriptors.hdr
                0x0000000000000000      0x16c
 .stack.descriptors.hdr
                0x0000000000000000        0xe c:/program files/microchip/xc8/v2.40/avr/bin/../lib/gcc/avr/5.4.0/../../../../avr/lib/avrxmega2/memx-const/mapped\libm.a(addsf3.o)
 .stack.descriptors.hdr
                0x000000000000000e        0xe c:/program files/microchip/xc8/v2.40/avr/bin/../lib/gcc/avr/5.4.0/../../../../avr/lib/avrxmega2/memx-const/mapped\libm.a(addsf3x.o)
 .stack.descriptors.hdr
                0x000000000000001c        0xe c:/program files/microchip/xc8/v2.40/avr/bin/../lib/gcc/avr/5.4.0/../../../../avr/lib/avrxmega2/memx-const/mapped\libm.a(divsf3.o)
 .stack.descriptors.hdr
                0x000000000000002a        0xe c:/program files/microchip/xc8/v2.40/avr/bin/../lib/gcc/avr/5.4.0/../../../../avr/lib/avrxmega2/memx-const/mapped\libm.a(divsf3x.o)
 .stack.descriptors.hdr
                0x0000000000000038        0xe c:/program files/microchip/xc8/v2.40/avr/bin/../lib/gcc/avr/5.4.0/../../../../avr/lib/avrxmega2/memx-const/mapped\libm.a(fixsfsi.o)
 .stack.descriptors.hdr
                0x0000000000000046        0xe c:/program files/microchip/xc8/v2.40/avr/bin/../lib/gcc/avr/5.4.0/../../../../avr/lib/avrxmega2/memx-const/mapped\libm.a(fixunssfsi.o)
 .stack.descriptors.hdr
                0x0000000000000054        0xe c:/program files/microchip/xc8/v2.40/avr/bin/../lib/gcc/avr/5.4.0/../../../../avr/lib/avrxmega2/memx-const/mapped\libm.a(floatsisf.o)
 .stack.descriptors.hdr
                0x0000000000000062        0xe c:/program files/microchip/xc8/v2.40/avr/bin/../lib/gcc/avr/5.4.0/../../../../avr/lib/avrxmega2/memx-const/mapped\libm.a(fp_inf.o)
 .stack.descriptors.hdr
                0x0000000000000070        0xe c:/program files/microchip/xc8/v2.40/avr/bin/../lib/gcc/avr/5.4.0/../../../../avr/lib/avrxmega2/memx-const/mapped\libm.a(fp_nan.o)
 .stack.descriptors.hdr
                0x000000000000007e        0xe c:/program files/microchip/xc8/v2.40/avr/bin/../lib/gcc/avr/5.4.0/../../../../avr/lib/avrxmega2/memx-const/mapped\libm.a(fp_pscA.o)
 .stack.descriptors.hdr
                0x000000000000008c        0xe c:/program files/microchip/xc8/v2.40/avr/bin/../lib/gcc/avr/5.4.0/../../../../avr/lib/avrxmega2/memx-const/mapped\libm.a(fp_pscB.o)
 .stack.descriptors.hdr
                0x000000000000009a        0xe c:/program files/microchip/xc8/v2.40/avr/bin/../lib/gcc/avr/5.4.0/../../../../avr/lib/avrxmega2/memx-const/mapped\libm.a(fp_round.o)
 .stack.descriptors.hdr
                0x00000000000000a8        0xe c:/program files/microchip/xc8/v2.40/avr/bin/../lib/gcc/avr/5.4.0/../../../../avr/lib/avrxmega2/memx-const/mapped\libm.a(fp_split3.o)
 .stack.descriptors.hdr
                0x00000000000000b6        0xe c:/program files/microchip/xc8/v2.40/avr/bin/../lib/gcc/avr/5.4.0/../../../../avr/lib/avrxmega2/memx-const/mapped\libm.a(fp_zero.o)
 .stack.descriptors.hdr
                0x00000000000000c4        0xe c:/program files/microchip/xc8/v2.40/avr/bin/../lib/gcc/avr/5.4.0/../../../../avr/lib/avrxmega2/memx-const/mapped\libm.a(mulsf3.o)
 .stack.descriptors.hdr
                0x00000000000000d2        0xe c:/program files/microchip/xc8/v2.40/avr/bin/../lib/gcc/avr/5.4.0/../../../../avr/lib/avrxmega2/memx-const/mapped\libm.a(mulsf3x.o)
 .stack.descriptors.hdr
                0x00000000000000e0        0xe c:/program files/microchip/xc8/v2.40/avr/bin/../lib/gcc/avr/5.4.0/../../../../avr/lib/avrxmega2/memx-const/mapped\libm.a(cmpsf2.o)
 .stack.descriptors.hdr
                0x00000000000000ee        0xe c:/program files/microchip/xc8/v2.40/avr/bin/../lib/gcc/avr/5.4.0/../../../../avr/lib/avrxmega2/memx-const/mapped\libm.a(fp_cmp.o)
 .stack.descriptors.hdr
                0x00000000000000fc        0xe c:/program files/microchip/xc8/v2.40/avr/bin/../lib/gcc/avr/5.4.0/../../../../avr/lib/avrxmega2/memx-const/mapped\libm.a(gesf2.o)
 .stack.descriptors.hdr
                0x000000000000010a        0xe c:/program files/microchip/xc8/v2.40/avr/bin/../lib/gcc/avr/5.4.0/avrxmega2/memx-const/mapped\libgcc.a(_mulsi3.o)
 .stack.descriptors.hdr
                0x0000000000000118        0xe c:/program files/microchip/xc8/v2.40/avr/bin/../lib/gcc/avr/5.4.0/avrxmega2/memx-const/mapped\libgcc.a(_udivmodsi4.o)
 .stack.descriptors.hdr
                0x0000000000000126        0xe c:/program files/microchip/xc8/v2.40/avr/bin/../lib/gcc/avr/5.4.0/avrxmega2/memx-const/mapped\libgcc.a(_tablejump2.o)
 .stack.descriptors.hdr
                0x0000000000000134        0xe c:/program files/microchip/xc8/v2.40/avr/bin/../lib/gcc/avr/5.4.0/avrxmega2/memx-const/mapped\libgcc.a(_muluhisi3.o)
 .stack.descriptors.hdr
                0x0000000000000142        0xe c:/program files/microchip/xc8/v2.40/avr/bin/../lib/gcc/avr/5.4.0/avrxmega2/memx-const/mapped\libgcc.a(_mulshisi3.o)
 .stack.descriptors.hdr
                0x0000000000000150        0xe c:/program files/microchip/xc8/v2.40/avr/bin/../lib/gcc/avr/5.4.0/avrxmega2/memx-const/mapped\libgcc.a(_umulhisi3.o)
 .stack.descriptors.hdr
                0x000000000000015e        0xe c:/program files/microchip/xc8/v2.40/avr/bin/../lib/gcc/avr/5.4.0/avrxmega2/memx-const/mapped\libgcc.a(_exit.o)

.note.GNU-stack
                0x0000000000000000        0x0
 .note.GNU-stack
                0x0000000000000000        0x0 c:/program files/microchip/xc8/v2.40/avr/bin/../lib/gcc/avr/5.4.0/../../../../avr/lib/avrxmega2/memx-const/mapped\libm.a(addsf3.o)
 .note.GNU-stack
                0x0000000000000000        0x0 c:/program files/microchip/xc8/v2.40/avr/bin/../lib/gcc/avr/5.4.0/../../../../avr/lib/avrxmega2/memx-const/mapped\libm.a(addsf3x.o)
 .note.GNU-stack
                0x0000000000000000        0x0 c:/program files/microchip/xc8/v2.40/avr/bin/../lib/gcc/avr/5.4.0/../../../../avr/lib/avrxmega2/memx-const/mapped\libm.a(divsf3.o)
 .note.GNU-stack
                0x0000000000000000        0x0 c:/program files/microchip/xc8/v2.40/avr/bin/../lib/gcc/avr/5.4.0/../../../../avr/lib/avrxmega2/memx-const/mapped\libm.a(divsf3x.o)
 .note.GNU-stack
                0x0000000000000000        0x0 c:/program files/microchip/xc8/v2.40/avr/bin/../lib/gcc/avr/5.4.0/../../../../avr/lib/avrxmega2/memx-const/mapped\libm.a(fixsfsi.o)
 .note.GNU-stack
                0x0000000000000000        0x0 c:/program files/microchip/xc8/v2.40/avr/bin/../lib/gcc/avr/5.4.0/../../../../avr/lib/avrxmega2/memx-const/mapped\libm.a(fixunssfsi.o)
 .note.GNU-stack
                0x0000000000000000        0x0 c:/program files/microchip/xc8/v2.40/avr/bin/../lib/gcc/avr/5.4.0/../../../../avr/lib/avrxmega2/memx-const/mapped\libm.a(floatsisf.o)
 .note.GNU-stack
                0x0000000000000000        0x0 c:/program files/microchip/xc8/v2.40/avr/bin/../lib/gcc/avr/5.4.0/../../../../avr/lib/avrxmega2/memx-const/mapped\libm.a(fp_inf.o)
 .note.GNU-stack
                0x0000000000000000        0x0 c:/program files/microchip/xc8/v2.40/avr/bin/../lib/gcc/avr/5.4.0/../../../../avr/lib/avrxmega2/memx-const/mapped\libm.a(fp_nan.o)
 .note.GNU-stack
                0x0000000000000000        0x0 c:/program files/microchip/xc8/v2.40/avr/bin/../lib/gcc/avr/5.4.0/../../../../avr/lib/avrxmega2/memx-const/mapped\libm.a(fp_pscA.o)
 .note.GNU-stack
                0x0000000000000000        0x0 c:/program files/microchip/xc8/v2.40/avr/bin/../lib/gcc/avr/5.4.0/../../../../avr/lib/avrxmega2/memx-const/mapped\libm.a(fp_pscB.o)
 .note.GNU-stack
                0x0000000000000000        0x0 c:/program files/microchip/xc8/v2.40/avr/bin/../lib/gcc/avr/5.4.0/../../../../avr/lib/avrxmega2/memx-const/mapped\libm.a(fp_round.o)
 .note.GNU-stack
                0x0000000000000000        0x0 c:/program files/microchip/xc8/v2.40/avr/bin/../lib/gcc/avr/5.4.0/../../../../avr/lib/avrxmega2/memx-const/mapped\libm.a(fp_split3.o)
 .note.GNU-stack
                0x0000000000000000        0x0 c:/program files/microchip/xc8/v2.40/avr/bin/../lib/gcc/avr/5.4.0/../../../../avr/lib/avrxmega2/memx-const/mapped\libm.a(fp_zero.o)
 .note.GNU-stack
                0x0000000000000000        0x0 c:/program files/microchip/xc8/v2.40/avr/bin/../lib/gcc/avr/5.4.0/../../../../avr/lib/avrxmega2/memx-const/mapped\libm.a(mulsf3.o)
 .note.GNU-stack
                0x0000000000000000        0x0 c:/program files/microchip/xc8/v2.40/avr/bin/../lib/gcc/avr/5.4.0/../../../../avr/lib/avrxmega2/memx-const/mapped\libm.a(mulsf3x.o)
 .note.GNU-stack
                0x0000000000000000        0x0 c:/program files/microchip/xc8/v2.40/avr/bin/../lib/gcc/avr/5.4.0/../../../../avr/lib/avrxmega2/memx-const/mapped\libm.a(powf.o)
 .note.GNU-stack
                0x0000000000000000        0x0 c:/program files/microchip/xc8/v2.40/avr/bin/../lib/gcc/avr/5.4.0/../../../../avr/lib/avrxmega2/memx-const/mapped\libm.a(sqrtf.o)
 .note.GNU-stack
                0x0000000000000000        0x0 c:/program files/microchip/xc8/v2.40/avr/bin/../lib/gcc/avr/5.4.0/../../../../avr/lib/avrxmega2/memx-const/mapped\libm.a(fabsf.o)
 .note.GNU-stack
                0x0000000000000000        0x0 c:/program files/microchip/xc8/v2.40/avr/bin/../lib/gcc/avr/5.4.0/../../../../avr/lib/avrxmega2/memx-const/mapped\libm.a(scalbnf.o)
 .note.GNU-stack
                0x0000000000000000        0x0 c:/program files/microchip/xc8/v2.40/avr/bin/../lib/gcc/avr/5.4.0/../../../../avr/lib/avrxmega2/memx-const/mapped\libm.a(cmpsf2.o)
 .note.GNU-stack
                0x0000000000000000        0x0 c:/program files/microchip/xc8/v2.40/avr/bin/../lib/gcc/avr/5.4.0/../../../../avr/lib/avrxmega2/memx-const/mapped\libm.a(fp_cmp.o)
 .note.GNU-stack
                0x0000000000000000        0x0 c:/program files/microchip/xc8/v2.40/avr/bin/../lib/gcc/avr/5.4.0/../../../../avr/lib/avrxmega2/memx-const/mapped\libm.a(gesf2.o)
 .note.GNU-stack
                0x0000000000000000        0x0 c:/program files/microchip/xc8/v2.40/avr/bin/../lib/gcc/avr/5.4.0/../../../../avr/lib/avrxmega2/memx-const/mapped\libc.a(errno.o)
 .note.GNU-stack
                0x0000000000000000        0x0 c:/program files/microchip/xc8/v2.40/avr/bin/../lib/gcc/avr/5.4.0/../../../../avr/lib/avrxmega2/memx-const/mapped\libc.a(exit.o)
 .note.GNU-stack
                0x0000000000000000        0x0 c:/program files/microchip/xc8/v2.40/avr/bin/../lib/gcc/avr/5.4.0/../../../../avr/lib/avrxmega2/memx-const/mapped\libc.a(__sio_printf_dosux.o)
 .note.GNU-stack
                0x0000000000000000        0x0 c:/program files/microchip/xc8/v2.40/avr/bin/../lib/gcc/avr/5.4.0/../../../../avr/lib/avrxmega2/memx-const/mapped\libc.a(__sio_printf_doux.o)
 .note.GNU-stack
                0x0000000000000000        0x0 c:/program files/microchip/xc8/v2.40/avr/bin/../lib/gcc/avr/5.4.0/../../../../avr/lib/avrxmega2/memx-const/mapped\libc.a(__sio_printf_s.o)
 .note.GNU-stack
                0x0000000000000000        0x0 c:/program files/microchip/xc8/v2.40/avr/bin/../lib/gcc/avr/5.4.0/../../../../avr/lib/avrxmega2/memx-const/mapped\libc.a(__sio_sprintf_doux.o)
 .note.GNU-stack
                0x0000000000000000        0x0 c:/program files/microchip/xc8/v2.40/avr/bin/../lib/gcc/avr/5.4.0/../../../../avr/lib/avrxmega2/memx-const/mapped\libc.a(__fmt_d.o)
 .note.GNU-stack
                0x0000000000000000        0x0 c:/program files/microchip/xc8/v2.40/avr/bin/../lib/gcc/avr/5.4.0/../../../../avr/lib/avrxmega2/memx-const/mapped\libc.a(__fmt_o.o)
 .note.GNU-stack
                0x0000000000000000        0x0 c:/program files/microchip/xc8/v2.40/avr/bin/../lib/gcc/avr/5.4.0/../../../../avr/lib/avrxmega2/memx-const/mapped\libc.a(__fmt_s.o)
 .note.GNU-stack
                0x0000000000000000        0x0 c:/program files/microchip/xc8/v2.40/avr/bin/../lib/gcc/avr/5.4.0/../../../../avr/lib/avrxmega2/memx-const/mapped\libc.a(__fmt_u.o)
 .note.GNU-stack
                0x0000000000000000        0x0 c:/program files/microchip/xc8/v2.40/avr/bin/../lib/gcc/avr/5.4.0/../../../../avr/lib/avrxmega2/memx-const/mapped\libc.a(__fmt_x.o)
 .note.GNU-stack
                0x0000000000000000        0x0 c:/program files/microchip/xc8/v2.40/avr/bin/../lib/gcc/avr/5.4.0/../../../../avr/lib/avrxmega2/memx-const/mapped\libc.a(__pop_int.o)
 .note.GNU-stack
                0x0000000000000000        0x0 c:/program files/microchip/xc8/v2.40/avr/bin/../lib/gcc/avr/5.4.0/../../../../avr/lib/avrxmega2/memx-const/mapped\libc.a(__printf_core.o)
 .note.GNU-stack
                0x0000000000000000        0x0 c:/program files/microchip/xc8/v2.40/avr/bin/../lib/gcc/avr/5.4.0/../../../../avr/lib/avrxmega2/memx-const/mapped\libc.a(fputc.o)
 .note.GNU-stack
                0x0000000000000000        0x0 c:/program files/microchip/xc8/v2.40/avr/bin/../lib/gcc/avr/5.4.0/../../../../avr/lib/avrxmega2/memx-const/mapped\libc.a(puts.o)
 .note.GNU-stack
                0x0000000000000000        0x0 c:/program files/microchip/xc8/v2.40/avr/bin/../lib/gcc/avr/5.4.0/../../../../avr/lib/avrxmega2/memx-const/mapped\libc.a(stdout.o)
 .note.GNU-stack
                0x0000000000000000        0x0 c:/program files/microchip/xc8/v2.40/avr/bin/../lib/gcc/avr/5.4.0/../../../../avr/lib/avrxmega2/memx-const/mapped\libc.a(strlen.o)
 .note.GNU-stack
                0x0000000000000000        0x0 c:/program files/microchip/xc8/v2.40/avr/bin/../lib/gcc/avr/5.4.0/../../../../avr/lib/avrxmega2/memx-const/mapped\libc.a(tolower.o)
 .note.GNU-stack
                0x0000000000000000        0x0 c:/program files/microchip/xc8/v2.40/avr/bin/../lib/gcc/avr/5.4.0/../../../../avr/lib/avrxmega2/memx-const/mapped\libc.a(toupper.o)
 .note.GNU-stack
                0x0000000000000000        0x0 c:/program files/microchip/xc8/v2.40/avr/bin/../lib/gcc/avr/5.4.0/../../../../avr/lib/avrxmega2/memx-const/mapped\libc.a(_Exit.o)
 .note.GNU-stack
                0x0000000000000000        0x0 c:/program files/microchip/xc8/v2.40/avr/bin/../lib/gcc/avr/5.4.0/../../../../avr/lib/avrxmega2/memx-const/mapped\libc.a(__int_vfprintf.o)
 .note.GNU-stack
                0x0000000000000000        0x0 c:/program files/microchip/xc8/v2.40/avr/bin/../lib/gcc/avr/5.4.0/../../../../avr/lib/avrxmega2/memx-const/mapped\libc.a(__int_vsprintf.o)
 .note.GNU-stack
                0x0000000000000000        0x0 c:/program files/microchip/xc8/v2.40/avr/bin/../lib/gcc/avr/5.4.0/../../../../avr/lib/avrxmega2/memx-const/mapped\libc.a(__int_vsnprintf.o)
 .note.GNU-stack
                0x0000000000000000        0x0 c:/program files/microchip/xc8/v2.40/avr/bin/../lib/gcc/avr/5.4.0/../../../../avr/lib/avrxmega2/memx-const/mapped\libc.a(fputs.o)

.note.gnu.build-id
 *(.note.gnu.build-id)

.debug
 *(.debug)

.line
 *(.line)

.debug_srcinfo
 *(.debug_srcinfo)

.debug_sfnames
 *(.debug_sfnames)

.debug_aranges  0x0000000000000000      0x8b8
 *(.debug_aranges)
 .debug_aranges
                0x0000000000000000       0xc8 build/free/production/mcc_generated_files/adc/src/adc0.o
 .debug_aranges
                0x00000000000000c8       0x30 build/free/production/mcc_generated_files/evsys/src/evsys.o
 .debug_aranges
                0x00000000000000f8       0x30 build/free/production/mcc_generated_files/system/src/clock.o
 .debug_aranges
                0x0000000000000128       0x28 build/free/production/mcc_generated_files/system/src/system.o
 .debug_aranges
                0x0000000000000150       0x18 build/free/production/mcc_generated_files/system/src/config_bits.o
 .debug_aranges
                0x0000000000000168       0xf0 build/free/production/mcc_generated_files/system/src/pins.o
 .debug_aranges
                0x0000000000000258       0x20 build/free/production/mcc_generated_files/system/src/protected_io.o
 .debug_aranges
                0x0000000000000278       0x20 build/free/production/mcc_generated_files/system/src/interrupt.o
 .debug_aranges
                0x0000000000000298       0x90 build/free/production/mcc_generated_files/timer/src/tcb0.o
 .debug_aranges
                0x0000000000000328       0xb8 build/free/production/mcc_generated_files/timer/src/rtc.o
 .debug_aranges
                0x00000000000003e0       0x90 build/free/production/mcc_generated_files/timer/src/tcb1.o
 .debug_aranges
                0x0000000000000470       0xc0 build/free/production/mcc_generated_files/uart/src/usart0.o
 .debug_aranges
                0x0000000000000530       0xb8 build/free/production/mcc_generated_files/uart/src/usart1.o
 .debug_aranges
                0x00000000000005e8       0x20 build/free/production/mcc_generated_files/vref/src/vref.o
 .debug_aranges
                0x0000000000000608       0x20 build/free/production/main.o
 .debug_aranges
                0x0000000000000628       0x80 build/free/production/application.o
 .debug_aranges
                0x00000000000006a8       0x70 build/free/production/TWI.o
 .debug_aranges
                0x0000000000000718       0x98 build/free/production/bme280.o
 .debug_aranges
                0x00000000000007b0       0x60 build/free/production/ringBuffer.o
 .debug_aranges
                0x0000000000000810       0xa8 build/free/production/RN2xx3.o

.debug_pubnames
 *(.debug_pubnames)

.debug_info     0x0000000000000000     0xf250
 *(.debug_info .gnu.linkonce.wi.*)
 .debug_info    0x0000000000000000     0x22a4 C:/Users/C70348/.mchp_packs/Microchip/AVR-Dx_DFP/2.1.152/xc8/avr/lib/avrxmega2/memx-const/mapped/crtavr64dd32.o
 .debug_info    0x00000000000022a4     0x1037 build/free/production/mcc_generated_files/adc/src/adc0.o
 .debug_info    0x00000000000032db      0x6c7 build/free/production/mcc_generated_files/evsys/src/evsys.o
 .debug_info    0x00000000000039a2      0x9ec build/free/production/mcc_generated_files/system/src/clock.o
 .debug_info    0x000000000000438e      0x56a build/free/production/mcc_generated_files/system/src/system.o
 .debug_info    0x00000000000048f8      0x8fc build/free/production/mcc_generated_files/system/src/config_bits.o
 .debug_info    0x00000000000051f4      0xe73 build/free/production/mcc_generated_files/system/src/pins.o
 .debug_info    0x0000000000006067       0xa2 build/free/production/mcc_generated_files/system/src/protected_io.o
 .debug_info    0x0000000000006109      0x408 build/free/production/mcc_generated_files/system/src/interrupt.o
 .debug_info    0x0000000000006511      0x7e7 build/free/production/mcc_generated_files/timer/src/tcb0.o
 .debug_info    0x0000000000006cf8      0x8e9 build/free/production/mcc_generated_files/timer/src/rtc.o
 .debug_info    0x00000000000075e1      0x7e7 build/free/production/mcc_generated_files/timer/src/tcb1.o
 .debug_info    0x0000000000007dc8      0xe5c build/free/production/mcc_generated_files/uart/src/usart0.o
 .debug_info    0x0000000000008c24      0xc93 build/free/production/mcc_generated_files/uart/src/usart1.o
 .debug_info    0x00000000000098b7      0x374 build/free/production/mcc_generated_files/vref/src/vref.o
 .debug_info    0x0000000000009c2b      0x367 build/free/production/main.o
 .debug_info    0x0000000000009f92     0x1219 build/free/production/application.o
 .debug_info    0x000000000000b1ab      0xba6 build/free/production/TWI.o
 .debug_info    0x000000000000bd51      0xf0d build/free/production/bme280.o
 .debug_info    0x000000000000cc5e      0x788 build/free/production/ringBuffer.o
 .debug_info    0x000000000000d3e6     0x1e6a build/free/production/RN2xx3.o

.debug_abbrev   0x0000000000000000     0x3d9c
 *(.debug_abbrev)
 .debug_abbrev  0x0000000000000000     0x20ce C:/Users/C70348/.mchp_packs/Microchip/AVR-Dx_DFP/2.1.152/xc8/avr/lib/avrxmega2/memx-const/mapped/crtavr64dd32.o
 .debug_abbrev  0x00000000000020ce      0x25d build/free/production/mcc_generated_files/adc/src/adc0.o
 .debug_abbrev  0x000000000000232b       0xcd build/free/production/mcc_generated_files/evsys/src/evsys.o
 .debug_abbrev  0x00000000000023f8      0x14d build/free/production/mcc_generated_files/system/src/clock.o
 .debug_abbrev  0x0000000000002545      0x130 build/free/production/mcc_generated_files/system/src/system.o
 .debug_abbrev  0x0000000000002675       0x97 build/free/production/mcc_generated_files/system/src/config_bits.o
 .debug_abbrev  0x000000000000270c      0x162 build/free/production/mcc_generated_files/system/src/pins.o
 .debug_abbrev  0x000000000000286e       0x14 build/free/production/mcc_generated_files/system/src/protected_io.o
 .debug_abbrev  0x0000000000002882       0xfa build/free/production/mcc_generated_files/system/src/interrupt.o
 .debug_abbrev  0x000000000000297c      0x19d build/free/production/mcc_generated_files/timer/src/tcb0.o
 .debug_abbrev  0x0000000000002b19      0x14c build/free/production/mcc_generated_files/timer/src/rtc.o
 .debug_abbrev  0x0000000000002c65      0x19d build/free/production/mcc_generated_files/timer/src/tcb1.o
 .debug_abbrev  0x0000000000002e02      0x2c2 build/free/production/mcc_generated_files/uart/src/usart0.o
 .debug_abbrev  0x00000000000030c4      0x251 build/free/production/mcc_generated_files/uart/src/usart1.o
 .debug_abbrev  0x0000000000003315       0x8c build/free/production/mcc_generated_files/vref/src/vref.o
 .debug_abbrev  0x00000000000033a1       0x8b build/free/production/main.o
 .debug_abbrev  0x000000000000342c      0x1ea build/free/production/application.o
 .debug_abbrev  0x0000000000003616      0x191 build/free/production/TWI.o
 .debug_abbrev  0x00000000000037a7      0x22d build/free/production/bme280.o
 .debug_abbrev  0x00000000000039d4      0x17c build/free/production/ringBuffer.o
 .debug_abbrev  0x0000000000003b50      0x24c build/free/production/RN2xx3.o

.debug_line     0x0000000000000000     0x42a6
 *(.debug_line .debug_line.* .debug_line_end)
 .debug_line    0x0000000000000000      0x19e C:/Users/C70348/.mchp_packs/Microchip/AVR-Dx_DFP/2.1.152/xc8/avr/lib/avrxmega2/memx-const/mapped/crtavr64dd32.o
 .debug_line    0x000000000000019e      0x3f4 build/free/production/mcc_generated_files/adc/src/adc0.o
 .debug_line    0x0000000000000592      0x1e7 build/free/production/mcc_generated_files/evsys/src/evsys.o
 .debug_line    0x0000000000000779      0x1bd build/free/production/mcc_generated_files/system/src/clock.o
 .debug_line    0x0000000000000936      0x32b build/free/production/mcc_generated_files/system/src/system.o
 .debug_line    0x0000000000000c61       0xf0 build/free/production/mcc_generated_files/system/src/config_bits.o
 .debug_line    0x0000000000000d51      0x518 build/free/production/mcc_generated_files/system/src/pins.o
 .debug_line    0x0000000000001269       0x6d build/free/production/mcc_generated_files/system/src/protected_io.o
 .debug_line    0x00000000000012d6      0x189 build/free/production/mcc_generated_files/system/src/interrupt.o
 .debug_line    0x000000000000145f      0x2fc build/free/production/mcc_generated_files/timer/src/tcb0.o
 .debug_line    0x000000000000175b      0x394 build/free/production/mcc_generated_files/timer/src/rtc.o
 .debug_line    0x0000000000001aef      0x2fc build/free/production/mcc_generated_files/timer/src/tcb1.o
 .debug_line    0x0000000000001deb      0x474 build/free/production/mcc_generated_files/uart/src/usart0.o
 .debug_line    0x000000000000225f      0x405 build/free/production/mcc_generated_files/uart/src/usart1.o
 .debug_line    0x0000000000002664      0x10f build/free/production/mcc_generated_files/vref/src/vref.o
 .debug_line    0x0000000000002773       0xf2 build/free/production/main.o
 .debug_line    0x0000000000002865      0x635 build/free/production/application.o
 .debug_line    0x0000000000002e9a      0x3c7 build/free/production/TWI.o
 .debug_line    0x0000000000003261      0x498 build/free/production/bme280.o
 .debug_line    0x00000000000036f9      0x2e1 build/free/production/ringBuffer.o
 .debug_line    0x00000000000039da      0x8cc build/free/production/RN2xx3.o

.debug_frame    0x0000000000000000     0x158c
 *(.debug_frame)
 .debug_frame   0x0000000000000000      0x204 build/free/production/mcc_generated_files/adc/src/adc0.o
 .debug_frame   0x0000000000000204       0x44 build/free/production/mcc_generated_files/evsys/src/evsys.o
 .debug_frame   0x0000000000000248       0x44 build/free/production/mcc_generated_files/system/src/clock.o
 .debug_frame   0x000000000000028c       0x34 build/free/production/mcc_generated_files/system/src/system.o
 .debug_frame   0x00000000000002c0      0x2f0 build/free/production/mcc_generated_files/system/src/pins.o
 .debug_frame   0x00000000000005b0       0x24 build/free/production/mcc_generated_files/system/src/interrupt.o
 .debug_frame   0x00000000000005d4      0x14c build/free/production/mcc_generated_files/timer/src/tcb0.o
 .debug_frame   0x0000000000000720      0x1e4 build/free/production/mcc_generated_files/timer/src/rtc.o
 .debug_frame   0x0000000000000904      0x14c build/free/production/mcc_generated_files/timer/src/tcb1.o
 .debug_frame   0x0000000000000a50      0x16c build/free/production/mcc_generated_files/uart/src/usart0.o
 .debug_frame   0x0000000000000bbc      0x154 build/free/production/mcc_generated_files/uart/src/usart1.o
 .debug_frame   0x0000000000000d10       0x24 build/free/production/mcc_generated_files/vref/src/vref.o
 .debug_frame   0x0000000000000d34       0x24 build/free/production/main.o
 .debug_frame   0x0000000000000d58      0x1e0 build/free/production/application.o
 .debug_frame   0x0000000000000f38      0x12c build/free/production/TWI.o
 .debug_frame   0x0000000000001064      0x248 build/free/production/bme280.o
 .debug_frame   0x00000000000012ac       0xf8 build/free/production/ringBuffer.o
 .debug_frame   0x00000000000013a4      0x1e8 build/free/production/RN2xx3.o

.debug_str      0x0000000000000000     0x1337
 *(.debug_str)
 .debug_str     0x0000000000000000      0xefb C:/Users/C70348/.mchp_packs/Microchip/AVR-Dx_DFP/2.1.152/xc8/avr/lib/avrxmega2/memx-const/mapped/crtavr64dd32.o
 .debug_str     0x0000000000000efb       0x11 build/free/production/mcc_generated_files/adc/src/adc0.o
 .debug_str     0x0000000000000f0c        0x0 build/free/production/mcc_generated_files/evsys/src/evsys.o
 .debug_str     0x0000000000000f0c       0x13 build/free/production/mcc_generated_files/system/src/clock.o
 .debug_str     0x0000000000000f1f       0xd1 build/free/production/mcc_generated_files/system/src/system.o
 .debug_str     0x0000000000000ff0        0x0 build/free/production/mcc_generated_files/system/src/config_bits.o
 .debug_str     0x0000000000000ff0       0x30 build/free/production/mcc_generated_files/system/src/pins.o
 .debug_str     0x0000000000001020       0x13 build/free/production/mcc_generated_files/system/src/interrupt.o
 .debug_str     0x0000000000001033        0x0 build/free/production/mcc_generated_files/timer/src/tcb0.o
 .debug_str     0x0000000000001033        0x9 build/free/production/mcc_generated_files/timer/src/rtc.o
 .debug_str     0x000000000000103c        0x0 build/free/production/mcc_generated_files/timer/src/tcb1.o
 .debug_str     0x000000000000103c       0x10 build/free/production/mcc_generated_files/uart/src/usart0.o
 .debug_str     0x000000000000104c       0x10 build/free/production/mcc_generated_files/uart/src/usart1.o
 .debug_str     0x000000000000105c        0x0 build/free/production/mcc_generated_files/vref/src/vref.o
 .debug_str     0x000000000000105c       0x7c build/free/production/main.o
 .debug_str     0x00000000000010d8      0x10c build/free/production/application.o
 .debug_str     0x00000000000011e4       0x15 build/free/production/TWI.o
 .debug_str     0x00000000000011f9       0x2d build/free/production/bme280.o
 .debug_str     0x0000000000001226       0x29 build/free/production/ringBuffer.o
 .debug_str     0x000000000000124f       0xe8 build/free/production/RN2xx3.o

.debug_loc      0x0000000000000000     0x1c81
 *(.debug_loc)
 .debug_loc     0x0000000000000000      0x147 build/free/production/mcc_generated_files/adc/src/adc0.o
 .debug_loc     0x0000000000000147      0x263 build/free/production/mcc_generated_files/system/src/clock.o
 .debug_loc     0x00000000000003aa       0x52 build/free/production/mcc_generated_files/system/src/system.o
 .debug_loc     0x00000000000003fc       0x2a build/free/production/mcc_generated_files/system/src/interrupt.o
 .debug_loc     0x0000000000000426       0x64 build/free/production/mcc_generated_files/uart/src/usart0.o
 .debug_loc     0x000000000000048a      0x210 build/free/production/application.o
 .debug_loc     0x000000000000069a      0x496 build/free/production/TWI.o
 .debug_loc     0x0000000000000b30      0x7f3 build/free/production/bme280.o
 .debug_loc     0x0000000000001323      0x203 build/free/production/ringBuffer.o
 .debug_loc     0x0000000000001526      0x75b build/free/production/RN2xx3.o

.debug_macinfo
 *(.debug_macinfo)

.debug_weaknames
 *(.debug_weaknames)

.debug_funcnames
 *(.debug_funcnames)

.debug_typenames
 *(.debug_typenames)

.debug_varnames
 *(.debug_varnames)

.debug_pubtypes
 *(.debug_pubtypes)

.debug_ranges   0x0000000000000000      0x760
 *(.debug_ranges)
 .debug_ranges  0x0000000000000000       0xb8 build/free/production/mcc_generated_files/adc/src/adc0.o
 .debug_ranges  0x00000000000000b8       0x20 build/free/production/mcc_generated_files/evsys/src/evsys.o
 .debug_ranges  0x00000000000000d8       0x20 build/free/production/mcc_generated_files/system/src/clock.o
 .debug_ranges  0x00000000000000f8       0x18 build/free/production/mcc_generated_files/system/src/system.o
 .debug_ranges  0x0000000000000110       0xe0 build/free/production/mcc_generated_files/system/src/pins.o
 .debug_ranges  0x00000000000001f0       0x10 build/free/production/mcc_generated_files/system/src/interrupt.o
 .debug_ranges  0x0000000000000200       0x80 build/free/production/mcc_generated_files/timer/src/tcb0.o
 .debug_ranges  0x0000000000000280       0xa8 build/free/production/mcc_generated_files/timer/src/rtc.o
 .debug_ranges  0x0000000000000328       0x80 build/free/production/mcc_generated_files/timer/src/tcb1.o
 .debug_ranges  0x00000000000003a8       0xb0 build/free/production/mcc_generated_files/uart/src/usart0.o
 .debug_ranges  0x0000000000000458       0xa8 build/free/production/mcc_generated_files/uart/src/usart1.o
 .debug_ranges  0x0000000000000500       0x10 build/free/production/mcc_generated_files/vref/src/vref.o
 .debug_ranges  0x0000000000000510       0x10 build/free/production/main.o
 .debug_ranges  0x0000000000000520       0x70 build/free/production/application.o
 .debug_ranges  0x0000000000000590       0x60 build/free/production/TWI.o
 .debug_ranges  0x00000000000005f0       0x88 build/free/production/bme280.o
 .debug_ranges  0x0000000000000678       0x50 build/free/production/ringBuffer.o
 .debug_ranges  0x00000000000006c8       0x98 build/free/production/RN2xx3.o

.debug_macro
 *(.debug_macro)
OUTPUT(dist/free/production/agri-iot-hackster.X.production.elf elf32-avr)
LOAD linker stubs
LOAD data_init

.note.gnu.avr.deviceinfo
                0x0000000000000000       0x3c
 .note.gnu.avr.deviceinfo
                0x0000000000000000       0x3c C:/Users/C70348/.mchp_packs/Microchip/AVR-Dx_DFP/2.1.152/xc8/avr/lib/avrxmega2/memx-const/mapped/crtavr64dd32.o

.bss.ADC0_resrdy_cb
                0x000000000080629d        0x2
 .bss.ADC0_resrdy_cb
                0x000000000080629d        0x2 build/free/production/mcc_generated_files/adc/src/adc0.o
                0x000000000080629d                ADC0_resrdy_cb

.bss.ADC0_window_cb
                0x000000000080629f        0x2
 .bss.ADC0_window_cb
                0x000000000080629f        0x2 build/free/production/mcc_generated_files/adc/src/adc0.o
                0x000000000080629f                ADC0_window_cb

.bss.PF5_InterruptHandler
                0x00000000008062a1        0x2
 .bss.PF5_InterruptHandler
                0x00000000008062a1        0x2 build/free/production/mcc_generated_files/system/src/pins.o

.bss.PD1_InterruptHandler
                0x00000000008062a3        0x2
 .bss.PD1_InterruptHandler
                0x00000000008062a3        0x2 build/free/production/mcc_generated_files/system/src/pins.o

.bss.PC2_InterruptHandler
                0x00000000008062a5        0x2
 .bss.PC2_InterruptHandler
                0x00000000008062a5        0x2 build/free/production/mcc_generated_files/system/src/pins.o

.bss.PA1_InterruptHandler
                0x00000000008062a7        0x2
 .bss.PA1_InterruptHandler
                0x00000000008062a7        0x2 build/free/production/mcc_generated_files/system/src/pins.o

.bss.PA0_InterruptHandler
                0x00000000008062a9        0x2
 .bss.PA0_InterruptHandler
                0x00000000008062a9        0x2 build/free/production/mcc_generated_files/system/src/pins.o

.bss.PF6_InterruptHandler
                0x00000000008062ab        0x2
 .bss.PF6_InterruptHandler
                0x00000000008062ab        0x2 build/free/production/mcc_generated_files/system/src/pins.o

.bss.PD4_InterruptHandler
                0x00000000008062ad        0x2
 .bss.PD4_InterruptHandler
                0x00000000008062ad        0x2 build/free/production/mcc_generated_files/system/src/pins.o

.bss.PD5_InterruptHandler
                0x00000000008062af        0x2
 .bss.PD5_InterruptHandler
                0x00000000008062af        0x2 build/free/production/mcc_generated_files/system/src/pins.o

.bss.PD2_InterruptHandler
                0x00000000008062b1        0x2
 .bss.PD2_InterruptHandler
                0x00000000008062b1        0x2 build/free/production/mcc_generated_files/system/src/pins.o

.bss.PC0_InterruptHandler
                0x00000000008062b3        0x2
 .bss.PC0_InterruptHandler
                0x00000000008062b3        0x2 build/free/production/mcc_generated_files/system/src/pins.o

.bss.PC1_InterruptHandler
                0x00000000008062b5        0x2
 .bss.PC1_InterruptHandler
                0x00000000008062b5        0x2 build/free/production/mcc_generated_files/system/src/pins.o

.bss.TCB0_CAPT_isr_cb
                0x00000000008062b7        0x2
 .bss.TCB0_CAPT_isr_cb
                0x00000000008062b7        0x2 build/free/production/mcc_generated_files/timer/src/tcb0.o
                0x00000000008062b7                TCB0_CAPT_isr_cb

.bss.RTC_PIT_isr_cb
                0x00000000008062b9        0x2
 .bss.RTC_PIT_isr_cb
                0x00000000008062b9        0x2 build/free/production/mcc_generated_files/timer/src/rtc.o
                0x00000000008062b9                RTC_PIT_isr_cb

.bss.RTC_CMP_isr_cb
                0x00000000008062bb        0x2
 .bss.RTC_CMP_isr_cb
                0x00000000008062bb        0x2 build/free/production/mcc_generated_files/timer/src/rtc.o
                0x00000000008062bb                RTC_CMP_isr_cb

.bss.RTC_OVF_isr_cb
                0x00000000008062bd        0x2
 .bss.RTC_OVF_isr_cb
                0x00000000008062bd        0x2 build/free/production/mcc_generated_files/timer/src/rtc.o
                0x00000000008062bd                RTC_OVF_isr_cb

.bss.TCB1_CAPT_isr_cb
                0x00000000008062bf        0x2
 .bss.TCB1_CAPT_isr_cb
                0x00000000008062bf        0x2 build/free/production/mcc_generated_files/timer/src/tcb1.o
                0x00000000008062bf                TCB1_CAPT_isr_cb

.bss.USART0_ParityErrorHandler
                0x00000000008062c1        0x2
 .bss.USART0_ParityErrorHandler
                0x00000000008062c1        0x2 build/free/production/mcc_generated_files/uart/src/usart0.o
                0x00000000008062c1                USART0_ParityErrorHandler

.bss.USART0_OverrunErrorHandler
                0x00000000008062c3        0x2
 .bss.USART0_OverrunErrorHandler
                0x00000000008062c3        0x2 build/free/production/mcc_generated_files/uart/src/usart0.o
                0x00000000008062c3                USART0_OverrunErrorHandler

.bss.USART0_FramingErrorHandler
                0x00000000008062c5        0x2
 .bss.USART0_FramingErrorHandler
                0x00000000008062c5        0x2 build/free/production/mcc_generated_files/uart/src/usart0.o
                0x00000000008062c5                USART0_FramingErrorHandler

.bss.usart0RxLastError
                0x00000000008062c7        0x2
 .bss.usart0RxLastError
                0x00000000008062c7        0x2 build/free/production/mcc_generated_files/uart/src/usart0.o

.bss.USART1_ParityErrorHandler
                0x00000000008062c9        0x2
 .bss.USART1_ParityErrorHandler
                0x00000000008062c9        0x2 build/free/production/mcc_generated_files/uart/src/usart1.o
                0x00000000008062c9                USART1_ParityErrorHandler

.bss.USART1_OverrunErrorHandler
                0x00000000008062cb        0x2
 .bss.USART1_OverrunErrorHandler
                0x00000000008062cb        0x2 build/free/production/mcc_generated_files/uart/src/usart1.o
                0x00000000008062cb                USART1_OverrunErrorHandler

.bss.USART1_FramingErrorHandler
                0x00000000008062cd        0x2
 .bss.USART1_FramingErrorHandler
                0x00000000008062cd        0x2 build/free/production/mcc_generated_files/uart/src/usart1.o
                0x00000000008062cd                USART1_FramingErrorHandler

.bss.usart1RxLastError
                0x00000000008062cf        0x2
 .bss.usart1RxLastError
                0x00000000008062cf        0x2 build/free/production/mcc_generated_files/uart/src/usart1.o

.bss.numTx      0x00000000008062d7        0x1
 .bss.numTx     0x00000000008062d7        0x1 build/free/production/application.o

.bss.state      0x00000000008062d8        0x1
 .bss.state     0x00000000008062d8        0x1 build/free/production/application.o

.bss.event_flags
                0x00000000008062d1        0x2
 .bss.event_flags
                0x00000000008062d1        0x2 build/free/production/application.o

.bss.data       0x0000000000806281        0x4
 .bss.data      0x0000000000806281        0x4 build/free/production/application.o

.bss.payload    0x0000000000806247        0xb
 .bss.payload   0x0000000000806247        0xb build/free/production/application.o
                0x0000000000806247                payload

.bss.secs       0x0000000000806285        0x4
 .bss.secs      0x0000000000806285        0x4 build/free/production/application.o
                0x0000000000806285                secs

.bss.millis     0x0000000000806289        0x4
 .bss.millis    0x0000000000806289        0x4 build/free/production/application.o
                0x0000000000806289                millis

.bss.t_fine     0x000000000080628d        0x4
 .bss.t_fine    0x000000000080628d        0x4 build/free/production/bme280.o
                0x000000000080628d                t_fine

.bss.adc_P      0x0000000000806291        0x4
 .bss.adc_P     0x0000000000806291        0x4 build/free/production/bme280.o
                0x0000000000806291                adc_P

.bss.adc_H      0x0000000000806295        0x4
 .bss.adc_H     0x0000000000806295        0x4 build/free/production/bme280.o
                0x0000000000806295                adc_H

.bss.adc_T      0x0000000000806299        0x4
 .bss.adc_T     0x0000000000806299        0x4 build/free/production/bme280.o
                0x0000000000806299                adc_T

.bss.calibParam
                0x0000000000806200       0x21
 .bss.calibParam
                0x0000000000806200       0x21 build/free/production/bme280.o
                0x0000000000806200                calibParam

.bss.bme280_ctrl_meas
                0x00000000008062d9        0x1
 .bss.bme280_ctrl_meas
                0x00000000008062d9        0x1 build/free/production/bme280.o
                0x00000000008062d9                bme280_ctrl_meas

.bss.bme280_ctrl_hum
                0x00000000008062da        0x1
 .bss.bme280_ctrl_hum
                0x00000000008062da        0x1 build/free/production/bme280.o
                0x00000000008062da                bme280_ctrl_hum

.bss.bme280_config
                0x00000000008062db        0x1
 .bss.bme280_config
                0x00000000008062db        0x1 build/free/production/bme280.o
                0x00000000008062db                bme280_config

.bss.rx_buffer  0x0000000000806277        0x5
 .bss.rx_buffer
                0x0000000000806277        0x5 build/free/production/RN2xx3.o
                0x0000000000806277                rx_buffer

.bss.tx_buffer  0x000000000080627c        0x5
 .bss.tx_buffer
                0x000000000080627c        0x5 build/free/production/RN2xx3.o
                0x000000000080627c                tx_buffer

.bss.tx_text    0x0000000000806002       0xff
 .bss.tx_text   0x0000000000806002       0xff build/free/production/RN2xx3.o

.bss.rx_text    0x0000000000806101       0xff
 .bss.rx_text   0x0000000000806101       0xff build/free/production/RN2xx3.o

.bss.__stdout   0x00000000008062d5        0x2
 .bss.__stdout  0x00000000008062d5        0x2 c:/program files/microchip/xc8/v2.40/avr/bin/../lib/gcc/avr/5.4.0/../../../../avr/lib/avrxmega2/memx-const/mapped\libc.a(stdout.o)

.rodata         0x0000000000808134      0x70b load address 0x0000000000000134
 .rodata        0x0000000000808134      0x70b build/free/production/RN2xx3.o

.rodata         0x000000000080883f      0x2eb load address 0x000000000000083f
 .rodata        0x000000000080883f      0x2eb build/free/production/application.o

.rodata         0x0000000000808b2a       0x2b load address 0x0000000000000b2a
 .rodata        0x0000000000808b2a       0x2b build/free/production/bme280.o

.rodata         0x0000000000808b55       0x1a load address 0x0000000000000b55
 .rodata        0x0000000000808b55       0x1a build/free/production/main.o

.text.powf      0x0000000000000b70      0xcf6
 .text.powf     0x0000000000000b70      0xcf6 c:/program files/microchip/xc8/v2.40/avr/bin/../lib/gcc/avr/5.4.0/../../../../avr/lib/avrxmega2/memx-const/mapped\libm.a(powf.o)
                0x0000000000000b70                pow
                0x0000000000000b70                powl
                0x0000000000000b70                powf

.text.vfpfcnvrt
                0x0000000000001866      0x3fc
 .text.vfpfcnvrt
                0x0000000000001866      0x3fc c:/program files/microchip/xc8/v2.40/avr/bin/../lib/gcc/avr/5.4.0/../../../../avr/lib/avrxmega2/memx-const/mapped\libc.a(__printf_core.o)
                0x0000000000001866                vfpfcnvrt

.text.BME280_compensatePressure
                0x0000000000001c62      0x2b0
 .text.BME280_compensatePressure
                0x0000000000001c62      0x2b0 build/free/production/bme280.o
                0x0000000000001c62                BME280_compensatePressure

.text.stateMachine
                0x0000000000001f12      0x23a
 .text.stateMachine
                0x0000000000001f12      0x23a build/free/production/application.o
                0x0000000000001f12                stateMachine

.text.sqrtf     0x000000000000214c      0x22a
 .text.sqrtf    0x000000000000214c      0x22a c:/program files/microchip/xc8/v2.40/avr/bin/../lib/gcc/avr/5.4.0/../../../../avr/lib/avrxmega2/memx-const/mapped\libm.a(sqrtf.o)
                0x000000000000214c                sqrtl
                0x000000000000214c                sqrtf
                0x000000000000214c                sqrt

.text.BME280_compensateHumidity
                0x0000000000002376      0x1f8
 .text.BME280_compensateHumidity
                0x0000000000002376      0x1f8 build/free/production/bme280.o
                0x0000000000002376                BME280_compensateHumidity

.text.__fmt_x   0x000000000000256e      0x1dc
 .text.__fmt_x  0x000000000000256e      0x1dc c:/program files/microchip/xc8/v2.40/avr/bin/../lib/gcc/avr/5.4.0/../../../../avr/lib/avrxmega2/memx-const/mapped\libc.a(__fmt_x.o)
                0x000000000000256e                __fmt_x_needed
                0x000000000000256e                __fmt_x

.text.RN2xx3_set_freq_plan
                0x000000000000274a      0x1a0
 .text.RN2xx3_set_freq_plan
                0x000000000000274a      0x1a0 build/free/production/RN2xx3.o
                0x000000000000274a                RN2xx3_set_freq_plan

.text.BME280_readFactoryCalibrationParams
                0x00000000000028ea      0x180
 .text.BME280_readFactoryCalibrationParams
                0x00000000000028ea      0x180 build/free/production/bme280.o
                0x00000000000028ea                BME280_readFactoryCalibrationParams

.text.PIN_MANAGER_Initialize
                0x0000000000002a6a      0x13e
 .text.PIN_MANAGER_Initialize
                0x0000000000002a6a      0x13e build/free/production/mcc_generated_files/system/src/pins.o
                0x0000000000002a6a                PIN_MANAGER_Initialize

.text.BME280_compensateTemperature
                0x0000000000002ba8      0x128
 .text.BME280_compensateTemperature
                0x0000000000002ba8      0x128 build/free/production/bme280.o
                0x0000000000002ba8                BME280_compensateTemperature

.text.formatPayload
                0x0000000000002cd0      0x122
 .text.formatPayload
                0x0000000000002cd0      0x122 build/free/production/application.o
                0x0000000000002cd0                formatPayload

.text.BME280_readMeasurements
                0x0000000000002df2      0x11e
 .text.BME280_readMeasurements
                0x0000000000002df2      0x11e build/free/production/bme280.o
                0x0000000000002df2                BME280_readMeasurements

.text.__fmt_d   0x0000000000002f10       0xe4
 .text.__fmt_d  0x0000000000002f10       0xe4 c:/program files/microchip/xc8/v2.40/avr/bin/../lib/gcc/avr/5.4.0/../../../../avr/lib/avrxmega2/memx-const/mapped\libc.a(__fmt_d.o)
                0x0000000000002f10                __fmt_d
                0x0000000000002f10                __fmt_d_needed

.text.printSensorData
                0x0000000000002ff4       0xe2
 .text.printSensorData
                0x0000000000002ff4       0xe2 build/free/production/application.o
                0x0000000000002ff4                printSensorData

.text           0x00000000000030d6       0xde
 .text          0x00000000000030d6       0xde c:/program files/microchip/xc8/v2.40/avr/bin/../lib/gcc/avr/5.4.0/../../../../avr/lib/avrxmega2/memx-const/mapped\libm.a(divsf3x.o)
                0x00000000000030d6                __divsf3x
                0x00000000000030fe                __divsf3_pse

.text           0x00000000000031b4       0xd4
 .text          0x00000000000031b4       0xd4 c:/program files/microchip/xc8/v2.40/avr/bin/../lib/gcc/avr/5.4.0/../../../../avr/lib/avrxmega2/memx-const/mapped\libm.a(mulsf3x.o)
                0x00000000000031b4                __mulsf3x
                0x00000000000031da                __mulsf3_pse

.text.__pop_int
                0x0000000000003288       0xd0
 .text.__pop_int
                0x0000000000003288       0xd0 c:/program files/microchip/xc8/v2.40/avr/bin/../lib/gcc/avr/5.4.0/../../../../avr/lib/avrxmega2/memx-const/mapped\libc.a(__pop_int.o)
                0x0000000000003288                __pop_int_needed
                0x0000000000003288                __pop_int

.text           0x0000000000003358       0xce
 .text          0x0000000000003358       0xce c:/program files/microchip/xc8/v2.40/avr/bin/../lib/gcc/avr/5.4.0/../../../../avr/lib/avrxmega2/memx-const/mapped\libm.a(addsf3x.o)
                0x0000000000003358                __addsf3x

.text.__cvt_u   0x0000000000003426       0xca
 .text.__cvt_u  0x0000000000003426       0xca c:/program files/microchip/xc8/v2.40/avr/bin/../lib/gcc/avr/5.4.0/../../../../avr/lib/avrxmega2/memx-const/mapped\libc.a(__fmt_u.o)
                0x0000000000003426                __cvt_u

.text.RN2xx3_init
                0x00000000000034f0       0xbe
 .text.RN2xx3_init
                0x00000000000034f0       0xbe build/free/production/RN2xx3.o
                0x00000000000034f0                RN2xx3_init

.text.scalbnf   0x00000000000035ae       0xb2
 .text.scalbnf  0x00000000000035ae       0xb2 c:/program files/microchip/xc8/v2.40/avr/bin/../lib/gcc/avr/5.4.0/../../../../avr/lib/avrxmega2/memx-const/mapped\libm.a(scalbnf.o)
                0x00000000000035ae                scalbnf

.text.__fmt_o   0x0000000000003660       0xb2
 .text.__fmt_o  0x0000000000003660       0xb2 c:/program files/microchip/xc8/v2.40/avr/bin/../lib/gcc/avr/5.4.0/../../../../avr/lib/avrxmega2/memx-const/mapped\libc.a(__fmt_o.o)
                0x0000000000003660                __fmt_o
                0x0000000000003660                __fmt_o_needed

.text.RN2xx3_config_OTAA
                0x0000000000003712       0xa2
 .text.RN2xx3_config_OTAA
                0x0000000000003712       0xa2 build/free/production/RN2xx3.o
                0x0000000000003712                RN2xx3_config_OTAA

.text.CLOCK_Initialize
                0x00000000000037b4       0x9c
 .text.CLOCK_Initialize
                0x00000000000037b4       0x9c build/free/production/mcc_generated_files/system/src/clock.o
                0x00000000000037b4                CLOCK_Initialize

.text.RN2xx3_getHWEUI
                0x0000000000003850       0x94
 .text.RN2xx3_getHWEUI
                0x0000000000003850       0x94 build/free/production/RN2xx3.o
                0x0000000000003850                RN2xx3_getHWEUI

.text.BME280_getPressure
                0x00000000000038e4       0x92
 .text.BME280_getPressure
                0x00000000000038e4       0x92 build/free/production/bme280.o
                0x00000000000038e4                BME280_getPressure

.text.fputc     0x0000000000003976       0x92
 .text.fputc    0x0000000000003976       0x92 c:/program files/microchip/xc8/v2.40/avr/bin/../lib/gcc/avr/5.4.0/../../../../avr/lib/avrxmega2/memx-const/mapped\libc.a(fputc.o)
                0x0000000000003976                fputc
                0x0000000000003976                putc

.text.TWI_sendAndReadBytes
                0x0000000000003a08       0x90
 .text.TWI_sendAndReadBytes
                0x0000000000003a08       0x90 build/free/production/TWI.o
                0x0000000000003a08                TWI_sendAndReadBytes

.text.__fmt_u   0x0000000000003a98       0x8e
 .text.__fmt_u  0x0000000000003a98       0x8e c:/program files/microchip/xc8/v2.40/avr/bin/../lib/gcc/avr/5.4.0/../../../../avr/lib/avrxmega2/memx-const/mapped\libc.a(__fmt_u.o)
                0x0000000000003a98                __fmt_u_needed
                0x0000000000003a98                __fmt_u

.text.RN2xx3_resp2
                0x0000000000003b26       0x82
 .text.RN2xx3_resp2
                0x0000000000003b26       0x82 build/free/production/RN2xx3.o
                0x0000000000003b26                RN2xx3_resp2

.text.__vector_24
                0x0000000000003ba8       0x80
 .text.__vector_24
                0x0000000000003ba8       0x80 build/free/production/mcc_generated_files/system/src/pins.o
                0x0000000000003ba8                __vector_24

.text.RN2xx3_tx_cnf
                0x0000000000003c28       0x7c
 .text.RN2xx3_tx_cnf
                0x0000000000003c28       0x7c build/free/production/RN2xx3.o
                0x0000000000003c28                RN2xx3_tx_cnf

.text.RN2xx3_tx_uncnf
                0x0000000000003ca4       0x7c
 .text.RN2xx3_tx_uncnf
                0x0000000000003ca4       0x7c build/free/production/RN2xx3.o
                0x0000000000003ca4                RN2xx3_tx_uncnf

.text           0x0000000000003d20       0x7a
 .text          0x0000000000003d20       0x7a c:/program files/microchip/xc8/v2.40/avr/bin/../lib/gcc/avr/5.4.0/../../../../avr/lib/avrxmega2/memx-const/mapped\libm.a(floatsisf.o)
                0x0000000000003d20                __floatunsisf
                0x0000000000003d24                __floatsisf

.text.RN2xx3_cmd
                0x0000000000003d9a       0x78
 .text.RN2xx3_cmd
                0x0000000000003d9a       0x78 build/free/production/RN2xx3.o
                0x0000000000003d9a                RN2xx3_cmd

.text.__printf_core
                0x0000000000003e12       0x78
 .text.__printf_core
                0x0000000000003e12       0x78 c:/program files/microchip/xc8/v2.40/avr/bin/../lib/gcc/avr/5.4.0/../../../../avr/lib/avrxmega2/memx-const/mapped\libc.a(__printf_core.o)
                0x0000000000003e12                __printf_core

.text.__vector_5
                0x0000000000003e8a       0x76
 .text.__vector_5
                0x0000000000003e8a       0x76 build/free/production/mcc_generated_files/timer/src/rtc.o
                0x0000000000003e8a                __vector_5

.text.RN2xx3_resp
                0x0000000000003f00       0x74
 .text.RN2xx3_resp
                0x0000000000003f00       0x74 build/free/production/RN2xx3.o
                0x0000000000003f00                RN2xx3_resp

.text.__vsnprintf
                0x0000000000003f74       0x74
 .text.__vsnprintf
                0x0000000000003f74       0x74 c:/program files/microchip/xc8/v2.40/avr/bin/../lib/gcc/avr/5.4.0/../../../../avr/lib/avrxmega2/memx-const/mapped\libc.a(__int_vsnprintf.o)
                0x0000000000003f74                __vsnprintf

.text.__vector_29
                0x0000000000003fe8       0x72
 .text.__vector_29
                0x0000000000003fe8       0x72 build/free/production/mcc_generated_files/system/src/pins.o
                0x0000000000003fe8                __vector_29

.text.__pad     0x000000000000405a       0x72
 .text.__pad    0x000000000000405a       0x72 c:/program files/microchip/xc8/v2.40/avr/bin/../lib/gcc/avr/5.4.0/../../../../avr/lib/avrxmega2/memx-const/mapped\libc.a(__printf_core.o)
                0x000000000000405a                __pad

.text.RN2xx3_interface
                0x00000000000040cc       0x6e
 .text.RN2xx3_interface
                0x00000000000040cc       0x6e build/free/production/RN2xx3.o
                0x00000000000040cc                RN2xx3_interface

.text.__vector_8
                0x000000000000413a       0x64
 .text.__vector_8
                0x000000000000413a       0x64 build/free/production/mcc_generated_files/system/src/pins.o
                0x000000000000413a                __vector_8

.text.__vector_34
                0x000000000000419e       0x64
 .text.__vector_34
                0x000000000000419e       0x64 build/free/production/mcc_generated_files/system/src/pins.o
                0x000000000000419e                __vector_34

.text.BME280_initializeSensor
                0x0000000000004202       0x62
 .text.BME280_initializeSensor
                0x0000000000004202       0x62 build/free/production/bme280.o
                0x0000000000004202                BME280_initializeSensor

.text.__vector_14
                0x0000000000004264       0x60
 .text.__vector_14
                0x0000000000004264       0x60 build/free/production/mcc_generated_files/timer/src/tcb0.o
                0x0000000000004264                __vector_14

.text.__vector_15
                0x00000000000042c4       0x60
 .text.__vector_15
                0x00000000000042c4       0x60 build/free/production/mcc_generated_files/timer/src/tcb1.o
                0x00000000000042c4                __vector_15

.text.RN2xx3_join_OTAA
                0x0000000000004324       0x5e
 .text.RN2xx3_join_OTAA
                0x0000000000004324       0x5e build/free/production/RN2xx3.o
                0x0000000000004324                RN2xx3_join_OTAA

.text           0x0000000000004382       0x5e
 .text          0x0000000000004382       0x5e c:/program files/microchip/xc8/v2.40/avr/bin/../lib/gcc/avr/5.4.0/../../../../avr/lib/avrxmega2/memx-const/mapped\libm.a(fixunssfsi.o)
                0x0000000000004382                __fixunssfsi

.text.fputs     0x00000000000043e0       0x5e
 .text.fputs    0x00000000000043e0       0x5e c:/program files/microchip/xc8/v2.40/avr/bin/../lib/gcc/avr/5.4.0/../../../../avr/lib/avrxmega2/memx-const/mapped\libc.a(fputs.o)
                0x00000000000043e0                fputs
                0x00000000000043e0                fputs_unlocked

.text.USART0_Initialize
                0x000000000000443e       0x5c
 .text.USART0_Initialize
                0x000000000000443e       0x5c build/free/production/mcc_generated_files/uart/src/usart0.o
                0x000000000000443e                USART0_Initialize

.text.read_prec_or_width
                0x000000000000449a       0x5c
 .text.read_prec_or_width
                0x000000000000449a       0x5c c:/program files/microchip/xc8/v2.40/avr/bin/../lib/gcc/avr/5.4.0/../../../../avr/lib/avrxmega2/memx-const/mapped\libc.a(__printf_core.o)

.text.ringBuffer_pushStr
                0x00000000000044f6       0x5a
 .text.ringBuffer_pushStr
                0x00000000000044f6       0x5a build/free/production/ringBuffer.o
                0x00000000000044f6                ringBuffer_pushStr

.text.__vector_27
                0x0000000000004550       0x58
 .text.__vector_27
                0x0000000000004550       0x58 build/free/production/mcc_generated_files/adc/src/adc0.o
                0x0000000000004550                __vector_27

.text.__vector_26
                0x00000000000045a8       0x58
 .text.__vector_26
                0x00000000000045a8       0x58 build/free/production/mcc_generated_files/adc/src/adc0.o
                0x00000000000045a8                __vector_26

.text.__vector_6
                0x0000000000004600       0x58
 .text.__vector_6
                0x0000000000004600       0x58 build/free/production/mcc_generated_files/timer/src/rtc.o
                0x0000000000004600                __vector_6

.text._readFromTWI
                0x0000000000004658       0x56
 .text._readFromTWI
                0x0000000000004658       0x56 build/free/production/TWI.o
                0x0000000000004658                _readFromTWI

.text.__fmt_s   0x00000000000046ae       0x54
 .text.__fmt_s  0x00000000000046ae       0x54 c:/program files/microchip/xc8/v2.40/avr/bin/../lib/gcc/avr/5.4.0/../../../../avr/lib/avrxmega2/memx-const/mapped\libc.a(__fmt_s.o)
                0x00000000000046ae                __fmt_s
                0x00000000000046ae                __fmt_0_needed
                0x00000000000046ae                __fmt_s_needed

.text._writeToTWI
                0x0000000000004702       0x4e
 .text._writeToTWI
                0x0000000000004702       0x4e build/free/production/TWI.o
                0x0000000000004702                _writeToTWI

.text.USART1_Initialize
                0x0000000000004750       0x4c
 .text.USART1_Initialize
                0x0000000000004750       0x4c build/free/production/mcc_generated_files/uart/src/usart1.o
                0x0000000000004750                USART1_Initialize

.text.EVSYS_Initialize
                0x000000000000479c       0x4a
 .text.EVSYS_Initialize
                0x000000000000479c       0x4a build/free/production/mcc_generated_files/evsys/src/evsys.o
                0x000000000000479c                EVSYS_Initialize

.text._startTWI
                0x00000000000047e6       0x4a
 .text._startTWI
                0x00000000000047e6       0x4a build/free/production/TWI.o
                0x00000000000047e6                _startTWI

.text           0x0000000000004830       0x48
 .text          0x0000000000004830       0x48 c:/program files/microchip/xc8/v2.40/avr/bin/../lib/gcc/avr/5.4.0/../../../../avr/lib/avrxmega2/memx-const/mapped\libm.a(fp_cmp.o)
                0x0000000000004830                __fp_cmp

.text.getSensorData
                0x0000000000004878       0x46
 .text.getSensorData
                0x0000000000004878       0x46 build/free/production/application.o
                0x0000000000004878                getSensorData

.text.USART0_sendStr
                0x00000000000048be       0x44
 .text.USART0_sendStr
                0x00000000000048be       0x44 build/free/production/ringBuffer.o
                0x00000000000048be                USART0_sendStr

.text           0x0000000000004902       0x44
 .text          0x0000000000004902       0x44 c:/program files/microchip/xc8/v2.40/avr/bin/../lib/gcc/avr/5.4.0/../../../../avr/lib/avrxmega2/memx-const/mapped\libm.a(fp_split3.o)
                0x0000000000004902                __fp_split3
                0x0000000000004912                __fp_splitA

.text.libgcc.div
                0x0000000000004946       0x44
 .text.libgcc.div
                0x0000000000004946       0x44 c:/program files/microchip/xc8/v2.40/avr/bin/../lib/gcc/avr/5.4.0/avrxmega2/memx-const/mapped\libgcc.a(_udivmodsi4.o)
                0x0000000000004946                __udivmodsi4

.text.BME280_init
                0x000000000000498a       0x42
 .text.BME280_init
                0x000000000000498a       0x42 build/free/production/bme280.o
                0x000000000000498a                BME280_init

.text.__fmt_state
                0x00000000000049cc       0x40
 .text.__fmt_state
                0x00000000000049cc       0x40 c:/program files/microchip/xc8/v2.40/avr/bin/../lib/gcc/avr/5.4.0/../../../../avr/lib/avrxmega2/memx-const/mapped\libc.a(__printf_core.o)
                0x00000000000049cc                __fmt_state

.text.BUTTON_debounce
                0x0000000000004a0c       0x3c
 .text.BUTTON_debounce
                0x0000000000004a0c       0x3c build/free/production/application.o
                0x0000000000004a0c                BUTTON_debounce

.text.map       0x0000000000004a48       0x3c
 .text.map      0x0000000000004a48       0x3c build/free/production/application.o
                0x0000000000004a48                map

.text.RTC_Initialize
                0x0000000000004a84       0x3a
 .text.RTC_Initialize
                0x0000000000004a84       0x3a build/free/production/mcc_generated_files/timer/src/rtc.o
                0x0000000000004a84                RTC_Initialize

.text.__out     0x0000000000004abe       0x3a
 .text.__out    0x0000000000004abe       0x3a c:/program files/microchip/xc8/v2.40/avr/bin/../lib/gcc/avr/5.4.0/../../../../avr/lib/avrxmega2/memx-const/mapped\libc.a(__printf_core.o)
                0x0000000000004abe                __out

.text.BME280_startForcedSensing
                0x0000000000004af8       0x34
 .text.BME280_startForcedSensing
                0x0000000000004af8       0x34 build/free/production/bme280.o
                0x0000000000004af8                BME280_startForcedSensing

.text.ADC0_Initialize
                0x0000000000004b2c       0x32
 .text.ADC0_Initialize
                0x0000000000004b2c       0x32 build/free/production/mcc_generated_files/adc/src/adc0.o
                0x0000000000004b2c                ADC0_Initialize

.text.SYSTEM_Initialize
                0x0000000000004b5e       0x32
 .text.SYSTEM_Initialize
                0x0000000000004b5e       0x32 build/free/production/mcc_generated_files/system/src/system.o
                0x0000000000004b5e                SYSTEM_Initialize

.text.libgcc.prologue
                0x0000000000004b90       0x32
 .text.libgcc.prologue
                0x0000000000004b90       0x32 c:/program files/microchip/xc8/v2.40/avr/bin/../lib/gcc/avr/5.4.0/avrxmega2/memx-const/mapped\libgcc.a(_prologue.o)
                0x0000000000004b90                __prologue_saves__

.text.libgcc.prologue
                0x0000000000004bc2       0x30
 .text.libgcc.prologue
                0x0000000000004bc2       0x30 c:/program files/microchip/xc8/v2.40/avr/bin/../lib/gcc/avr/5.4.0/avrxmega2/memx-const/mapped\libgcc.a(_epilogue.o)
                0x0000000000004bc2                __epilogue_restores__

.text.__wrap_printf
                0x0000000000004bf2       0x30
 .text.__wrap_printf
                0x0000000000004bf2       0x30 c:/program files/microchip/xc8/v2.40/avr/bin/../lib/gcc/avr/5.4.0/../../../../avr/lib/avrxmega2/memx-const/mapped\libc.a(__sio_printf_dosux.o)
                0x0000000000004bf2                _printf_cdopsuxX

.text.__wrap_printf
                0x0000000000004c22       0x30
 .text.__wrap_printf
                0x0000000000004c22       0x30 c:/program files/microchip/xc8/v2.40/avr/bin/../lib/gcc/avr/5.4.0/../../../../avr/lib/avrxmega2/memx-const/mapped\libc.a(__sio_printf_doux.o)
                0x0000000000004c22                _printf_cdopuxX

.text.__wrap_printf
                0x0000000000004c52       0x30
 .text.__wrap_printf
                0x0000000000004c52       0x30 c:/program files/microchip/xc8/v2.40/avr/bin/../lib/gcc/avr/5.4.0/../../../../avr/lib/avrxmega2/memx-const/mapped\libc.a(__sio_printf_s.o)
                0x0000000000004c52                _printf_s

.text.__vfprintf
                0x0000000000004c82       0x30
 .text.__vfprintf
                0x0000000000004c82       0x30 c:/program files/microchip/xc8/v2.40/avr/bin/../lib/gcc/avr/5.4.0/../../../../avr/lib/avrxmega2/memx-const/mapped\libc.a(__int_vfprintf.o)
                0x0000000000004c82                __vfprintf

.text.main      0x0000000000004cb2       0x2e
 .text.main     0x0000000000004cb2       0x2e build/free/production/main.o
                0x0000000000004cb2                main

.text.TWI_sendBytes
                0x0000000000004ce0       0x2a
 .text.TWI_sendBytes
                0x0000000000004ce0       0x2a build/free/production/TWI.o
                0x0000000000004ce0                TWI_sendBytes

.text.BME280_reset
                0x0000000000004d0a       0x2a
 .text.BME280_reset
                0x0000000000004d0a       0x2a build/free/production/bme280.o
                0x0000000000004d0a                BME280_reset

.text.TIMER_ms  0x0000000000004d34       0x28
 .text.TIMER_ms
                0x0000000000004d34       0x28 build/free/production/application.o
                0x0000000000004d34                TIMER_ms

.text.RTC_PIT_Callback
                0x0000000000004d5c       0x28
 .text.RTC_PIT_Callback
                0x0000000000004d5c       0x28 build/free/production/application.o
                0x0000000000004d5c                RTC_PIT_Callback

.text.ringBuffer_push
                0x0000000000004d84       0x28
 .text.ringBuffer_push
                0x0000000000004d84       0x28 build/free/production/ringBuffer.o
                0x0000000000004d84                ringBuffer_push

.text.TCB0_Initialize
                0x0000000000004dac       0x26
 .text.TCB0_Initialize
                0x0000000000004dac       0x26 build/free/production/mcc_generated_files/timer/src/tcb0.o
                0x0000000000004dac                TCB0_Initialize

.text.TCB1_Initialize
                0x0000000000004dd2       0x24
 .text.TCB1_Initialize
                0x0000000000004dd2       0x24 build/free/production/mcc_generated_files/timer/src/tcb1.o
                0x0000000000004dd2                TCB1_Initialize

.text.__wrap_sprintf
                0x0000000000004df6       0x24
 .text.__wrap_sprintf
                0x0000000000004df6       0x24 c:/program files/microchip/xc8/v2.40/avr/bin/../lib/gcc/avr/5.4.0/../../../../avr/lib/avrxmega2/memx-const/mapped\libc.a(__sio_sprintf_doux.o)
                0x0000000000004df6                _sprintf_cdopuxX

.text           0x0000000000004e1a       0x22
 .text          0x0000000000004e1a       0x22 c:/program files/microchip/xc8/v2.40/avr/bin/../lib/gcc/avr/5.4.0/../../../../avr/lib/avrxmega2/memx-const/mapped\libm.a(fp_round.o)
                0x0000000000004e1a                __fp_round

.text.ADC0_GetConversion
                0x0000000000004e3c       0x20
 .text.ADC0_GetConversion
                0x0000000000004e3c       0x20 build/free/production/mcc_generated_files/adc/src/adc0.o
                0x0000000000004e3c                ADC0_GetConversion

.text.printRawValue
                0x0000000000004e5c       0x20
 .text.printRawValue
                0x0000000000004e5c       0x20 build/free/production/application.o
                0x0000000000004e5c                printRawValue

.text.libgcc.mul
                0x0000000000004e7c       0x20
 .text.libgcc.mul
                0x0000000000004e7c       0x20 c:/program files/microchip/xc8/v2.40/avr/bin/../lib/gcc/avr/5.4.0/avrxmega2/memx-const/mapped\libgcc.a(_mulsi3.o)
                0x0000000000004e7c                __mulsi3

.text.libgcc.mul
                0x0000000000004e9c       0x1e
 .text.libgcc.mul
                0x0000000000004e9c       0x1e c:/program files/microchip/xc8/v2.40/avr/bin/../lib/gcc/avr/5.4.0/avrxmega2/memx-const/mapped\libgcc.a(_umulhisi3.o)
                0x0000000000004e9c                __umulhisi3

.text.SLPCTRL_Initialize
                0x0000000000004eba       0x1c
 .text.SLPCTRL_Initialize
                0x0000000000004eba       0x1c build/free/production/mcc_generated_files/system/src/system.o
                0x0000000000004eba                SLPCTRL_Initialize

.text.isTWIBad  0x0000000000004ed6       0x1c
 .text.isTWIBad
                0x0000000000004ed6       0x1c build/free/production/TWI.o
                0x0000000000004ed6                isTWIBad

.text.TWI_initHost
                0x0000000000004ef2       0x1c
 .text.TWI_initHost
                0x0000000000004ef2       0x1c build/free/production/TWI.o
                0x0000000000004ef2                TWI_initHost

.text.USART0_sendByte
                0x0000000000004f0e       0x1c
 .text.USART0_sendByte
                0x0000000000004f0e       0x1c build/free/production/ringBuffer.o
                0x0000000000004f0e                USART0_sendByte

.text.RN2xx3_save
                0x0000000000004f2a       0x1c
 .text.RN2xx3_save
                0x0000000000004f2a       0x1c build/free/production/RN2xx3.o
                0x0000000000004f2a                RN2xx3_save

.text.strlen    0x0000000000004f46       0x1c
 .text.strlen   0x0000000000004f46       0x1c c:/program files/microchip/xc8/v2.40/avr/bin/../lib/gcc/avr/5.4.0/../../../../avr/lib/avrxmega2/memx-const/mapped\libc.a(strlen.o)
                0x0000000000004f46                strlen

.text.CPUINT_Initialize
                0x0000000000004f62       0x1a
 .text.CPUINT_Initialize
                0x0000000000004f62       0x1a build/free/production/mcc_generated_files/system/src/interrupt.o
                0x0000000000004f62                CPUINT_Initialize

.text.USART0_printCHAR
                0x0000000000004f7c       0x18
 .text.USART0_printCHAR
                0x0000000000004f7c       0x18 build/free/production/mcc_generated_files/uart/src/usart0.o
                0x0000000000004f7c                USART0_printCHAR

.text.BME280_getTemperature
                0x0000000000004f94       0x16
 .text.BME280_getTemperature
                0x0000000000004f94       0x16 build/free/production/bme280.o
                0x0000000000004f94                BME280_getTemperature

.text.BME280_getHumidity
                0x0000000000004faa       0x16
 .text.BME280_getHumidity
                0x0000000000004faa       0x16 build/free/production/bme280.o
                0x0000000000004faa                BME280_getHumidity

.text.libgcc.mul
                0x0000000000004fc0       0x16
 .text.libgcc.mul
                0x0000000000004fc0       0x16 c:/program files/microchip/xc8/v2.40/avr/bin/../lib/gcc/avr/5.4.0/avrxmega2/memx-const/mapped\libgcc.a(_muluhisi3.o)
                0x0000000000004fc0                __muluhisi3

.text.exit      0x0000000000004fd6       0x16
 .text.exit     0x0000000000004fd6       0x16 c:/program files/microchip/xc8/v2.40/avr/bin/../lib/gcc/avr/5.4.0/../../../../avr/lib/avrxmega2/memx-const/mapped\libc.a(exit.o)
                0x0000000000004fd6                exit

.text.ringBuffer_pop
                0x0000000000004fec       0x14
 .text.ringBuffer_pop
                0x0000000000004fec       0x14 build/free/production/ringBuffer.o
                0x0000000000004fec                ringBuffer_pop

.text.RN2xx3_join_TTN
                0x0000000000005000       0x12
 .text.RN2xx3_join_TTN
                0x0000000000005000       0x12 build/free/production/RN2xx3.o
                0x0000000000005000                RN2xx3_join_TTN

.text.puts      0x0000000000005012       0x12
 .text.puts     0x0000000000005012       0x12 c:/program files/microchip/xc8/v2.40/avr/bin/../lib/gcc/avr/5.4.0/../../../../avr/lib/avrxmega2/memx-const/mapped\libc.a(puts.o)
                0x0000000000005012                puts

.text.toupper   0x0000000000005024       0x12
 .text.toupper  0x0000000000005024       0x12 c:/program files/microchip/xc8/v2.40/avr/bin/../lib/gcc/avr/5.4.0/../../../../avr/lib/avrxmega2/memx-const/mapped\libc.a(toupper.o)
                0x0000000000005024                toupper

.text.VREF_Initialize
                0x0000000000005036       0x10
 .text.VREF_Initialize
                0x0000000000005036       0x10 build/free/production/mcc_generated_files/vref/src/vref.o
                0x0000000000005036                VREF_Initialize

.text.configureTWIPins
                0x0000000000005046       0x10
 .text.configureTWIPins
                0x0000000000005046       0x10 build/free/production/TWI.o
                0x0000000000005046                configureTWIPins

.text.libgcc.mul
                0x0000000000005056       0x10
 .text.libgcc.mul
                0x0000000000005056       0x10 c:/program files/microchip/xc8/v2.40/avr/bin/../lib/gcc/avr/5.4.0/avrxmega2/memx-const/mapped\libgcc.a(_mulshisi3.o)
                0x0000000000005056                __mulshisi3
                0x000000000000505c                __mulohisi3

.text.tolower   0x0000000000005066       0x10
 .text.tolower  0x0000000000005066       0x10 c:/program files/microchip/xc8/v2.40/avr/bin/../lib/gcc/avr/5.4.0/../../../../avr/lib/avrxmega2/memx-const/mapped\libc.a(tolower.o)
                0x0000000000005066                tolower

.text.ringBuffer_init
                0x0000000000005076        0xe
 .text.ringBuffer_init
                0x0000000000005076        0xe build/free/production/ringBuffer.o
                0x0000000000005076                ringBuffer_init

.text           0x0000000000005084        0xe
 .text          0x0000000000005084        0xe c:/program files/microchip/xc8/v2.40/avr/bin/../lib/gcc/avr/5.4.0/../../../../avr/lib/avrxmega2/memx-const/mapped\libm.a(addsf3.o)
                0x0000000000005084                __subsf3
                0x0000000000005086                __addsf3

.text           0x0000000000005092        0xe
 .text          0x0000000000005092        0xe c:/program files/microchip/xc8/v2.40/avr/bin/../lib/gcc/avr/5.4.0/../../../../avr/lib/avrxmega2/memx-const/mapped\libm.a(fixsfsi.o)
                0x0000000000005092                __fixsfsi

.text           0x00000000000050a0        0xe
 .text          0x00000000000050a0        0xe c:/program files/microchip/xc8/v2.40/avr/bin/../lib/gcc/avr/5.4.0/../../../../avr/lib/avrxmega2/memx-const/mapped\libm.a(fp_pscA.o)
                0x00000000000050a0                __fp_pscA

.text           0x00000000000050ae        0xe
 .text          0x00000000000050ae        0xe c:/program files/microchip/xc8/v2.40/avr/bin/../lib/gcc/avr/5.4.0/../../../../avr/lib/avrxmega2/memx-const/mapped\libm.a(fp_pscB.o)
                0x00000000000050ae                __fp_pscB

.text           0x00000000000050bc        0xe
 .text          0x00000000000050bc        0xe c:/program files/microchip/xc8/v2.40/avr/bin/../lib/gcc/avr/5.4.0/../../../../avr/lib/avrxmega2/memx-const/mapped\libm.a(fp_zero.o)
                0x00000000000050bc                __fp_zero
                0x00000000000050be                __fp_szero

.text.__vsprintf
                0x00000000000050ca        0xe
 .text.__vsprintf
                0x00000000000050ca        0xe c:/program files/microchip/xc8/v2.40/avr/bin/../lib/gcc/avr/5.4.0/../../../../avr/lib/avrxmega2/memx-const/mapped\libc.a(__int_vsprintf.o)
                0x00000000000050ca                __vsprintf

.text.RTC_Start
                0x00000000000050d8        0xc
 .text.RTC_Start
                0x00000000000050d8        0xc build/free/production/mcc_generated_files/timer/src/rtc.o
                0x00000000000050d8                RTC_Start

.text.RTC_Stop  0x00000000000050e4        0xc
 .text.RTC_Stop
                0x00000000000050e4        0xc build/free/production/mcc_generated_files/timer/src/rtc.o
                0x00000000000050e4                RTC_Stop

.text.USART0_IsRxReady
                0x00000000000050f0        0xc
 .text.USART0_IsRxReady
                0x00000000000050f0        0xc build/free/production/mcc_generated_files/uart/src/usart0.o
                0x00000000000050f0                USART0_IsRxReady

.text.USART0_IsTxReady
                0x00000000000050fc        0xc
 .text.USART0_IsTxReady
                0x00000000000050fc        0xc build/free/production/mcc_generated_files/uart/src/usart0.o
                0x00000000000050fc                USART0_IsTxReady

.text.USART1_IsRxReady
                0x0000000000005108        0xc
 .text.USART1_IsRxReady
                0x0000000000005108        0xc build/free/production/mcc_generated_files/uart/src/usart1.o
                0x0000000000005108                USART1_IsRxReady

.text.USART1_IsTxReady
                0x0000000000005114        0xc
 .text.USART1_IsTxReady
                0x0000000000005114        0xc build/free/production/mcc_generated_files/uart/src/usart1.o
                0x0000000000005114                USART1_IsTxReady

.text.getMoistureMeasurement
                0x0000000000005120        0xc
 .text.getMoistureMeasurement
                0x0000000000005120        0xc build/free/production/application.o
                0x0000000000005120                getMoistureMeasurement

.text           0x000000000000512c        0xc
 .text          0x000000000000512c        0xc c:/program files/microchip/xc8/v2.40/avr/bin/../lib/gcc/avr/5.4.0/../../../../avr/lib/avrxmega2/memx-const/mapped\libm.a(fp_inf.o)
                0x000000000000512c                __fp_inf

.text.libgcc    0x0000000000005138        0xc
 .text.libgcc   0x0000000000005138        0xc c:/program files/microchip/xc8/v2.40/avr/bin/../lib/gcc/avr/5.4.0/avrxmega2/memx-const/mapped\libgcc.a(_tablejump2.o)
                0x0000000000005138                __tablejump2__

.text.TCB0_CaptureCallbackRegister
                0x0000000000005144        0xa
 .text.TCB0_CaptureCallbackRegister
                0x0000000000005144        0xa build/free/production/mcc_generated_files/timer/src/tcb0.o
                0x0000000000005144                TCB0_CaptureCallbackRegister

.text.RTC_SetPITIsrCallback
                0x000000000000514e        0xa
 .text.RTC_SetPITIsrCallback
                0x000000000000514e        0xa build/free/production/mcc_generated_files/timer/src/rtc.o
                0x000000000000514e                RTC_SetPITIsrCallback

.text.TCB1_CaptureCallbackRegister
                0x0000000000005158        0xa
 .text.TCB1_CaptureCallbackRegister
                0x0000000000005158        0xa build/free/production/mcc_generated_files/timer/src/tcb1.o
                0x0000000000005158                TCB1_CaptureCallbackRegister

.text.BME280_readSensors
                0x0000000000005162        0xa
 .text.BME280_readSensors
                0x0000000000005162        0xa build/free/production/application.o
                0x0000000000005162                BME280_readSensors

.text.ringBuffer_count
                0x000000000000516c        0xa
 .text.ringBuffer_count
                0x000000000000516c        0xa build/free/production/ringBuffer.o
                0x000000000000516c                ringBuffer_count

.text           0x0000000000005176        0xa
 .text          0x0000000000005176        0xa c:/program files/microchip/xc8/v2.40/avr/bin/../lib/gcc/avr/5.4.0/../../../../avr/lib/avrxmega2/memx-const/mapped\libm.a(cmpsf2.o)
                0x0000000000005176                __nesf2
                0x0000000000005176                __eqsf2
                0x0000000000005176                __cmpsf2
                0x0000000000005176                __ltsf2
                0x0000000000005176                __lesf2

.text           0x0000000000005180        0xa
 .text          0x0000000000005180        0xa c:/program files/microchip/xc8/v2.40/avr/bin/../lib/gcc/avr/5.4.0/../../../../avr/lib/avrxmega2/memx-const/mapped\libm.a(gesf2.o)
                0x0000000000005180                __gesf2
                0x0000000000005180                __gtsf2

.text.ADC0_IsConversionDone
                0x000000000000518a        0x8
 .text.ADC0_IsConversionDone
                0x000000000000518a        0x8 build/free/production/mcc_generated_files/adc/src/adc0.o
                0x000000000000518a                ADC0_IsConversionDone

.text.protected_write_io
                0x0000000000005192        0x8
 .text.protected_write_io
                0x0000000000005192        0x8 build/free/production/mcc_generated_files/system/src/protected_io.o
                0x0000000000005192                protected_write_io

.text           0x000000000000519a        0x8
 .text          0x000000000000519a        0x8 c:/program files/microchip/xc8/v2.40/avr/bin/../lib/gcc/avr/5.4.0/../../../../avr/lib/avrxmega2/memx-const/mapped\libm.a(divsf3.o)
                0x000000000000519a                __divsf3

.text           0x00000000000051a2        0x8
 .text          0x00000000000051a2        0x8 c:/program files/microchip/xc8/v2.40/avr/bin/../lib/gcc/avr/5.4.0/../../../../avr/lib/avrxmega2/memx-const/mapped\libm.a(mulsf3.o)
                0x00000000000051a2                __mulsf3

.text.USART0_Read
                0x00000000000051aa        0x6
 .text.USART0_Read
                0x00000000000051aa        0x6 build/free/production/mcc_generated_files/uart/src/usart0.o
                0x00000000000051aa                USART0_Read

.text.USART0_Write
                0x00000000000051b0        0x6
 .text.USART0_Write
                0x00000000000051b0        0x6 build/free/production/mcc_generated_files/uart/src/usart0.o
                0x00000000000051b0                USART0_Write

.text.USART1_Read
                0x00000000000051b6        0x6
 .text.USART1_Read
                0x00000000000051b6        0x6 build/free/production/mcc_generated_files/uart/src/usart1.o
                0x00000000000051b6                USART1_Read

.text.USART1_Write
                0x00000000000051bc        0x6
 .text.USART1_Write
                0x00000000000051bc        0x6 build/free/production/mcc_generated_files/uart/src/usart1.o
                0x00000000000051bc                USART1_Write

.text.RN2xx3_config_TTN
                0x00000000000051c2        0x6
 .text.RN2xx3_config_TTN
                0x00000000000051c2        0x6 build/free/production/RN2xx3.o
                0x00000000000051c2                RN2xx3_config_TTN

.text           0x00000000000051c8        0x6
 .text          0x00000000000051c8        0x6 c:/program files/microchip/xc8/v2.40/avr/bin/../lib/gcc/avr/5.4.0/../../../../avr/lib/avrxmega2/memx-const/mapped\libm.a(fp_nan.o)
                0x00000000000051c8                __fp_nan

.text           0x00000000000051ce        0x4
 .text          0x00000000000051ce        0x4 C:/Users/C70348/.mchp_packs/Microchip/AVR-Dx_DFP/2.1.152/xc8/avr/lib/avrxmega2/memx-const/mapped/crtavr64dd32.o
                0x00000000000051ce                __vector_22
                0x00000000000051ce                __vector_28
                0x00000000000051ce                __vector_1
                0x00000000000051ce                __vector_32
                0x00000000000051ce                __vector_12
                0x00000000000051ce                __bad_interrupt
                0x00000000000051ce                __vector_31
                0x00000000000051ce                __vector_35
                0x00000000000051ce                __vector_3
                0x00000000000051ce                __vector_23
                0x00000000000051ce                __vector_30
                0x00000000000051ce                __vector_25
                0x00000000000051ce                __vector_11
                0x00000000000051ce                __vector_13
                0x00000000000051ce                __vector_17
                0x00000000000051ce                __vector_19
                0x00000000000051ce                __vector_7
                0x00000000000051ce                __vector_33
                0x00000000000051ce                __vector_4
                0x00000000000051ce                __vector_9
                0x00000000000051ce                __vector_2
                0x00000000000051ce                __vector_21
                0x00000000000051ce                __vector_10
                0x00000000000051ce                __vector_16
                0x00000000000051ce                __vector_18
                0x00000000000051ce                __vector_20

.text.fabsf     0x00000000000051d2        0x4
 .text.fabsf    0x00000000000051d2        0x4 c:/program files/microchip/xc8/v2.40/avr/bin/../lib/gcc/avr/5.4.0/../../../../avr/lib/avrxmega2/memx-const/mapped\libm.a(fabsf.o)
                0x00000000000051d2                fabsf

.text._Exit     0x00000000000051d6        0x4
 .text._Exit    0x00000000000051d6        0x4 c:/program files/microchip/xc8/v2.40/avr/bin/../lib/gcc/avr/5.4.0/../../../../avr/lib/avrxmega2/memx-const/mapped\libc.a(_Exit.o)
                0x00000000000051d6                _Exit

.text.PC1_DefaultInterruptHandler
                0x00000000000051da        0x2
 .text.PC1_DefaultInterruptHandler
                0x00000000000051da        0x2 build/free/production/mcc_generated_files/system/src/pins.o
                0x00000000000051da                PC1_DefaultInterruptHandler

.text.PC0_DefaultInterruptHandler
                0x00000000000051dc        0x2
 .text.PC0_DefaultInterruptHandler
                0x00000000000051dc        0x2 build/free/production/mcc_generated_files/system/src/pins.o
                0x00000000000051dc                PC0_DefaultInterruptHandler

.text.PD2_DefaultInterruptHandler
                0x00000000000051de        0x2
 .text.PD2_DefaultInterruptHandler
                0x00000000000051de        0x2 build/free/production/mcc_generated_files/system/src/pins.o
                0x00000000000051de                PD2_DefaultInterruptHandler

.text.PD5_DefaultInterruptHandler
                0x00000000000051e0        0x2
 .text.PD5_DefaultInterruptHandler
                0x00000000000051e0        0x2 build/free/production/mcc_generated_files/system/src/pins.o
                0x00000000000051e0                PD5_DefaultInterruptHandler

.text.PD4_DefaultInterruptHandler
                0x00000000000051e2        0x2
 .text.PD4_DefaultInterruptHandler
                0x00000000000051e2        0x2 build/free/production/mcc_generated_files/system/src/pins.o
                0x00000000000051e2                PD4_DefaultInterruptHandler

.text.PF6_DefaultInterruptHandler
                0x00000000000051e4        0x2
 .text.PF6_DefaultInterruptHandler
                0x00000000000051e4        0x2 build/free/production/mcc_generated_files/system/src/pins.o
                0x00000000000051e4                PF6_DefaultInterruptHandler

.text.PA0_DefaultInterruptHandler
                0x00000000000051e6        0x2
 .text.PA0_DefaultInterruptHandler
                0x00000000000051e6        0x2 build/free/production/mcc_generated_files/system/src/pins.o
                0x00000000000051e6                PA0_DefaultInterruptHandler

.text.PA1_DefaultInterruptHandler
                0x00000000000051e8        0x2
 .text.PA1_DefaultInterruptHandler
                0x00000000000051e8        0x2 build/free/production/mcc_generated_files/system/src/pins.o
                0x00000000000051e8                PA1_DefaultInterruptHandler

.text.PC2_DefaultInterruptHandler
                0x00000000000051ea        0x2
 .text.PC2_DefaultInterruptHandler
                0x00000000000051ea        0x2 build/free/production/mcc_generated_files/system/src/pins.o
                0x00000000000051ea                PC2_DefaultInterruptHandler

.text.PD1_DefaultInterruptHandler
                0x00000000000051ec        0x2
 .text.PD1_DefaultInterruptHandler
                0x00000000000051ec        0x2 build/free/production/mcc_generated_files/system/src/pins.o
                0x00000000000051ec                PD1_DefaultInterruptHandler

.text.PF5_DefaultInterruptHandler
                0x00000000000051ee        0x2
 .text.PF5_DefaultInterruptHandler
                0x00000000000051ee        0x2 build/free/production/mcc_generated_files/system/src/pins.o
                0x00000000000051ee                PF5_DefaultInterruptHandler

.text.USART0_DefaultFramingErrorCallback
                0x00000000000051f0        0x2
 .text.USART0_DefaultFramingErrorCallback
                0x00000000000051f0        0x2 build/free/production/mcc_generated_files/uart/src/usart0.o

.text.USART0_DefaultOverrunErrorCallback
                0x00000000000051f2        0x2
 .text.USART0_DefaultOverrunErrorCallback
                0x00000000000051f2        0x2 build/free/production/mcc_generated_files/uart/src/usart0.o

.text.USART0_DefaultParityErrorCallback
                0x00000000000051f4        0x2
 .text.USART0_DefaultParityErrorCallback
                0x00000000000051f4        0x2 build/free/production/mcc_generated_files/uart/src/usart0.o

.text.USART1_DefaultFramingErrorCallback
                0x00000000000051f6        0x2
 .text.USART1_DefaultFramingErrorCallback
                0x00000000000051f6        0x2 build/free/production/mcc_generated_files/uart/src/usart1.o

.text.USART1_DefaultOverrunErrorCallback
                0x00000000000051f8        0x2
 .text.USART1_DefaultOverrunErrorCallback
                0x00000000000051f8        0x2 build/free/production/mcc_generated_files/uart/src/usart1.o

.text.USART1_DefaultParityErrorCallback
                0x00000000000051fa        0x2
 .text.USART1_DefaultParityErrorCallback
                0x00000000000051fa        0x2 build/free/production/mcc_generated_files/uart/src/usart1.o

.text.__dummy_fini
                0x00000000000051fc        0x2
 .text.__dummy_fini
                0x00000000000051fc        0x2 c:/program files/microchip/xc8/v2.40/avr/bin/../lib/gcc/avr/5.4.0/../../../../avr/lib/avrxmega2/memx-const/mapped\libc.a(exit.o)
                0x00000000000051fc                _fini

.text.__dummy_funcs_on_exit
                0x00000000000051fe        0x2
 .text.__dummy_funcs_on_exit
                0x00000000000051fe        0x2 c:/program files/microchip/xc8/v2.40/avr/bin/../lib/gcc/avr/5.4.0/../../../../avr/lib/avrxmega2/memx-const/mapped\libc.a(exit.o)
                0x00000000000051fe                __funcs_on_exit

.text.__dummy_simulator_exit
                0x0000000000005200        0x2
 .text.__dummy_simulator_exit
                0x0000000000005200        0x2 c:/program files/microchip/xc8/v2.40/avr/bin/../lib/gcc/avr/5.4.0/../../../../avr/lib/avrxmega2/memx-const/mapped\libc.a(exit.o)
                0x0000000000005200                __simulator_exit

.rodata.state_table
                0x0000000000806221       0x16 load address 0x0000000000005202
 .rodata.state_table
                0x0000000000806221       0x16 c:/program files/microchip/xc8/v2.40/avr/bin/../lib/gcc/avr/5.4.0/../../../../avr/lib/avrxmega2/memx-const/mapped\libc.a(__printf_core.o)

.data.USART0_stream
                0x0000000000806237       0x10 load address 0x0000000000005218
 .data.USART0_stream
                0x0000000000806237       0x10 build/free/production/mcc_generated_files/uart/src/usart0.o
                0x0000000000806237                USART0_stream

.rodata.dp_l    0x0000000000806252        0x8 load address 0x0000000000005228
 .rodata.dp_l   0x0000000000806252        0x8 c:/program files/microchip/xc8/v2.40/avr/bin/../lib/gcc/avr/5.4.0/../../../../avr/lib/avrxmega2/memx-const/mapped\libm.a(powf.o)

.rodata.dp_h    0x000000000080625a        0x8 load address 0x0000000000005230
 .rodata.dp_h   0x000000000080625a        0x8 c:/program files/microchip/xc8/v2.40/avr/bin/../lib/gcc/avr/5.4.0/../../../../avr/lib/avrxmega2/memx-const/mapped\libm.a(powf.o)

.rodata.bp      0x0000000000806262        0x8 load address 0x0000000000005238
 .rodata.bp     0x0000000000806262        0x8 c:/program files/microchip/xc8/v2.40/avr/bin/../lib/gcc/avr/5.4.0/../../../../avr/lib/avrxmega2/memx-const/mapped\libm.a(powf.o)

.rodata.nuls.2781
                0x000000000080626a        0x7 load address 0x0000000000005240
 .rodata.nuls.2781
                0x000000000080626a        0x7 c:/program files/microchip/xc8/v2.40/avr/bin/../lib/gcc/avr/5.4.0/../../../../avr/lib/avrxmega2/memx-const/mapped\libc.a(__fmt_s.o)

.rodata.nilstr.2962
                0x0000000000806271        0x6 load address 0x0000000000005247
 .rodata.nilstr.2962
                0x0000000000806271        0x6 c:/program files/microchip/xc8/v2.40/avr/bin/../lib/gcc/avr/5.4.0/../../../../avr/lib/avrxmega2/memx-const/mapped\libc.a(__printf_core.o)

.data._stdout   0x00000000008062d3        0x2 load address 0x000000000000524d
 .data._stdout  0x00000000008062d3        0x2 c:/program files/microchip/xc8/v2.40/avr/bin/../lib/gcc/avr/5.4.0/../../../../avr/lib/avrxmega2/memx-const/mapped\libc.a(stdout.o)
                0x00000000008062d3                _stdout
