Archive member included to satisfy reference by file (symbol)

c:/program files/microchip/xc8/v2.40/avr/bin/../lib/gcc/avr/5.4.0/../../../../avr/lib/avrxmega2/memx-const/mapped\libm.a(addsf3.o)
                              build/default/production/bme280.o (__subsf3)
c:/program files/microchip/xc8/v2.40/avr/bin/../lib/gcc/avr/5.4.0/../../../../avr/lib/avrxmega2/memx-const/mapped\libm.a(addsf3x.o)
                              c:/program files/microchip/xc8/v2.40/avr/bin/../lib/gcc/avr/5.4.0/../../../../avr/lib/avrxmega2/memx-const/mapped\libm.a(addsf3.o) (__addsf3x)
c:/program files/microchip/xc8/v2.40/avr/bin/../lib/gcc/avr/5.4.0/../../../../avr/lib/avrxmega2/memx-const/mapped\libm.a(divsf3.o)
                              build/default/production/application.o (__divsf3)
c:/program files/microchip/xc8/v2.40/avr/bin/../lib/gcc/avr/5.4.0/../../../../avr/lib/avrxmega2/memx-const/mapped\libm.a(divsf3x.o)
                              c:/program files/microchip/xc8/v2.40/avr/bin/../lib/gcc/avr/5.4.0/../../../../avr/lib/avrxmega2/memx-const/mapped\libm.a(divsf3.o) (__divsf3x)
c:/program files/microchip/xc8/v2.40/avr/bin/../lib/gcc/avr/5.4.0/../../../../avr/lib/avrxmega2/memx-const/mapped\libm.a(fixsfsi.o)
                              build/default/production/application.o (__fixsfsi)
c:/program files/microchip/xc8/v2.40/avr/bin/../lib/gcc/avr/5.4.0/../../../../avr/lib/avrxmega2/memx-const/mapped\libm.a(fixunssfsi.o)
                              build/default/production/application.o (__fixunssfsi)
c:/program files/microchip/xc8/v2.40/avr/bin/../lib/gcc/avr/5.4.0/../../../../avr/lib/avrxmega2/memx-const/mapped\libm.a(floatsisf.o)
                              build/default/production/application.o (__floatunsisf)
c:/program files/microchip/xc8/v2.40/avr/bin/../lib/gcc/avr/5.4.0/../../../../avr/lib/avrxmega2/memx-const/mapped\libm.a(fp_inf.o)
                              c:/program files/microchip/xc8/v2.40/avr/bin/../lib/gcc/avr/5.4.0/../../../../avr/lib/avrxmega2/memx-const/mapped\libm.a(addsf3x.o) (__fp_inf)
c:/program files/microchip/xc8/v2.40/avr/bin/../lib/gcc/avr/5.4.0/../../../../avr/lib/avrxmega2/memx-const/mapped\libm.a(fp_nan.o)
                              c:/program files/microchip/xc8/v2.40/avr/bin/../lib/gcc/avr/5.4.0/../../../../avr/lib/avrxmega2/memx-const/mapped\libm.a(addsf3x.o) (__fp_nan)
c:/program files/microchip/xc8/v2.40/avr/bin/../lib/gcc/avr/5.4.0/../../../../avr/lib/avrxmega2/memx-const/mapped\libm.a(fp_pscA.o)
                              c:/program files/microchip/xc8/v2.40/avr/bin/../lib/gcc/avr/5.4.0/../../../../avr/lib/avrxmega2/memx-const/mapped\libm.a(addsf3x.o) (__fp_pscA)
c:/program files/microchip/xc8/v2.40/avr/bin/../lib/gcc/avr/5.4.0/../../../../avr/lib/avrxmega2/memx-const/mapped\libm.a(fp_pscB.o)
                              c:/program files/microchip/xc8/v2.40/avr/bin/../lib/gcc/avr/5.4.0/../../../../avr/lib/avrxmega2/memx-const/mapped\libm.a(addsf3x.o) (__fp_pscB)
c:/program files/microchip/xc8/v2.40/avr/bin/../lib/gcc/avr/5.4.0/../../../../avr/lib/avrxmega2/memx-const/mapped\libm.a(fp_round.o)
                              c:/program files/microchip/xc8/v2.40/avr/bin/../lib/gcc/avr/5.4.0/../../../../avr/lib/avrxmega2/memx-const/mapped\libm.a(addsf3.o) (__fp_round)
c:/program files/microchip/xc8/v2.40/avr/bin/../lib/gcc/avr/5.4.0/../../../../avr/lib/avrxmega2/memx-const/mapped\libm.a(fp_split3.o)
                              c:/program files/microchip/xc8/v2.40/avr/bin/../lib/gcc/avr/5.4.0/../../../../avr/lib/avrxmega2/memx-const/mapped\libm.a(addsf3x.o) (__fp_split3)
c:/program files/microchip/xc8/v2.40/avr/bin/../lib/gcc/avr/5.4.0/../../../../avr/lib/avrxmega2/memx-const/mapped\libm.a(fp_zero.o)
                              c:/program files/microchip/xc8/v2.40/avr/bin/../lib/gcc/avr/5.4.0/../../../../avr/lib/avrxmega2/memx-const/mapped\libm.a(addsf3x.o) (__fp_zero)
c:/program files/microchip/xc8/v2.40/avr/bin/../lib/gcc/avr/5.4.0/../../../../avr/lib/avrxmega2/memx-const/mapped\libm.a(mulsf3.o)
                              build/default/production/application.o (__mulsf3)
c:/program files/microchip/xc8/v2.40/avr/bin/../lib/gcc/avr/5.4.0/../../../../avr/lib/avrxmega2/memx-const/mapped\libm.a(mulsf3x.o)
                              c:/program files/microchip/xc8/v2.40/avr/bin/../lib/gcc/avr/5.4.0/../../../../avr/lib/avrxmega2/memx-const/mapped\libm.a(mulsf3.o) (__mulsf3x)
c:/program files/microchip/xc8/v2.40/avr/bin/../lib/gcc/avr/5.4.0/../../../../avr/lib/avrxmega2/memx-const/mapped\libm.a(powf.o)
                              build/default/production/bme280.o (pow)
c:/program files/microchip/xc8/v2.40/avr/bin/../lib/gcc/avr/5.4.0/../../../../avr/lib/avrxmega2/memx-const/mapped\libm.a(sqrtf.o)
                              c:/program files/microchip/xc8/v2.40/avr/bin/../lib/gcc/avr/5.4.0/../../../../avr/lib/avrxmega2/memx-const/mapped\libm.a(powf.o) (sqrtf)
c:/program files/microchip/xc8/v2.40/avr/bin/../lib/gcc/avr/5.4.0/../../../../avr/lib/avrxmega2/memx-const/mapped\libm.a(fabsf.o)
                              c:/program files/microchip/xc8/v2.40/avr/bin/../lib/gcc/avr/5.4.0/../../../../avr/lib/avrxmega2/memx-const/mapped\libm.a(powf.o) (fabsf)
c:/program files/microchip/xc8/v2.40/avr/bin/../lib/gcc/avr/5.4.0/../../../../avr/lib/avrxmega2/memx-const/mapped\libm.a(scalbnf.o)
                              c:/program files/microchip/xc8/v2.40/avr/bin/../lib/gcc/avr/5.4.0/../../../../avr/lib/avrxmega2/memx-const/mapped\libm.a(powf.o) (scalbnf)
c:/program files/microchip/xc8/v2.40/avr/bin/../lib/gcc/avr/5.4.0/../../../../avr/lib/avrxmega2/memx-const/mapped\libm.a(cmpsf2.o)
                              c:/program files/microchip/xc8/v2.40/avr/bin/../lib/gcc/avr/5.4.0/../../../../avr/lib/avrxmega2/memx-const/mapped\libm.a(powf.o) (__lesf2)
c:/program files/microchip/xc8/v2.40/avr/bin/../lib/gcc/avr/5.4.0/../../../../avr/lib/avrxmega2/memx-const/mapped\libm.a(fp_cmp.o)
                              c:/program files/microchip/xc8/v2.40/avr/bin/../lib/gcc/avr/5.4.0/../../../../avr/lib/avrxmega2/memx-const/mapped\libm.a(cmpsf2.o) (__fp_cmp)
c:/program files/microchip/xc8/v2.40/avr/bin/../lib/gcc/avr/5.4.0/../../../../avr/lib/avrxmega2/memx-const/mapped\libm.a(gesf2.o)
                              c:/program files/microchip/xc8/v2.40/avr/bin/../lib/gcc/avr/5.4.0/../../../../avr/lib/avrxmega2/memx-const/mapped\libm.a(sqrtf.o) (__gesf2)
c:/program files/microchip/xc8/v2.40/avr/bin/../lib/gcc/avr/5.4.0/avrxmega2/memx-const/mapped\libgcc.a(_mulsi3.o)
                              build/default/production/bme280.o (__mulsi3)
c:/program files/microchip/xc8/v2.40/avr/bin/../lib/gcc/avr/5.4.0/avrxmega2/memx-const/mapped\libgcc.a(_udivmodsi4.o)
                              build/default/production/application.o (__udivmodsi4)
c:/program files/microchip/xc8/v2.40/avr/bin/../lib/gcc/avr/5.4.0/avrxmega2/memx-const/mapped\libgcc.a(_tablejump2.o)
                              build/default/production/application.o (__tablejump2__)
c:/program files/microchip/xc8/v2.40/avr/bin/../lib/gcc/avr/5.4.0/avrxmega2/memx-const/mapped\libgcc.a(_copy_data.o)
                              build/default/production/mcc_generated_files/system/src/config_bits.o (__do_copy_data)
c:/program files/microchip/xc8/v2.40/avr/bin/../lib/gcc/avr/5.4.0/avrxmega2/memx-const/mapped\libgcc.a(_muluhisi3.o)
                              build/default/production/bme280.o (__muluhisi3)
c:/program files/microchip/xc8/v2.40/avr/bin/../lib/gcc/avr/5.4.0/avrxmega2/memx-const/mapped\libgcc.a(_mulshisi3.o)
                              build/default/production/bme280.o (__mulshisi3)
c:/program files/microchip/xc8/v2.40/avr/bin/../lib/gcc/avr/5.4.0/avrxmega2/memx-const/mapped\libgcc.a(_prologue.o)
                              c:/program files/microchip/xc8/v2.40/avr/bin/../lib/gcc/avr/5.4.0/../../../../avr/lib/avrxmega2/memx-const/mapped\libm.a(powf.o) (__prologue_saves__)
c:/program files/microchip/xc8/v2.40/avr/bin/../lib/gcc/avr/5.4.0/avrxmega2/memx-const/mapped\libgcc.a(_epilogue.o)
                              c:/program files/microchip/xc8/v2.40/avr/bin/../lib/gcc/avr/5.4.0/../../../../avr/lib/avrxmega2/memx-const/mapped\libm.a(powf.o) (__epilogue_restores__)
c:/program files/microchip/xc8/v2.40/avr/bin/../lib/gcc/avr/5.4.0/avrxmega2/memx-const/mapped\libgcc.a(_umulhisi3.o)
                              c:/program files/microchip/xc8/v2.40/avr/bin/../lib/gcc/avr/5.4.0/avrxmega2/memx-const/mapped\libgcc.a(_muluhisi3.o) (__umulhisi3)
c:/program files/microchip/xc8/v2.40/avr/bin/../lib/gcc/avr/5.4.0/../../../../avr/lib/avrxmega2/memx-const/mapped\libc.a(errno.o)
                              c:/program files/microchip/xc8/v2.40/avr/bin/../lib/gcc/avr/5.4.0/../../../../avr/lib/avrxmega2/memx-const/mapped\libm.a(powf.o) (__errno_val)
c:/program files/microchip/xc8/v2.40/avr/bin/../lib/gcc/avr/5.4.0/../../../../avr/lib/avrxmega2/memx-const/mapped\libc.a(exit.o)
                              C:/Users/C70348/.mchp_packs/Microchip/AVR-Dx_DFP/2.1.152/xc8/avr/lib/avrxmega2/memx-const/mapped/crtavr64dd32.o (exit)
c:/program files/microchip/xc8/v2.40/avr/bin/../lib/gcc/avr/5.4.0/../../../../avr/lib/avrxmega2/memx-const/mapped\libc.a(__sio_printf_dosux.o)
                              build/default/production/application.o (_printf_cdopsuxX)
c:/program files/microchip/xc8/v2.40/avr/bin/../lib/gcc/avr/5.4.0/../../../../avr/lib/avrxmega2/memx-const/mapped\libc.a(__sio_printf_doux.o)
                              build/default/production/application.o (_printf_cdopuxX)
c:/program files/microchip/xc8/v2.40/avr/bin/../lib/gcc/avr/5.4.0/../../../../avr/lib/avrxmega2/memx-const/mapped\libc.a(__sio_printf_s.o)
                              build/default/production/RN2xx3.o (_printf_s)
c:/program files/microchip/xc8/v2.40/avr/bin/../lib/gcc/avr/5.4.0/../../../../avr/lib/avrxmega2/memx-const/mapped\libc.a(__sio_sprintf_doux.o)
                              build/default/production/RN2xx3.o (_sprintf_cdopuxX)
c:/program files/microchip/xc8/v2.40/avr/bin/../lib/gcc/avr/5.4.0/../../../../avr/lib/avrxmega2/memx-const/mapped\libc.a(__fmt_d.o)
                              c:/program files/microchip/xc8/v2.40/avr/bin/../lib/gcc/avr/5.4.0/../../../../avr/lib/avrxmega2/memx-const/mapped\libc.a(__sio_printf_dosux.o) (__fmt_d_needed)
c:/program files/microchip/xc8/v2.40/avr/bin/../lib/gcc/avr/5.4.0/../../../../avr/lib/avrxmega2/memx-const/mapped\libc.a(__fmt_o.o)
                              c:/program files/microchip/xc8/v2.40/avr/bin/../lib/gcc/avr/5.4.0/../../../../avr/lib/avrxmega2/memx-const/mapped\libc.a(__sio_printf_dosux.o) (__fmt_o_needed)
c:/program files/microchip/xc8/v2.40/avr/bin/../lib/gcc/avr/5.4.0/../../../../avr/lib/avrxmega2/memx-const/mapped\libc.a(__fmt_s.o)
                              c:/program files/microchip/xc8/v2.40/avr/bin/../lib/gcc/avr/5.4.0/../../../../avr/lib/avrxmega2/memx-const/mapped\libc.a(__sio_printf_dosux.o) (__fmt_s_needed)
c:/program files/microchip/xc8/v2.40/avr/bin/../lib/gcc/avr/5.4.0/../../../../avr/lib/avrxmega2/memx-const/mapped\libc.a(__fmt_u.o)
                              c:/program files/microchip/xc8/v2.40/avr/bin/../lib/gcc/avr/5.4.0/../../../../avr/lib/avrxmega2/memx-const/mapped\libc.a(__fmt_d.o) (__cvt_u)
c:/program files/microchip/xc8/v2.40/avr/bin/../lib/gcc/avr/5.4.0/../../../../avr/lib/avrxmega2/memx-const/mapped\libc.a(__fmt_x.o)
                              c:/program files/microchip/xc8/v2.40/avr/bin/../lib/gcc/avr/5.4.0/../../../../avr/lib/avrxmega2/memx-const/mapped\libc.a(__sio_printf_dosux.o) (__fmt_x_needed)
c:/program files/microchip/xc8/v2.40/avr/bin/../lib/gcc/avr/5.4.0/../../../../avr/lib/avrxmega2/memx-const/mapped\libc.a(__pop_int.o)
                              c:/program files/microchip/xc8/v2.40/avr/bin/../lib/gcc/avr/5.4.0/../../../../avr/lib/avrxmega2/memx-const/mapped\libc.a(__sio_printf_dosux.o) (__pop_int_needed)
c:/program files/microchip/xc8/v2.40/avr/bin/../lib/gcc/avr/5.4.0/../../../../avr/lib/avrxmega2/memx-const/mapped\libc.a(__printf_core.o)
                              c:/program files/microchip/xc8/v2.40/avr/bin/../lib/gcc/avr/5.4.0/../../../../avr/lib/avrxmega2/memx-const/mapped\libc.a(__fmt_d.o) (__pad)
c:/program files/microchip/xc8/v2.40/avr/bin/../lib/gcc/avr/5.4.0/../../../../avr/lib/avrxmega2/memx-const/mapped\libc.a(fputc.o)
                              c:/program files/microchip/xc8/v2.40/avr/bin/../lib/gcc/avr/5.4.0/../../../../avr/lib/avrxmega2/memx-const/mapped\libc.a(__printf_core.o) (fputc)
c:/program files/microchip/xc8/v2.40/avr/bin/../lib/gcc/avr/5.4.0/../../../../avr/lib/avrxmega2/memx-const/mapped\libc.a(puts.o)
                              build/default/production/RN2xx3.o (puts)
c:/program files/microchip/xc8/v2.40/avr/bin/../lib/gcc/avr/5.4.0/../../../../avr/lib/avrxmega2/memx-const/mapped\libc.a(stdout.o)
                              build/default/production/mcc_generated_files/uart/src/usart0.o (_stdout)
c:/program files/microchip/xc8/v2.40/avr/bin/../lib/gcc/avr/5.4.0/../../../../avr/lib/avrxmega2/memx-const/mapped\libc.a(strlen.o)
                              c:/program files/microchip/xc8/v2.40/avr/bin/../lib/gcc/avr/5.4.0/../../../../avr/lib/avrxmega2/memx-const/mapped\libc.a(__fmt_s.o) (strlen)
c:/program files/microchip/xc8/v2.40/avr/bin/../lib/gcc/avr/5.4.0/../../../../avr/lib/avrxmega2/memx-const/mapped\libc.a(tolower.o)
                              c:/program files/microchip/xc8/v2.40/avr/bin/../lib/gcc/avr/5.4.0/../../../../avr/lib/avrxmega2/memx-const/mapped\libc.a(__printf_core.o) (tolower)
c:/program files/microchip/xc8/v2.40/avr/bin/../lib/gcc/avr/5.4.0/../../../../avr/lib/avrxmega2/memx-const/mapped\libc.a(toupper.o)
                              c:/program files/microchip/xc8/v2.40/avr/bin/../lib/gcc/avr/5.4.0/../../../../avr/lib/avrxmega2/memx-const/mapped\libc.a(__fmt_x.o) (toupper)
c:/program files/microchip/xc8/v2.40/avr/bin/../lib/gcc/avr/5.4.0/../../../../avr/lib/avrxmega2/memx-const/mapped\libc.a(_Exit.o)
                              c:/program files/microchip/xc8/v2.40/avr/bin/../lib/gcc/avr/5.4.0/../../../../avr/lib/avrxmega2/memx-const/mapped\libc.a(exit.o) (_Exit)
c:/program files/microchip/xc8/v2.40/avr/bin/../lib/gcc/avr/5.4.0/../../../../avr/lib/avrxmega2/memx-const/mapped\libc.a(__int_vfprintf.o)
                              c:/program files/microchip/xc8/v2.40/avr/bin/../lib/gcc/avr/5.4.0/../../../../avr/lib/avrxmega2/memx-const/mapped\libc.a(__sio_printf_dosux.o) (__vfprintf)
c:/program files/microchip/xc8/v2.40/avr/bin/../lib/gcc/avr/5.4.0/../../../../avr/lib/avrxmega2/memx-const/mapped\libc.a(__int_vsprintf.o)
                              c:/program files/microchip/xc8/v2.40/avr/bin/../lib/gcc/avr/5.4.0/../../../../avr/lib/avrxmega2/memx-const/mapped\libc.a(__sio_sprintf_doux.o) (__vsprintf)
c:/program files/microchip/xc8/v2.40/avr/bin/../lib/gcc/avr/5.4.0/../../../../avr/lib/avrxmega2/memx-const/mapped\libc.a(__int_vsnprintf.o)
                              c:/program files/microchip/xc8/v2.40/avr/bin/../lib/gcc/avr/5.4.0/../../../../avr/lib/avrxmega2/memx-const/mapped\libc.a(__int_vsprintf.o) (__vsnprintf)
c:/program files/microchip/xc8/v2.40/avr/bin/../lib/gcc/avr/5.4.0/../../../../avr/lib/avrxmega2/memx-const/mapped\libc.a(fputs.o)
                              c:/program files/microchip/xc8/v2.40/avr/bin/../lib/gcc/avr/5.4.0/../../../../avr/lib/avrxmega2/memx-const/mapped\libc.a(puts.o) (fputs)
c:/program files/microchip/xc8/v2.40/avr/bin/../lib/gcc/avr/5.4.0/avrxmega2/memx-const/mapped\libgcc.a(_exit.o)
                              c:/program files/microchip/xc8/v2.40/avr/bin/../lib/gcc/avr/5.4.0/../../../../avr/lib/avrxmega2/memx-const/mapped\libc.a(_Exit.o) (_exit)

Allocating common symbols
Common symbol       size              file

__stdout_used       0x2               c:/program files/microchip/xc8/v2.40/avr/bin/../lib/gcc/avr/5.4.0/../../../../avr/lib/avrxmega2/memx-const/mapped\libc.a(stdout.o)
__errno_val         0x2               c:/program files/microchip/xc8/v2.40/avr/bin/../lib/gcc/avr/5.4.0/../../../../avr/lib/avrxmega2/memx-const/mapped\libc.a(errno.o)

Discarded input sections

 .data          0x0000000000000000        0x0 C:/Users/C70348/.mchp_packs/Microchip/AVR-Dx_DFP/2.1.152/xc8/avr/lib/avrxmega2/memx-const/mapped/crtavr64dd32.o
 .bss           0x0000000000000000        0x0 C:/Users/C70348/.mchp_packs/Microchip/AVR-Dx_DFP/2.1.152/xc8/avr/lib/avrxmega2/memx-const/mapped/crtavr64dd32.o
 .text          0x0000000000000000        0x0 build/default/production/mcc_generated_files/adc/src/adc0.o
 .data          0x0000000000000000        0x0 build/default/production/mcc_generated_files/adc/src/adc0.o
 .bss           0x0000000000000000        0x0 build/default/production/mcc_generated_files/adc/src/adc0.o
 .text.ADC0_Enable
                0x0000000000000000        0xc build/default/production/mcc_generated_files/adc/src/adc0.o
 .text.ADC0_Disable
                0x0000000000000000        0xc build/default/production/mcc_generated_files/adc/src/adc0.o
 .text.ADC0_EnableAutoTrigger
                0x0000000000000000        0xc build/default/production/mcc_generated_files/adc/src/adc0.o
 .text.ADC0_DisableAutoTrigger
                0x0000000000000000        0xc build/default/production/mcc_generated_files/adc/src/adc0.o
 .text.ADC0_SetWindowHigh
                0x0000000000000000        0xa build/default/production/mcc_generated_files/adc/src/adc0.o
 .text.ADC0_SetWindowLow
                0x0000000000000000        0xa build/default/production/mcc_generated_files/adc/src/adc0.o
 .text.ADC0_SetWindowMode
                0x0000000000000000        0x6 build/default/production/mcc_generated_files/adc/src/adc0.o
 .text.ADC0_SetWindowChannel
                0x0000000000000000        0x6 build/default/production/mcc_generated_files/adc/src/adc0.o
 .text.ADC0_StartConversion
                0x0000000000000000        0xc build/default/production/mcc_generated_files/adc/src/adc0.o
 .text.ADC0_StartDiffConversion
                0x0000000000000000        0xe build/default/production/mcc_generated_files/adc/src/adc0.o
 .text.ADC0_StopConversion
                0x0000000000000000        0x8 build/default/production/mcc_generated_files/adc/src/adc0.o
 .text.ADC0_GetConversionResult
                0x0000000000000000        0xa build/default/production/mcc_generated_files/adc/src/adc0.o
 .text.ADC0_GetWindowResult
                0x0000000000000000       0x10 build/default/production/mcc_generated_files/adc/src/adc0.o
 .text.ADC0_GetDiffConversion
                0x0000000000000000       0x26 build/default/production/mcc_generated_files/adc/src/adc0.o
 .text.ADC0_GetResolution
                0x0000000000000000       0x10 build/default/production/mcc_generated_files/adc/src/adc0.o
 .text.ADC0_RegisterWindowCallback
                0x0000000000000000        0xa build/default/production/mcc_generated_files/adc/src/adc0.o
 .text.ADC0_RegisterResrdyCallback
                0x0000000000000000        0xa build/default/production/mcc_generated_files/adc/src/adc0.o
 .text          0x0000000000000000        0x0 build/default/production/mcc_generated_files/evsys/src/evsys.o
 .data          0x0000000000000000        0x0 build/default/production/mcc_generated_files/evsys/src/evsys.o
 .bss           0x0000000000000000        0x0 build/default/production/mcc_generated_files/evsys/src/evsys.o
 .text.EVSYS_SoftwareEventASet
                0x0000000000000000        0x6 build/default/production/mcc_generated_files/evsys/src/evsys.o
 .text.EVSYS_SoftwareEventBSet
                0x0000000000000000        0x6 build/default/production/mcc_generated_files/evsys/src/evsys.o
 .text          0x0000000000000000        0x0 build/default/production/mcc_generated_files/system/src/pins.o
 .data          0x0000000000000000        0x0 build/default/production/mcc_generated_files/system/src/pins.o
 .bss           0x0000000000000000        0x0 build/default/production/mcc_generated_files/system/src/pins.o
 .text.PD5_SetInterruptHandler
                0x0000000000000000        0xa build/default/production/mcc_generated_files/system/src/pins.o
 .text.PD4_SetInterruptHandler
                0x0000000000000000        0xa build/default/production/mcc_generated_files/system/src/pins.o
 .text.PC1_SetInterruptHandler
                0x0000000000000000        0xa build/default/production/mcc_generated_files/system/src/pins.o
 .text.PF6_SetInterruptHandler
                0x0000000000000000        0xa build/default/production/mcc_generated_files/system/src/pins.o
 .text.PA0_SetInterruptHandler
                0x0000000000000000        0xa build/default/production/mcc_generated_files/system/src/pins.o
 .text.PA1_SetInterruptHandler
                0x0000000000000000        0xa build/default/production/mcc_generated_files/system/src/pins.o
 .text.PC0_SetInterruptHandler
                0x0000000000000000        0xa build/default/production/mcc_generated_files/system/src/pins.o
 .text.PC2_SetInterruptHandler
                0x0000000000000000        0xa build/default/production/mcc_generated_files/system/src/pins.o
 .text.PD1_SetInterruptHandler
                0x0000000000000000        0xa build/default/production/mcc_generated_files/system/src/pins.o
 .text.PF5_SetInterruptHandler
                0x0000000000000000        0xa build/default/production/mcc_generated_files/system/src/pins.o
 .text          0x0000000000000000        0x0 build/default/production/mcc_generated_files/system/src/interrupt.o
 .data          0x0000000000000000        0x0 build/default/production/mcc_generated_files/system/src/interrupt.o
 .bss           0x0000000000000000        0x0 build/default/production/mcc_generated_files/system/src/interrupt.o
 .text          0x0000000000000000        0x0 build/default/production/mcc_generated_files/system/src/system.o
 .data          0x0000000000000000        0x0 build/default/production/mcc_generated_files/system/src/system.o
 .bss           0x0000000000000000        0x0 build/default/production/mcc_generated_files/system/src/system.o
 .text          0x0000000000000000        0x0 build/default/production/mcc_generated_files/system/src/clock.o
 .data          0x0000000000000000        0x0 build/default/production/mcc_generated_files/system/src/clock.o
 .bss           0x0000000000000000        0x0 build/default/production/mcc_generated_files/system/src/clock.o
 .text.CFD_Enable
                0x0000000000000000       0x10 build/default/production/mcc_generated_files/system/src/clock.o
 .text.CFD_Disable
                0x0000000000000000       0x12 build/default/production/mcc_generated_files/system/src/clock.o
 .text          0x0000000000000000        0x0 build/default/production/mcc_generated_files/system/src/config_bits.o
 .data          0x0000000000000000        0x0 build/default/production/mcc_generated_files/system/src/config_bits.o
 .bss           0x0000000000000000        0x0 build/default/production/mcc_generated_files/system/src/config_bits.o
 .text          0x0000000000000000        0x0 build/default/production/mcc_generated_files/system/src/protected_io.o
 .data          0x0000000000000000        0x0 build/default/production/mcc_generated_files/system/src/protected_io.o
 .bss           0x0000000000000000        0x0 build/default/production/mcc_generated_files/system/src/protected_io.o
 .text          0x0000000000000000        0x0 build/default/production/mcc_generated_files/timer/src/tcb0.o
 .data          0x0000000000000000        0x0 build/default/production/mcc_generated_files/timer/src/tcb0.o
 .bss           0x0000000000000000        0x0 build/default/production/mcc_generated_files/timer/src/tcb0.o
 .text.TCB0_Start
                0x0000000000000000        0xc build/default/production/mcc_generated_files/timer/src/tcb0.o
 .text.TCB0_Stop
                0x0000000000000000        0xc build/default/production/mcc_generated_files/timer/src/tcb0.o
 .text.TCB0_Write
                0x0000000000000000        0xa build/default/production/mcc_generated_files/timer/src/tcb0.o
 .text.TCB0_Read
                0x0000000000000000        0xa build/default/production/mcc_generated_files/timer/src/tcb0.o
 .text.TCB0_EnableCaptInterrupt
                0x0000000000000000        0xc build/default/production/mcc_generated_files/timer/src/tcb0.o
 .text.TCB0_EnableOvfInterrupt
                0x0000000000000000        0xc build/default/production/mcc_generated_files/timer/src/tcb0.o
 .text.TCB0_DisableCaptInterrupt
                0x0000000000000000        0xc build/default/production/mcc_generated_files/timer/src/tcb0.o
 .text.TCB0_DisableOvfInterrupt
                0x0000000000000000        0xc build/default/production/mcc_generated_files/timer/src/tcb0.o
 .text.TCB0_ClearCaptInterruptFlag
                0x0000000000000000        0xc build/default/production/mcc_generated_files/timer/src/tcb0.o
 .text.TCB0_ClearOvfInterruptFlag
                0x0000000000000000        0xc build/default/production/mcc_generated_files/timer/src/tcb0.o
 .text.TCB0_IsCaptInterruptEnabled
                0x0000000000000000        0xc build/default/production/mcc_generated_files/timer/src/tcb0.o
 .text.TCB0_IsOvfInterruptEnabled
                0x0000000000000000        0xc build/default/production/mcc_generated_files/timer/src/tcb0.o
 .rodata.TCB0_Interface
                0x0000000000000000        0xc build/default/production/mcc_generated_files/timer/src/tcb0.o
 .text          0x0000000000000000        0x0 build/default/production/mcc_generated_files/timer/src/rtc.o
 .data          0x0000000000000000        0x0 build/default/production/mcc_generated_files/timer/src/rtc.o
 .bss           0x0000000000000000        0x0 build/default/production/mcc_generated_files/timer/src/rtc.o
 .text.RTC_SetOVFIsrCallback
                0x0000000000000000        0xa build/default/production/mcc_generated_files/timer/src/rtc.o
 .text.RTC_SetCMPIsrCallback
                0x0000000000000000        0xa build/default/production/mcc_generated_files/timer/src/rtc.o
 .text.RTC_WriteCounter
                0x0000000000000000       0x16 build/default/production/mcc_generated_files/timer/src/rtc.o
 .text.RTC_ReadCounter
                0x0000000000000000        0xa build/default/production/mcc_generated_files/timer/src/rtc.o
 .text.RTC_WritePeriod
                0x0000000000000000       0x16 build/default/production/mcc_generated_files/timer/src/rtc.o
 .text.RTC_ReadPeriod
                0x0000000000000000        0xa build/default/production/mcc_generated_files/timer/src/rtc.o
 .text.RTC_EnableCMPInterrupt
                0x0000000000000000        0xc build/default/production/mcc_generated_files/timer/src/rtc.o
 .text.RTC_DisableCMPInterrupt
                0x0000000000000000        0xc build/default/production/mcc_generated_files/timer/src/rtc.o
 .text.RTC_EnableOVFInterrupt
                0x0000000000000000        0xc build/default/production/mcc_generated_files/timer/src/rtc.o
 .text.RTC_DisableOVFInterrupt
                0x0000000000000000        0xc build/default/production/mcc_generated_files/timer/src/rtc.o
 .text.RTC_EnablePITInterrupt
                0x0000000000000000        0xc build/default/production/mcc_generated_files/timer/src/rtc.o
 .text.RTC_DisablePITInterrupt
                0x0000000000000000        0xc build/default/production/mcc_generated_files/timer/src/rtc.o
 .text.RTC_ClearOVFInterruptFlag
                0x0000000000000000        0x8 build/default/production/mcc_generated_files/timer/src/rtc.o
 .text.RTC_IsOVFInterruptEnabled
                0x0000000000000000        0xc build/default/production/mcc_generated_files/timer/src/rtc.o
 .text          0x0000000000000000        0x0 build/default/production/mcc_generated_files/uart/src/usart0.o
 .data          0x0000000000000000        0x0 build/default/production/mcc_generated_files/uart/src/usart0.o
 .bss           0x0000000000000000        0x0 build/default/production/mcc_generated_files/uart/src/usart0.o
 .text.USART0_Deinitialize
                0x0000000000000000       0x18 build/default/production/mcc_generated_files/uart/src/usart0.o
 .text.USART0_TransmitEnable
                0x0000000000000000        0xc build/default/production/mcc_generated_files/uart/src/usart0.o
 .text.USART0_TransmitDisable
                0x0000000000000000        0xc build/default/production/mcc_generated_files/uart/src/usart0.o
 .text.USART0_IsTxDone
                0x0000000000000000        0xc build/default/production/mcc_generated_files/uart/src/usart0.o
 .text.USART0_ErrorGet
                0x0000000000000000       0x72 build/default/production/mcc_generated_files/uart/src/usart0.o
 .text.USART0_FramingErrorCallbackRegister
                0x0000000000000000        0xe build/default/production/mcc_generated_files/uart/src/usart0.o
 .text.USART0_OverrunErrorCallbackRegister
                0x0000000000000000        0xe build/default/production/mcc_generated_files/uart/src/usart0.o
 .text.USART0_ParityErrorCallbackRegister
                0x0000000000000000        0xe build/default/production/mcc_generated_files/uart/src/usart0.o
 .text.USART0_Enable
                0x0000000000000000        0xc build/default/production/mcc_generated_files/uart/src/usart0.o
 .text.USART0_Disable
                0x0000000000000000        0xc build/default/production/mcc_generated_files/uart/src/usart0.o
 .text.USART0_ReceiveEnable
                0x0000000000000000        0xc build/default/production/mcc_generated_files/uart/src/usart0.o
 .text.USART0_ReceiveDisable
                0x0000000000000000        0xc build/default/production/mcc_generated_files/uart/src/usart0.o
 .rodata.UART0  0x0000000000000000       0x30 build/default/production/mcc_generated_files/uart/src/usart0.o
 .text          0x0000000000000000        0x0 build/default/production/mcc_generated_files/vref/src/vref.o
 .data          0x0000000000000000        0x0 build/default/production/mcc_generated_files/vref/src/vref.o
 .bss           0x0000000000000000        0x0 build/default/production/mcc_generated_files/vref/src/vref.o
 .text          0x0000000000000000        0x0 build/default/production/main.o
 .data          0x0000000000000000        0x0 build/default/production/main.o
 .bss           0x0000000000000000        0x0 build/default/production/main.o
 .text          0x0000000000000000        0x0 build/default/production/RN2xx3.o
 .data          0x0000000000000000        0x0 build/default/production/RN2xx3.o
 .bss           0x0000000000000000        0x0 build/default/production/RN2xx3.o
 .text.RN2xx3_sys_RESET
                0x0000000000000000       0x24 build/default/production/RN2xx3.o
 .text.RN2xx3_mac_get_status
                0x0000000000000000       0x4e build/default/production/RN2xx3.o
 .text.RN2xx3_config_ABP
                0x0000000000000000       0x52 build/default/production/RN2xx3.o
 .bss.status    0x0000000000000000       0x11 build/default/production/RN2xx3.o
 .text          0x0000000000000000        0x0 build/default/production/usart1.o
 .data          0x0000000000000000        0x0 build/default/production/usart1.o
 .bss           0x0000000000000000        0x0 build/default/production/usart1.o
 .text.USART1_disableTX
                0x0000000000000000        0xc build/default/production/usart1.o
 .text.USART1_disableRX
                0x0000000000000000        0xc build/default/production/usart1.o
 .text.USART1_isBusy
                0x0000000000000000       0x10 build/default/production/usart1.o
 .text.USART1_isRXActive
                0x0000000000000000        0x6 build/default/production/usart1.o
 .text          0x0000000000000000        0x0 build/default/production/usart1_utilities.o
 .data          0x0000000000000000        0x0 build/default/production/usart1_utilities.o
 .bss           0x0000000000000000        0x0 build/default/production/usart1_utilities.o
 .text          0x0000000000000000        0x0 build/default/production/ringBuffer.o
 .data          0x0000000000000000        0x0 build/default/production/ringBuffer.o
 .bss           0x0000000000000000        0x0 build/default/production/ringBuffer.o
 .text.ringBuffer_softCopy
                0x0000000000000000       0x26 build/default/production/ringBuffer.o
 .text.ringBuffer_reset
                0x0000000000000000       0x34 build/default/production/ringBuffer.o
 .text.ringBuffer_advanceReadIndex
                0x0000000000000000       0x3e build/default/production/ringBuffer.o
 .text.ringBuffer_count
                0x0000000000000000       0x32 build/default/production/ringBuffer.o
 .text.ringBuffer_charsToRead
                0x0000000000000000       0x16 build/default/production/ringBuffer.o
 .text.ringBuffer_loadString
                0x0000000000000000       0x5a build/default/production/ringBuffer.o
 .text.ringBuffer_copyRawBuffer
                0x0000000000000000       0x7c build/default/production/ringBuffer.o
 .text.ringBuffer_duplicate
                0x0000000000000000       0x3c build/default/production/ringBuffer.o
 .text.ringBuffer_copyBufferUntil
                0x0000000000000000       0x92 build/default/production/ringBuffer.o
 .text.ringBuffer_copyAndChop
                0x0000000000000000       0x8a build/default/production/ringBuffer.o
 .text          0x0000000000000000        0x0 build/default/production/application.o
 .data          0x0000000000000000        0x0 build/default/production/application.o
 .bss           0x0000000000000000        0x0 build/default/production/application.o
 .text          0x0000000000000000        0x0 build/default/production/bme280.o
 .data          0x0000000000000000        0x0 build/default/production/bme280.o
 .bss           0x0000000000000000        0x0 build/default/production/bme280.o
 .text.BME280_getID
                0x0000000000000000       0x22 build/default/production/bme280.o
 .text.BME280_config
                0x0000000000000000       0x1e build/default/production/bme280.o
 .text.BME280_ctrl_meas
                0x0000000000000000       0x18 build/default/production/bme280.o
 .text.BME280_ctrl_hum
                0x0000000000000000        0x6 build/default/production/bme280.o
 .bss.weather_initialized
                0x0000000000000000        0x1 build/default/production/bme280.o
 .bss.str_hum   0x0000000000000000       0x1e build/default/production/bme280.o
 .bss.str_press
                0x0000000000000000       0x1e build/default/production/bme280.o
 .bss.str_temp  0x0000000000000000       0x1e build/default/production/bme280.o
 .text          0x0000000000000000        0x0 build/default/production/TWI.o
 .data          0x0000000000000000        0x0 build/default/production/TWI.o
 .bss           0x0000000000000000        0x0 build/default/production/TWI.o
 .text.TWI_sendByte
                0x0000000000000000       0x2e build/default/production/TWI.o
 .text.TWI_readByte
                0x0000000000000000       0x2c build/default/production/TWI.o
 .text.TWI_readBytes
                0x0000000000000000       0x2c build/default/production/TWI.o
 .data          0x0000000000000000        0x0 c:/program files/microchip/xc8/v2.40/avr/bin/../lib/gcc/avr/5.4.0/../../../../avr/lib/avrxmega2/memx-const/mapped\libm.a(addsf3.o)
 .bss           0x0000000000000000        0x0 c:/program files/microchip/xc8/v2.40/avr/bin/../lib/gcc/avr/5.4.0/../../../../avr/lib/avrxmega2/memx-const/mapped\libm.a(addsf3.o)
 .stack.descriptors
                0x0000000000000000       0x2c c:/program files/microchip/xc8/v2.40/avr/bin/../lib/gcc/avr/5.4.0/../../../../avr/lib/avrxmega2/memx-const/mapped\libm.a(addsf3.o)
 .data          0x0000000000000000        0x0 c:/program files/microchip/xc8/v2.40/avr/bin/../lib/gcc/avr/5.4.0/../../../../avr/lib/avrxmega2/memx-const/mapped\libm.a(addsf3x.o)
 .bss           0x0000000000000000        0x0 c:/program files/microchip/xc8/v2.40/avr/bin/../lib/gcc/avr/5.4.0/../../../../avr/lib/avrxmega2/memx-const/mapped\libm.a(addsf3x.o)
 .stack.descriptors
                0x0000000000000000       0x17 c:/program files/microchip/xc8/v2.40/avr/bin/../lib/gcc/avr/5.4.0/../../../../avr/lib/avrxmega2/memx-const/mapped\libm.a(addsf3x.o)
 .data          0x0000000000000000        0x0 c:/program files/microchip/xc8/v2.40/avr/bin/../lib/gcc/avr/5.4.0/../../../../avr/lib/avrxmega2/memx-const/mapped\libm.a(divsf3.o)
 .bss           0x0000000000000000        0x0 c:/program files/microchip/xc8/v2.40/avr/bin/../lib/gcc/avr/5.4.0/../../../../avr/lib/avrxmega2/memx-const/mapped\libm.a(divsf3.o)
 .stack.descriptors
                0x0000000000000000       0x16 c:/program files/microchip/xc8/v2.40/avr/bin/../lib/gcc/avr/5.4.0/../../../../avr/lib/avrxmega2/memx-const/mapped\libm.a(divsf3.o)
 .data          0x0000000000000000        0x0 c:/program files/microchip/xc8/v2.40/avr/bin/../lib/gcc/avr/5.4.0/../../../../avr/lib/avrxmega2/memx-const/mapped\libm.a(divsf3x.o)
 .bss           0x0000000000000000        0x0 c:/program files/microchip/xc8/v2.40/avr/bin/../lib/gcc/avr/5.4.0/../../../../avr/lib/avrxmega2/memx-const/mapped\libm.a(divsf3x.o)
 .stack.descriptors
                0x0000000000000000       0x31 c:/program files/microchip/xc8/v2.40/avr/bin/../lib/gcc/avr/5.4.0/../../../../avr/lib/avrxmega2/memx-const/mapped\libm.a(divsf3x.o)
 .data          0x0000000000000000        0x0 c:/program files/microchip/xc8/v2.40/avr/bin/../lib/gcc/avr/5.4.0/../../../../avr/lib/avrxmega2/memx-const/mapped\libm.a(fixsfsi.o)
 .bss           0x0000000000000000        0x0 c:/program files/microchip/xc8/v2.40/avr/bin/../lib/gcc/avr/5.4.0/../../../../avr/lib/avrxmega2/memx-const/mapped\libm.a(fixsfsi.o)
 .stack.descriptors
                0x0000000000000000       0x17 c:/program files/microchip/xc8/v2.40/avr/bin/../lib/gcc/avr/5.4.0/../../../../avr/lib/avrxmega2/memx-const/mapped\libm.a(fixsfsi.o)
 .data          0x0000000000000000        0x0 c:/program files/microchip/xc8/v2.40/avr/bin/../lib/gcc/avr/5.4.0/../../../../avr/lib/avrxmega2/memx-const/mapped\libm.a(fixunssfsi.o)
 .bss           0x0000000000000000        0x0 c:/program files/microchip/xc8/v2.40/avr/bin/../lib/gcc/avr/5.4.0/../../../../avr/lib/avrxmega2/memx-const/mapped\libm.a(fixunssfsi.o)
 .stack.descriptors
                0x0000000000000000       0x1a c:/program files/microchip/xc8/v2.40/avr/bin/../lib/gcc/avr/5.4.0/../../../../avr/lib/avrxmega2/memx-const/mapped\libm.a(fixunssfsi.o)
 .data          0x0000000000000000        0x0 c:/program files/microchip/xc8/v2.40/avr/bin/../lib/gcc/avr/5.4.0/../../../../avr/lib/avrxmega2/memx-const/mapped\libm.a(floatsisf.o)
 .bss           0x0000000000000000        0x0 c:/program files/microchip/xc8/v2.40/avr/bin/../lib/gcc/avr/5.4.0/../../../../avr/lib/avrxmega2/memx-const/mapped\libm.a(floatsisf.o)
 .stack.descriptors
                0x0000000000000000       0x34 c:/program files/microchip/xc8/v2.40/avr/bin/../lib/gcc/avr/5.4.0/../../../../avr/lib/avrxmega2/memx-const/mapped\libm.a(floatsisf.o)
 .data          0x0000000000000000        0x0 c:/program files/microchip/xc8/v2.40/avr/bin/../lib/gcc/avr/5.4.0/../../../../avr/lib/avrxmega2/memx-const/mapped\libm.a(fp_inf.o)
 .bss           0x0000000000000000        0x0 c:/program files/microchip/xc8/v2.40/avr/bin/../lib/gcc/avr/5.4.0/../../../../avr/lib/avrxmega2/memx-const/mapped\libm.a(fp_inf.o)
 .stack.descriptors
                0x0000000000000000       0x16 c:/program files/microchip/xc8/v2.40/avr/bin/../lib/gcc/avr/5.4.0/../../../../avr/lib/avrxmega2/memx-const/mapped\libm.a(fp_inf.o)
 .data          0x0000000000000000        0x0 c:/program files/microchip/xc8/v2.40/avr/bin/../lib/gcc/avr/5.4.0/../../../../avr/lib/avrxmega2/memx-const/mapped\libm.a(fp_nan.o)
 .bss           0x0000000000000000        0x0 c:/program files/microchip/xc8/v2.40/avr/bin/../lib/gcc/avr/5.4.0/../../../../avr/lib/avrxmega2/memx-const/mapped\libm.a(fp_nan.o)
 .stack.descriptors
                0x0000000000000000       0x16 c:/program files/microchip/xc8/v2.40/avr/bin/../lib/gcc/avr/5.4.0/../../../../avr/lib/avrxmega2/memx-const/mapped\libm.a(fp_nan.o)
 .data          0x0000000000000000        0x0 c:/program files/microchip/xc8/v2.40/avr/bin/../lib/gcc/avr/5.4.0/../../../../avr/lib/avrxmega2/memx-const/mapped\libm.a(fp_pscA.o)
 .bss           0x0000000000000000        0x0 c:/program files/microchip/xc8/v2.40/avr/bin/../lib/gcc/avr/5.4.0/../../../../avr/lib/avrxmega2/memx-const/mapped\libm.a(fp_pscA.o)
 .stack.descriptors
                0x0000000000000000       0x17 c:/program files/microchip/xc8/v2.40/avr/bin/../lib/gcc/avr/5.4.0/../../../../avr/lib/avrxmega2/memx-const/mapped\libm.a(fp_pscA.o)
 .data          0x0000000000000000        0x0 c:/program files/microchip/xc8/v2.40/avr/bin/../lib/gcc/avr/5.4.0/../../../../avr/lib/avrxmega2/memx-const/mapped\libm.a(fp_pscB.o)
 .bss           0x0000000000000000        0x0 c:/program files/microchip/xc8/v2.40/avr/bin/../lib/gcc/avr/5.4.0/../../../../avr/lib/avrxmega2/memx-const/mapped\libm.a(fp_pscB.o)
 .stack.descriptors
                0x0000000000000000       0x17 c:/program files/microchip/xc8/v2.40/avr/bin/../lib/gcc/avr/5.4.0/../../../../avr/lib/avrxmega2/memx-const/mapped\libm.a(fp_pscB.o)
 .data          0x0000000000000000        0x0 c:/program files/microchip/xc8/v2.40/avr/bin/../lib/gcc/avr/5.4.0/../../../../avr/lib/avrxmega2/memx-const/mapped\libm.a(fp_round.o)
 .bss           0x0000000000000000        0x0 c:/program files/microchip/xc8/v2.40/avr/bin/../lib/gcc/avr/5.4.0/../../../../avr/lib/avrxmega2/memx-const/mapped\libm.a(fp_round.o)
 .stack.descriptors
                0x0000000000000000       0x18 c:/program files/microchip/xc8/v2.40/avr/bin/../lib/gcc/avr/5.4.0/../../../../avr/lib/avrxmega2/memx-const/mapped\libm.a(fp_round.o)
 .data          0x0000000000000000        0x0 c:/program files/microchip/xc8/v2.40/avr/bin/../lib/gcc/avr/5.4.0/../../../../avr/lib/avrxmega2/memx-const/mapped\libm.a(fp_split3.o)
 .bss           0x0000000000000000        0x0 c:/program files/microchip/xc8/v2.40/avr/bin/../lib/gcc/avr/5.4.0/../../../../avr/lib/avrxmega2/memx-const/mapped\libm.a(fp_split3.o)
 .stack.descriptors
                0x0000000000000000       0x32 c:/program files/microchip/xc8/v2.40/avr/bin/../lib/gcc/avr/5.4.0/../../../../avr/lib/avrxmega2/memx-const/mapped\libm.a(fp_split3.o)
 .data          0x0000000000000000        0x0 c:/program files/microchip/xc8/v2.40/avr/bin/../lib/gcc/avr/5.4.0/../../../../avr/lib/avrxmega2/memx-const/mapped\libm.a(fp_zero.o)
 .bss           0x0000000000000000        0x0 c:/program files/microchip/xc8/v2.40/avr/bin/../lib/gcc/avr/5.4.0/../../../../avr/lib/avrxmega2/memx-const/mapped\libm.a(fp_zero.o)
 .stack.descriptors
                0x0000000000000000       0x2f c:/program files/microchip/xc8/v2.40/avr/bin/../lib/gcc/avr/5.4.0/../../../../avr/lib/avrxmega2/memx-const/mapped\libm.a(fp_zero.o)
 .data          0x0000000000000000        0x0 c:/program files/microchip/xc8/v2.40/avr/bin/../lib/gcc/avr/5.4.0/../../../../avr/lib/avrxmega2/memx-const/mapped\libm.a(mulsf3.o)
 .bss           0x0000000000000000        0x0 c:/program files/microchip/xc8/v2.40/avr/bin/../lib/gcc/avr/5.4.0/../../../../avr/lib/avrxmega2/memx-const/mapped\libm.a(mulsf3.o)
 .stack.descriptors
                0x0000000000000000       0x16 c:/program files/microchip/xc8/v2.40/avr/bin/../lib/gcc/avr/5.4.0/../../../../avr/lib/avrxmega2/memx-const/mapped\libm.a(mulsf3.o)
 .data          0x0000000000000000        0x0 c:/program files/microchip/xc8/v2.40/avr/bin/../lib/gcc/avr/5.4.0/../../../../avr/lib/avrxmega2/memx-const/mapped\libm.a(mulsf3x.o)
 .bss           0x0000000000000000        0x0 c:/program files/microchip/xc8/v2.40/avr/bin/../lib/gcc/avr/5.4.0/../../../../avr/lib/avrxmega2/memx-const/mapped\libm.a(mulsf3x.o)
 .stack.descriptors
                0x0000000000000000       0x31 c:/program files/microchip/xc8/v2.40/avr/bin/../lib/gcc/avr/5.4.0/../../../../avr/lib/avrxmega2/memx-const/mapped\libm.a(mulsf3x.o)
 .text          0x0000000000000000        0x0 c:/program files/microchip/xc8/v2.40/avr/bin/../lib/gcc/avr/5.4.0/../../../../avr/lib/avrxmega2/memx-const/mapped\libm.a(powf.o)
 .data          0x0000000000000000        0x0 c:/program files/microchip/xc8/v2.40/avr/bin/../lib/gcc/avr/5.4.0/../../../../avr/lib/avrxmega2/memx-const/mapped\libm.a(powf.o)
 .bss           0x0000000000000000        0x0 c:/program files/microchip/xc8/v2.40/avr/bin/../lib/gcc/avr/5.4.0/../../../../avr/lib/avrxmega2/memx-const/mapped\libm.a(powf.o)
 .text          0x0000000000000000        0x0 c:/program files/microchip/xc8/v2.40/avr/bin/../lib/gcc/avr/5.4.0/../../../../avr/lib/avrxmega2/memx-const/mapped\libm.a(sqrtf.o)
 .data          0x0000000000000000        0x0 c:/program files/microchip/xc8/v2.40/avr/bin/../lib/gcc/avr/5.4.0/../../../../avr/lib/avrxmega2/memx-const/mapped\libm.a(sqrtf.o)
 .bss           0x0000000000000000        0x0 c:/program files/microchip/xc8/v2.40/avr/bin/../lib/gcc/avr/5.4.0/../../../../avr/lib/avrxmega2/memx-const/mapped\libm.a(sqrtf.o)
 .text          0x0000000000000000        0x0 c:/program files/microchip/xc8/v2.40/avr/bin/../lib/gcc/avr/5.4.0/../../../../avr/lib/avrxmega2/memx-const/mapped\libm.a(fabsf.o)
 .data          0x0000000000000000        0x0 c:/program files/microchip/xc8/v2.40/avr/bin/../lib/gcc/avr/5.4.0/../../../../avr/lib/avrxmega2/memx-const/mapped\libm.a(fabsf.o)
 .bss           0x0000000000000000        0x0 c:/program files/microchip/xc8/v2.40/avr/bin/../lib/gcc/avr/5.4.0/../../../../avr/lib/avrxmega2/memx-const/mapped\libm.a(fabsf.o)
 .text          0x0000000000000000        0x0 c:/program files/microchip/xc8/v2.40/avr/bin/../lib/gcc/avr/5.4.0/../../../../avr/lib/avrxmega2/memx-const/mapped\libm.a(scalbnf.o)
 .data          0x0000000000000000        0x0 c:/program files/microchip/xc8/v2.40/avr/bin/../lib/gcc/avr/5.4.0/../../../../avr/lib/avrxmega2/memx-const/mapped\libm.a(scalbnf.o)
 .bss           0x0000000000000000        0x0 c:/program files/microchip/xc8/v2.40/avr/bin/../lib/gcc/avr/5.4.0/../../../../avr/lib/avrxmega2/memx-const/mapped\libm.a(scalbnf.o)
 .data          0x0000000000000000        0x0 c:/program files/microchip/xc8/v2.40/avr/bin/../lib/gcc/avr/5.4.0/../../../../avr/lib/avrxmega2/memx-const/mapped\libm.a(cmpsf2.o)
 .bss           0x0000000000000000        0x0 c:/program files/microchip/xc8/v2.40/avr/bin/../lib/gcc/avr/5.4.0/../../../../avr/lib/avrxmega2/memx-const/mapped\libm.a(cmpsf2.o)
 .stack.descriptors
                0x0000000000000000       0x6a c:/program files/microchip/xc8/v2.40/avr/bin/../lib/gcc/avr/5.4.0/../../../../avr/lib/avrxmega2/memx-const/mapped\libm.a(cmpsf2.o)
 .data          0x0000000000000000        0x0 c:/program files/microchip/xc8/v2.40/avr/bin/../lib/gcc/avr/5.4.0/../../../../avr/lib/avrxmega2/memx-const/mapped\libm.a(fp_cmp.o)
 .bss           0x0000000000000000        0x0 c:/program files/microchip/xc8/v2.40/avr/bin/../lib/gcc/avr/5.4.0/../../../../avr/lib/avrxmega2/memx-const/mapped\libm.a(fp_cmp.o)
 .stack.descriptors
                0x0000000000000000       0x16 c:/program files/microchip/xc8/v2.40/avr/bin/../lib/gcc/avr/5.4.0/../../../../avr/lib/avrxmega2/memx-const/mapped\libm.a(fp_cmp.o)
 .data          0x0000000000000000        0x0 c:/program files/microchip/xc8/v2.40/avr/bin/../lib/gcc/avr/5.4.0/../../../../avr/lib/avrxmega2/memx-const/mapped\libm.a(gesf2.o)
 .bss           0x0000000000000000        0x0 c:/program files/microchip/xc8/v2.40/avr/bin/../lib/gcc/avr/5.4.0/../../../../avr/lib/avrxmega2/memx-const/mapped\libm.a(gesf2.o)
 .stack.descriptors
                0x0000000000000000       0x2a c:/program files/microchip/xc8/v2.40/avr/bin/../lib/gcc/avr/5.4.0/../../../../avr/lib/avrxmega2/memx-const/mapped\libm.a(gesf2.o)
 .text          0x0000000000000000        0x0 c:/program files/microchip/xc8/v2.40/avr/bin/../lib/gcc/avr/5.4.0/avrxmega2/memx-const/mapped\libgcc.a(_mulsi3.o)
 .data          0x0000000000000000        0x0 c:/program files/microchip/xc8/v2.40/avr/bin/../lib/gcc/avr/5.4.0/avrxmega2/memx-const/mapped\libgcc.a(_mulsi3.o)
 .bss           0x0000000000000000        0x0 c:/program files/microchip/xc8/v2.40/avr/bin/../lib/gcc/avr/5.4.0/avrxmega2/memx-const/mapped\libgcc.a(_mulsi3.o)
 .stack.descriptors
                0x0000000000000000       0x16 c:/program files/microchip/xc8/v2.40/avr/bin/../lib/gcc/avr/5.4.0/avrxmega2/memx-const/mapped\libgcc.a(_mulsi3.o)
 .text.libgcc.div
                0x0000000000000000        0x0 c:/program files/microchip/xc8/v2.40/avr/bin/../lib/gcc/avr/5.4.0/avrxmega2/memx-const/mapped\libgcc.a(_mulsi3.o)
 .text.libgcc   0x0000000000000000        0x0 c:/program files/microchip/xc8/v2.40/avr/bin/../lib/gcc/avr/5.4.0/avrxmega2/memx-const/mapped\libgcc.a(_mulsi3.o)
 .text.libgcc.prologue
                0x0000000000000000        0x0 c:/program files/microchip/xc8/v2.40/avr/bin/../lib/gcc/avr/5.4.0/avrxmega2/memx-const/mapped\libgcc.a(_mulsi3.o)
 .text.libgcc.builtins
                0x0000000000000000        0x0 c:/program files/microchip/xc8/v2.40/avr/bin/../lib/gcc/avr/5.4.0/avrxmega2/memx-const/mapped\libgcc.a(_mulsi3.o)
 .text.libgcc.fmul
                0x0000000000000000        0x0 c:/program files/microchip/xc8/v2.40/avr/bin/../lib/gcc/avr/5.4.0/avrxmega2/memx-const/mapped\libgcc.a(_mulsi3.o)
 .text.libgcc.fixed
                0x0000000000000000        0x0 c:/program files/microchip/xc8/v2.40/avr/bin/../lib/gcc/avr/5.4.0/avrxmega2/memx-const/mapped\libgcc.a(_mulsi3.o)
 .text          0x0000000000000000        0x0 c:/program files/microchip/xc8/v2.40/avr/bin/../lib/gcc/avr/5.4.0/avrxmega2/memx-const/mapped\libgcc.a(_udivmodsi4.o)
 .data          0x0000000000000000        0x0 c:/program files/microchip/xc8/v2.40/avr/bin/../lib/gcc/avr/5.4.0/avrxmega2/memx-const/mapped\libgcc.a(_udivmodsi4.o)
 .bss           0x0000000000000000        0x0 c:/program files/microchip/xc8/v2.40/avr/bin/../lib/gcc/avr/5.4.0/avrxmega2/memx-const/mapped\libgcc.a(_udivmodsi4.o)
 .text.libgcc.mul
                0x0000000000000000        0x0 c:/program files/microchip/xc8/v2.40/avr/bin/../lib/gcc/avr/5.4.0/avrxmega2/memx-const/mapped\libgcc.a(_udivmodsi4.o)
 .stack.descriptors
                0x0000000000000000       0x1a c:/program files/microchip/xc8/v2.40/avr/bin/../lib/gcc/avr/5.4.0/avrxmega2/memx-const/mapped\libgcc.a(_udivmodsi4.o)
 .text.libgcc   0x0000000000000000        0x0 c:/program files/microchip/xc8/v2.40/avr/bin/../lib/gcc/avr/5.4.0/avrxmega2/memx-const/mapped\libgcc.a(_udivmodsi4.o)
 .text.libgcc.prologue
                0x0000000000000000        0x0 c:/program files/microchip/xc8/v2.40/avr/bin/../lib/gcc/avr/5.4.0/avrxmega2/memx-const/mapped\libgcc.a(_udivmodsi4.o)
 .text.libgcc.builtins
                0x0000000000000000        0x0 c:/program files/microchip/xc8/v2.40/avr/bin/../lib/gcc/avr/5.4.0/avrxmega2/memx-const/mapped\libgcc.a(_udivmodsi4.o)
 .text.libgcc.fmul
                0x0000000000000000        0x0 c:/program files/microchip/xc8/v2.40/avr/bin/../lib/gcc/avr/5.4.0/avrxmega2/memx-const/mapped\libgcc.a(_udivmodsi4.o)
 .text.libgcc.fixed
                0x0000000000000000        0x0 c:/program files/microchip/xc8/v2.40/avr/bin/../lib/gcc/avr/5.4.0/avrxmega2/memx-const/mapped\libgcc.a(_udivmodsi4.o)
 .text          0x0000000000000000        0x0 c:/program files/microchip/xc8/v2.40/avr/bin/../lib/gcc/avr/5.4.0/avrxmega2/memx-const/mapped\libgcc.a(_tablejump2.o)
 .data          0x0000000000000000        0x0 c:/program files/microchip/xc8/v2.40/avr/bin/../lib/gcc/avr/5.4.0/avrxmega2/memx-const/mapped\libgcc.a(_tablejump2.o)
 .bss           0x0000000000000000        0x0 c:/program files/microchip/xc8/v2.40/avr/bin/../lib/gcc/avr/5.4.0/avrxmega2/memx-const/mapped\libgcc.a(_tablejump2.o)
 .text.libgcc.mul
                0x0000000000000000        0x0 c:/program files/microchip/xc8/v2.40/avr/bin/../lib/gcc/avr/5.4.0/avrxmega2/memx-const/mapped\libgcc.a(_tablejump2.o)
 .text.libgcc.div
                0x0000000000000000        0x0 c:/program files/microchip/xc8/v2.40/avr/bin/../lib/gcc/avr/5.4.0/avrxmega2/memx-const/mapped\libgcc.a(_tablejump2.o)
 .text.libgcc.prologue
                0x0000000000000000        0x0 c:/program files/microchip/xc8/v2.40/avr/bin/../lib/gcc/avr/5.4.0/avrxmega2/memx-const/mapped\libgcc.a(_tablejump2.o)
 .stack.descriptors
                0x0000000000000000       0x1c c:/program files/microchip/xc8/v2.40/avr/bin/../lib/gcc/avr/5.4.0/avrxmega2/memx-const/mapped\libgcc.a(_tablejump2.o)
 .text.libgcc.builtins
                0x0000000000000000        0x0 c:/program files/microchip/xc8/v2.40/avr/bin/../lib/gcc/avr/5.4.0/avrxmega2/memx-const/mapped\libgcc.a(_tablejump2.o)
 .text.libgcc.fmul
                0x0000000000000000        0x0 c:/program files/microchip/xc8/v2.40/avr/bin/../lib/gcc/avr/5.4.0/avrxmega2/memx-const/mapped\libgcc.a(_tablejump2.o)
 .text.libgcc.fixed
                0x0000000000000000        0x0 c:/program files/microchip/xc8/v2.40/avr/bin/../lib/gcc/avr/5.4.0/avrxmega2/memx-const/mapped\libgcc.a(_tablejump2.o)
 .text          0x0000000000000000        0x0 c:/program files/microchip/xc8/v2.40/avr/bin/../lib/gcc/avr/5.4.0/avrxmega2/memx-const/mapped\libgcc.a(_copy_data.o)
 .data          0x0000000000000000        0x0 c:/program files/microchip/xc8/v2.40/avr/bin/../lib/gcc/avr/5.4.0/avrxmega2/memx-const/mapped\libgcc.a(_copy_data.o)
 .bss           0x0000000000000000        0x0 c:/program files/microchip/xc8/v2.40/avr/bin/../lib/gcc/avr/5.4.0/avrxmega2/memx-const/mapped\libgcc.a(_copy_data.o)
 .text.libgcc.mul
                0x0000000000000000        0x0 c:/program files/microchip/xc8/v2.40/avr/bin/../lib/gcc/avr/5.4.0/avrxmega2/memx-const/mapped\libgcc.a(_copy_data.o)
 .text.libgcc.div
                0x0000000000000000        0x0 c:/program files/microchip/xc8/v2.40/avr/bin/../lib/gcc/avr/5.4.0/avrxmega2/memx-const/mapped\libgcc.a(_copy_data.o)
 .text.libgcc   0x0000000000000000        0x0 c:/program files/microchip/xc8/v2.40/avr/bin/../lib/gcc/avr/5.4.0/avrxmega2/memx-const/mapped\libgcc.a(_copy_data.o)
 .text.libgcc.prologue
                0x0000000000000000        0x0 c:/program files/microchip/xc8/v2.40/avr/bin/../lib/gcc/avr/5.4.0/avrxmega2/memx-const/mapped\libgcc.a(_copy_data.o)
 .text.libgcc.builtins
                0x0000000000000000        0x0 c:/program files/microchip/xc8/v2.40/avr/bin/../lib/gcc/avr/5.4.0/avrxmega2/memx-const/mapped\libgcc.a(_copy_data.o)
 .text.libgcc.fmul
                0x0000000000000000        0x0 c:/program files/microchip/xc8/v2.40/avr/bin/../lib/gcc/avr/5.4.0/avrxmega2/memx-const/mapped\libgcc.a(_copy_data.o)
 .text.libgcc.fixed
                0x0000000000000000        0x0 c:/program files/microchip/xc8/v2.40/avr/bin/../lib/gcc/avr/5.4.0/avrxmega2/memx-const/mapped\libgcc.a(_copy_data.o)
 .text          0x0000000000000000        0x0 c:/program files/microchip/xc8/v2.40/avr/bin/../lib/gcc/avr/5.4.0/avrxmega2/memx-const/mapped\libgcc.a(_muluhisi3.o)
 .data          0x0000000000000000        0x0 c:/program files/microchip/xc8/v2.40/avr/bin/../lib/gcc/avr/5.4.0/avrxmega2/memx-const/mapped\libgcc.a(_muluhisi3.o)
 .bss           0x0000000000000000        0x0 c:/program files/microchip/xc8/v2.40/avr/bin/../lib/gcc/avr/5.4.0/avrxmega2/memx-const/mapped\libgcc.a(_muluhisi3.o)
 .stack.descriptors
                0x0000000000000000       0x19 c:/program files/microchip/xc8/v2.40/avr/bin/../lib/gcc/avr/5.4.0/avrxmega2/memx-const/mapped\libgcc.a(_muluhisi3.o)
 .text.libgcc.div
                0x0000000000000000        0x0 c:/program files/microchip/xc8/v2.40/avr/bin/../lib/gcc/avr/5.4.0/avrxmega2/memx-const/mapped\libgcc.a(_muluhisi3.o)
 .text.libgcc   0x0000000000000000        0x0 c:/program files/microchip/xc8/v2.40/avr/bin/../lib/gcc/avr/5.4.0/avrxmega2/memx-const/mapped\libgcc.a(_muluhisi3.o)
 .text.libgcc.prologue
                0x0000000000000000        0x0 c:/program files/microchip/xc8/v2.40/avr/bin/../lib/gcc/avr/5.4.0/avrxmega2/memx-const/mapped\libgcc.a(_muluhisi3.o)
 .text.libgcc.builtins
                0x0000000000000000        0x0 c:/program files/microchip/xc8/v2.40/avr/bin/../lib/gcc/avr/5.4.0/avrxmega2/memx-const/mapped\libgcc.a(_muluhisi3.o)
 .text.libgcc.fmul
                0x0000000000000000        0x0 c:/program files/microchip/xc8/v2.40/avr/bin/../lib/gcc/avr/5.4.0/avrxmega2/memx-const/mapped\libgcc.a(_muluhisi3.o)
 .text.libgcc.fixed
                0x0000000000000000        0x0 c:/program files/microchip/xc8/v2.40/avr/bin/../lib/gcc/avr/5.4.0/avrxmega2/memx-const/mapped\libgcc.a(_muluhisi3.o)
 .text          0x0000000000000000        0x0 c:/program files/microchip/xc8/v2.40/avr/bin/../lib/gcc/avr/5.4.0/avrxmega2/memx-const/mapped\libgcc.a(_mulshisi3.o)
 .data          0x0000000000000000        0x0 c:/program files/microchip/xc8/v2.40/avr/bin/../lib/gcc/avr/5.4.0/avrxmega2/memx-const/mapped\libgcc.a(_mulshisi3.o)
 .bss           0x0000000000000000        0x0 c:/program files/microchip/xc8/v2.40/avr/bin/../lib/gcc/avr/5.4.0/avrxmega2/memx-const/mapped\libgcc.a(_mulshisi3.o)
 .stack.descriptors
                0x0000000000000000       0x32 c:/program files/microchip/xc8/v2.40/avr/bin/../lib/gcc/avr/5.4.0/avrxmega2/memx-const/mapped\libgcc.a(_mulshisi3.o)
 .text.libgcc.div
                0x0000000000000000        0x0 c:/program files/microchip/xc8/v2.40/avr/bin/../lib/gcc/avr/5.4.0/avrxmega2/memx-const/mapped\libgcc.a(_mulshisi3.o)
 .text.libgcc   0x0000000000000000        0x0 c:/program files/microchip/xc8/v2.40/avr/bin/../lib/gcc/avr/5.4.0/avrxmega2/memx-const/mapped\libgcc.a(_mulshisi3.o)
 .text.libgcc.prologue
                0x0000000000000000        0x0 c:/program files/microchip/xc8/v2.40/avr/bin/../lib/gcc/avr/5.4.0/avrxmega2/memx-const/mapped\libgcc.a(_mulshisi3.o)
 .text.libgcc.builtins
                0x0000000000000000        0x0 c:/program files/microchip/xc8/v2.40/avr/bin/../lib/gcc/avr/5.4.0/avrxmega2/memx-const/mapped\libgcc.a(_mulshisi3.o)
 .text.libgcc.fmul
                0x0000000000000000        0x0 c:/program files/microchip/xc8/v2.40/avr/bin/../lib/gcc/avr/5.4.0/avrxmega2/memx-const/mapped\libgcc.a(_mulshisi3.o)
 .text.libgcc.fixed
                0x0000000000000000        0x0 c:/program files/microchip/xc8/v2.40/avr/bin/../lib/gcc/avr/5.4.0/avrxmega2/memx-const/mapped\libgcc.a(_mulshisi3.o)
 .text          0x0000000000000000        0x0 c:/program files/microchip/xc8/v2.40/avr/bin/../lib/gcc/avr/5.4.0/avrxmega2/memx-const/mapped\libgcc.a(_prologue.o)
 .data          0x0000000000000000        0x0 c:/program files/microchip/xc8/v2.40/avr/bin/../lib/gcc/avr/5.4.0/avrxmega2/memx-const/mapped\libgcc.a(_prologue.o)
 .bss           0x0000000000000000        0x0 c:/program files/microchip/xc8/v2.40/avr/bin/../lib/gcc/avr/5.4.0/avrxmega2/memx-const/mapped\libgcc.a(_prologue.o)
 .text.libgcc.mul
                0x0000000000000000        0x0 c:/program files/microchip/xc8/v2.40/avr/bin/../lib/gcc/avr/5.4.0/avrxmega2/memx-const/mapped\libgcc.a(_prologue.o)
 .text.libgcc.div
                0x0000000000000000        0x0 c:/program files/microchip/xc8/v2.40/avr/bin/../lib/gcc/avr/5.4.0/avrxmega2/memx-const/mapped\libgcc.a(_prologue.o)
 .text.libgcc   0x0000000000000000        0x0 c:/program files/microchip/xc8/v2.40/avr/bin/../lib/gcc/avr/5.4.0/avrxmega2/memx-const/mapped\libgcc.a(_prologue.o)
 .text.libgcc.builtins
                0x0000000000000000        0x0 c:/program files/microchip/xc8/v2.40/avr/bin/../lib/gcc/avr/5.4.0/avrxmega2/memx-const/mapped\libgcc.a(_prologue.o)
 .text.libgcc.fmul
                0x0000000000000000        0x0 c:/program files/microchip/xc8/v2.40/avr/bin/../lib/gcc/avr/5.4.0/avrxmega2/memx-const/mapped\libgcc.a(_prologue.o)
 .text.libgcc.fixed
                0x0000000000000000        0x0 c:/program files/microchip/xc8/v2.40/avr/bin/../lib/gcc/avr/5.4.0/avrxmega2/memx-const/mapped\libgcc.a(_prologue.o)
 .text          0x0000000000000000        0x0 c:/program files/microchip/xc8/v2.40/avr/bin/../lib/gcc/avr/5.4.0/avrxmega2/memx-const/mapped\libgcc.a(_epilogue.o)
 .data          0x0000000000000000        0x0 c:/program files/microchip/xc8/v2.40/avr/bin/../lib/gcc/avr/5.4.0/avrxmega2/memx-const/mapped\libgcc.a(_epilogue.o)
 .bss           0x0000000000000000        0x0 c:/program files/microchip/xc8/v2.40/avr/bin/../lib/gcc/avr/5.4.0/avrxmega2/memx-const/mapped\libgcc.a(_epilogue.o)
 .text.libgcc.mul
                0x0000000000000000        0x0 c:/program files/microchip/xc8/v2.40/avr/bin/../lib/gcc/avr/5.4.0/avrxmega2/memx-const/mapped\libgcc.a(_epilogue.o)
 .text.libgcc.div
                0x0000000000000000        0x0 c:/program files/microchip/xc8/v2.40/avr/bin/../lib/gcc/avr/5.4.0/avrxmega2/memx-const/mapped\libgcc.a(_epilogue.o)
 .text.libgcc   0x0000000000000000        0x0 c:/program files/microchip/xc8/v2.40/avr/bin/../lib/gcc/avr/5.4.0/avrxmega2/memx-const/mapped\libgcc.a(_epilogue.o)
 .text.libgcc.builtins
                0x0000000000000000        0x0 c:/program files/microchip/xc8/v2.40/avr/bin/../lib/gcc/avr/5.4.0/avrxmega2/memx-const/mapped\libgcc.a(_epilogue.o)
 .text.libgcc.fmul
                0x0000000000000000        0x0 c:/program files/microchip/xc8/v2.40/avr/bin/../lib/gcc/avr/5.4.0/avrxmega2/memx-const/mapped\libgcc.a(_epilogue.o)
 .text.libgcc.fixed
                0x0000000000000000        0x0 c:/program files/microchip/xc8/v2.40/avr/bin/../lib/gcc/avr/5.4.0/avrxmega2/memx-const/mapped\libgcc.a(_epilogue.o)
 .text          0x0000000000000000        0x0 c:/program files/microchip/xc8/v2.40/avr/bin/../lib/gcc/avr/5.4.0/avrxmega2/memx-const/mapped\libgcc.a(_umulhisi3.o)
 .data          0x0000000000000000        0x0 c:/program files/microchip/xc8/v2.40/avr/bin/../lib/gcc/avr/5.4.0/avrxmega2/memx-const/mapped\libgcc.a(_umulhisi3.o)
 .bss           0x0000000000000000        0x0 c:/program files/microchip/xc8/v2.40/avr/bin/../lib/gcc/avr/5.4.0/avrxmega2/memx-const/mapped\libgcc.a(_umulhisi3.o)
 .stack.descriptors
                0x0000000000000000       0x19 c:/program files/microchip/xc8/v2.40/avr/bin/../lib/gcc/avr/5.4.0/avrxmega2/memx-const/mapped\libgcc.a(_umulhisi3.o)
 .text.libgcc.div
                0x0000000000000000        0x0 c:/program files/microchip/xc8/v2.40/avr/bin/../lib/gcc/avr/5.4.0/avrxmega2/memx-const/mapped\libgcc.a(_umulhisi3.o)
 .text.libgcc   0x0000000000000000        0x0 c:/program files/microchip/xc8/v2.40/avr/bin/../lib/gcc/avr/5.4.0/avrxmega2/memx-const/mapped\libgcc.a(_umulhisi3.o)
 .text.libgcc.prologue
                0x0000000000000000        0x0 c:/program files/microchip/xc8/v2.40/avr/bin/../lib/gcc/avr/5.4.0/avrxmega2/memx-const/mapped\libgcc.a(_umulhisi3.o)
 .text.libgcc.builtins
                0x0000000000000000        0x0 c:/program files/microchip/xc8/v2.40/avr/bin/../lib/gcc/avr/5.4.0/avrxmega2/memx-const/mapped\libgcc.a(_umulhisi3.o)
 .text.libgcc.fmul
                0x0000000000000000        0x0 c:/program files/microchip/xc8/v2.40/avr/bin/../lib/gcc/avr/5.4.0/avrxmega2/memx-const/mapped\libgcc.a(_umulhisi3.o)
 .text.libgcc.fixed
                0x0000000000000000        0x0 c:/program files/microchip/xc8/v2.40/avr/bin/../lib/gcc/avr/5.4.0/avrxmega2/memx-const/mapped\libgcc.a(_umulhisi3.o)
 .text          0x0000000000000000        0x0 c:/program files/microchip/xc8/v2.40/avr/bin/../lib/gcc/avr/5.4.0/../../../../avr/lib/avrxmega2/memx-const/mapped\libc.a(errno.o)
 .data          0x0000000000000000        0x0 c:/program files/microchip/xc8/v2.40/avr/bin/../lib/gcc/avr/5.4.0/../../../../avr/lib/avrxmega2/memx-const/mapped\libc.a(errno.o)
 .bss           0x0000000000000000        0x0 c:/program files/microchip/xc8/v2.40/avr/bin/../lib/gcc/avr/5.4.0/../../../../avr/lib/avrxmega2/memx-const/mapped\libc.a(errno.o)
 .text          0x0000000000000000        0x0 c:/program files/microchip/xc8/v2.40/avr/bin/../lib/gcc/avr/5.4.0/../../../../avr/lib/avrxmega2/memx-const/mapped\libc.a(exit.o)
 .data          0x0000000000000000        0x0 c:/program files/microchip/xc8/v2.40/avr/bin/../lib/gcc/avr/5.4.0/../../../../avr/lib/avrxmega2/memx-const/mapped\libc.a(exit.o)
 .bss           0x0000000000000000        0x0 c:/program files/microchip/xc8/v2.40/avr/bin/../lib/gcc/avr/5.4.0/../../../../avr/lib/avrxmega2/memx-const/mapped\libc.a(exit.o)
 .text          0x0000000000000000        0x0 c:/program files/microchip/xc8/v2.40/avr/bin/../lib/gcc/avr/5.4.0/../../../../avr/lib/avrxmega2/memx-const/mapped\libc.a(__sio_printf_dosux.o)
 .data          0x0000000000000000        0x0 c:/program files/microchip/xc8/v2.40/avr/bin/../lib/gcc/avr/5.4.0/../../../../avr/lib/avrxmega2/memx-const/mapped\libc.a(__sio_printf_dosux.o)
 .bss           0x0000000000000000        0x0 c:/program files/microchip/xc8/v2.40/avr/bin/../lib/gcc/avr/5.4.0/../../../../avr/lib/avrxmega2/memx-const/mapped\libc.a(__sio_printf_dosux.o)
 .text.__sio_printf_dosux
                0x0000000000000000       0x1a c:/program files/microchip/xc8/v2.40/avr/bin/../lib/gcc/avr/5.4.0/../../../../avr/lib/avrxmega2/memx-const/mapped\libc.a(__sio_printf_dosux.o)
 .text          0x0000000000000000        0x0 c:/program files/microchip/xc8/v2.40/avr/bin/../lib/gcc/avr/5.4.0/../../../../avr/lib/avrxmega2/memx-const/mapped\libc.a(__sio_printf_doux.o)
 .data          0x0000000000000000        0x0 c:/program files/microchip/xc8/v2.40/avr/bin/../lib/gcc/avr/5.4.0/../../../../avr/lib/avrxmega2/memx-const/mapped\libc.a(__sio_printf_doux.o)
 .bss           0x0000000000000000        0x0 c:/program files/microchip/xc8/v2.40/avr/bin/../lib/gcc/avr/5.4.0/../../../../avr/lib/avrxmega2/memx-const/mapped\libc.a(__sio_printf_doux.o)
 .text.__sio_printf_doux
                0x0000000000000000       0x1a c:/program files/microchip/xc8/v2.40/avr/bin/../lib/gcc/avr/5.4.0/../../../../avr/lib/avrxmega2/memx-const/mapped\libc.a(__sio_printf_doux.o)
 .text          0x0000000000000000        0x0 c:/program files/microchip/xc8/v2.40/avr/bin/../lib/gcc/avr/5.4.0/../../../../avr/lib/avrxmega2/memx-const/mapped\libc.a(__sio_printf_s.o)
 .data          0x0000000000000000        0x0 c:/program files/microchip/xc8/v2.40/avr/bin/../lib/gcc/avr/5.4.0/../../../../avr/lib/avrxmega2/memx-const/mapped\libc.a(__sio_printf_s.o)
 .bss           0x0000000000000000        0x0 c:/program files/microchip/xc8/v2.40/avr/bin/../lib/gcc/avr/5.4.0/../../../../avr/lib/avrxmega2/memx-const/mapped\libc.a(__sio_printf_s.o)
 .text.__sio_printf_s
                0x0000000000000000        0x6 c:/program files/microchip/xc8/v2.40/avr/bin/../lib/gcc/avr/5.4.0/../../../../avr/lib/avrxmega2/memx-const/mapped\libc.a(__sio_printf_s.o)
 .text          0x0000000000000000        0x0 c:/program files/microchip/xc8/v2.40/avr/bin/../lib/gcc/avr/5.4.0/../../../../avr/lib/avrxmega2/memx-const/mapped\libc.a(__sio_sprintf_doux.o)
 .data          0x0000000000000000        0x0 c:/program files/microchip/xc8/v2.40/avr/bin/../lib/gcc/avr/5.4.0/../../../../avr/lib/avrxmega2/memx-const/mapped\libc.a(__sio_sprintf_doux.o)
 .bss           0x0000000000000000        0x0 c:/program files/microchip/xc8/v2.40/avr/bin/../lib/gcc/avr/5.4.0/../../../../avr/lib/avrxmega2/memx-const/mapped\libc.a(__sio_sprintf_doux.o)
 .text.__sio_sprintf_doux
                0x0000000000000000       0x1a c:/program files/microchip/xc8/v2.40/avr/bin/../lib/gcc/avr/5.4.0/../../../../avr/lib/avrxmega2/memx-const/mapped\libc.a(__sio_sprintf_doux.o)
 .text          0x0000000000000000        0x0 c:/program files/microchip/xc8/v2.40/avr/bin/../lib/gcc/avr/5.4.0/../../../../avr/lib/avrxmega2/memx-const/mapped\libc.a(__fmt_d.o)
 .data          0x0000000000000000        0x0 c:/program files/microchip/xc8/v2.40/avr/bin/../lib/gcc/avr/5.4.0/../../../../avr/lib/avrxmega2/memx-const/mapped\libc.a(__fmt_d.o)
 .bss           0x0000000000000000        0x0 c:/program files/microchip/xc8/v2.40/avr/bin/../lib/gcc/avr/5.4.0/../../../../avr/lib/avrxmega2/memx-const/mapped\libc.a(__fmt_d.o)
 .text          0x0000000000000000        0x0 c:/program files/microchip/xc8/v2.40/avr/bin/../lib/gcc/avr/5.4.0/../../../../avr/lib/avrxmega2/memx-const/mapped\libc.a(__fmt_o.o)
 .data          0x0000000000000000        0x0 c:/program files/microchip/xc8/v2.40/avr/bin/../lib/gcc/avr/5.4.0/../../../../avr/lib/avrxmega2/memx-const/mapped\libc.a(__fmt_o.o)
 .bss           0x0000000000000000        0x0 c:/program files/microchip/xc8/v2.40/avr/bin/../lib/gcc/avr/5.4.0/../../../../avr/lib/avrxmega2/memx-const/mapped\libc.a(__fmt_o.o)
 .text          0x0000000000000000        0x0 c:/program files/microchip/xc8/v2.40/avr/bin/../lib/gcc/avr/5.4.0/../../../../avr/lib/avrxmega2/memx-const/mapped\libc.a(__fmt_s.o)
 .data          0x0000000000000000        0x0 c:/program files/microchip/xc8/v2.40/avr/bin/../lib/gcc/avr/5.4.0/../../../../avr/lib/avrxmega2/memx-const/mapped\libc.a(__fmt_s.o)
 .bss           0x0000000000000000        0x0 c:/program files/microchip/xc8/v2.40/avr/bin/../lib/gcc/avr/5.4.0/../../../../avr/lib/avrxmega2/memx-const/mapped\libc.a(__fmt_s.o)
 .text          0x0000000000000000        0x0 c:/program files/microchip/xc8/v2.40/avr/bin/../lib/gcc/avr/5.4.0/../../../../avr/lib/avrxmega2/memx-const/mapped\libc.a(__fmt_u.o)
 .data          0x0000000000000000        0x0 c:/program files/microchip/xc8/v2.40/avr/bin/../lib/gcc/avr/5.4.0/../../../../avr/lib/avrxmega2/memx-const/mapped\libc.a(__fmt_u.o)
 .bss           0x0000000000000000        0x0 c:/program files/microchip/xc8/v2.40/avr/bin/../lib/gcc/avr/5.4.0/../../../../avr/lib/avrxmega2/memx-const/mapped\libc.a(__fmt_u.o)
 .text          0x0000000000000000        0x0 c:/program files/microchip/xc8/v2.40/avr/bin/../lib/gcc/avr/5.4.0/../../../../avr/lib/avrxmega2/memx-const/mapped\libc.a(__fmt_x.o)
 .data          0x0000000000000000        0x0 c:/program files/microchip/xc8/v2.40/avr/bin/../lib/gcc/avr/5.4.0/../../../../avr/lib/avrxmega2/memx-const/mapped\libc.a(__fmt_x.o)
 .bss           0x0000000000000000        0x0 c:/program files/microchip/xc8/v2.40/avr/bin/../lib/gcc/avr/5.4.0/../../../../avr/lib/avrxmega2/memx-const/mapped\libc.a(__fmt_x.o)
 .text          0x0000000000000000        0x0 c:/program files/microchip/xc8/v2.40/avr/bin/../lib/gcc/avr/5.4.0/../../../../avr/lib/avrxmega2/memx-const/mapped\libc.a(__pop_int.o)
 .data          0x0000000000000000        0x0 c:/program files/microchip/xc8/v2.40/avr/bin/../lib/gcc/avr/5.4.0/../../../../avr/lib/avrxmega2/memx-const/mapped\libc.a(__pop_int.o)
 .bss           0x0000000000000000        0x0 c:/program files/microchip/xc8/v2.40/avr/bin/../lib/gcc/avr/5.4.0/../../../../avr/lib/avrxmega2/memx-const/mapped\libc.a(__pop_int.o)
 .text          0x0000000000000000        0x0 c:/program files/microchip/xc8/v2.40/avr/bin/../lib/gcc/avr/5.4.0/../../../../avr/lib/avrxmega2/memx-const/mapped\libc.a(__printf_core.o)
 .data          0x0000000000000000        0x0 c:/program files/microchip/xc8/v2.40/avr/bin/../lib/gcc/avr/5.4.0/../../../../avr/lib/avrxmega2/memx-const/mapped\libc.a(__printf_core.o)
 .bss           0x0000000000000000        0x0 c:/program files/microchip/xc8/v2.40/avr/bin/../lib/gcc/avr/5.4.0/../../../../avr/lib/avrxmega2/memx-const/mapped\libc.a(__printf_core.o)
 .text          0x0000000000000000        0x0 c:/program files/microchip/xc8/v2.40/avr/bin/../lib/gcc/avr/5.4.0/../../../../avr/lib/avrxmega2/memx-const/mapped\libc.a(fputc.o)
 .data          0x0000000000000000        0x0 c:/program files/microchip/xc8/v2.40/avr/bin/../lib/gcc/avr/5.4.0/../../../../avr/lib/avrxmega2/memx-const/mapped\libc.a(fputc.o)
 .bss           0x0000000000000000        0x0 c:/program files/microchip/xc8/v2.40/avr/bin/../lib/gcc/avr/5.4.0/../../../../avr/lib/avrxmega2/memx-const/mapped\libc.a(fputc.o)
 .text          0x0000000000000000        0x0 c:/program files/microchip/xc8/v2.40/avr/bin/../lib/gcc/avr/5.4.0/../../../../avr/lib/avrxmega2/memx-const/mapped\libc.a(puts.o)
 .data          0x0000000000000000        0x0 c:/program files/microchip/xc8/v2.40/avr/bin/../lib/gcc/avr/5.4.0/../../../../avr/lib/avrxmega2/memx-const/mapped\libc.a(puts.o)
 .bss           0x0000000000000000        0x0 c:/program files/microchip/xc8/v2.40/avr/bin/../lib/gcc/avr/5.4.0/../../../../avr/lib/avrxmega2/memx-const/mapped\libc.a(puts.o)
 .text          0x0000000000000000        0x0 c:/program files/microchip/xc8/v2.40/avr/bin/../lib/gcc/avr/5.4.0/../../../../avr/lib/avrxmega2/memx-const/mapped\libc.a(stdout.o)
 .data          0x0000000000000000        0x0 c:/program files/microchip/xc8/v2.40/avr/bin/../lib/gcc/avr/5.4.0/../../../../avr/lib/avrxmega2/memx-const/mapped\libc.a(stdout.o)
 .bss           0x0000000000000000        0x0 c:/program files/microchip/xc8/v2.40/avr/bin/../lib/gcc/avr/5.4.0/../../../../avr/lib/avrxmega2/memx-const/mapped\libc.a(stdout.o)
 .text.__init_stdout
                0x0000000000000000       0x1e c:/program files/microchip/xc8/v2.40/avr/bin/../lib/gcc/avr/5.4.0/../../../../avr/lib/avrxmega2/memx-const/mapped\libc.a(stdout.o)
 .data.f        0x0000000000000000       0x10 c:/program files/microchip/xc8/v2.40/avr/bin/../lib/gcc/avr/5.4.0/../../../../avr/lib/avrxmega2/memx-const/mapped\libc.a(stdout.o)
 COMMON         0x0000000000000000        0x2 c:/program files/microchip/xc8/v2.40/avr/bin/../lib/gcc/avr/5.4.0/../../../../avr/lib/avrxmega2/memx-const/mapped\libc.a(stdout.o)
 .text          0x0000000000000000        0x0 c:/program files/microchip/xc8/v2.40/avr/bin/../lib/gcc/avr/5.4.0/../../../../avr/lib/avrxmega2/memx-const/mapped\libc.a(strlen.o)
 .data          0x0000000000000000        0x0 c:/program files/microchip/xc8/v2.40/avr/bin/../lib/gcc/avr/5.4.0/../../../../avr/lib/avrxmega2/memx-const/mapped\libc.a(strlen.o)
 .bss           0x0000000000000000        0x0 c:/program files/microchip/xc8/v2.40/avr/bin/../lib/gcc/avr/5.4.0/../../../../avr/lib/avrxmega2/memx-const/mapped\libc.a(strlen.o)
 .text          0x0000000000000000        0x0 c:/program files/microchip/xc8/v2.40/avr/bin/../lib/gcc/avr/5.4.0/../../../../avr/lib/avrxmega2/memx-const/mapped\libc.a(tolower.o)
 .data          0x0000000000000000        0x0 c:/program files/microchip/xc8/v2.40/avr/bin/../lib/gcc/avr/5.4.0/../../../../avr/lib/avrxmega2/memx-const/mapped\libc.a(tolower.o)
 .bss           0x0000000000000000        0x0 c:/program files/microchip/xc8/v2.40/avr/bin/../lib/gcc/avr/5.4.0/../../../../avr/lib/avrxmega2/memx-const/mapped\libc.a(tolower.o)
 .text.__tolower_l
                0x0000000000000000        0x6 c:/program files/microchip/xc8/v2.40/avr/bin/../lib/gcc/avr/5.4.0/../../../../avr/lib/avrxmega2/memx-const/mapped\libc.a(tolower.o)
 .text          0x0000000000000000        0x0 c:/program files/microchip/xc8/v2.40/avr/bin/../lib/gcc/avr/5.4.0/../../../../avr/lib/avrxmega2/memx-const/mapped\libc.a(toupper.o)
 .data          0x0000000000000000        0x0 c:/program files/microchip/xc8/v2.40/avr/bin/../lib/gcc/avr/5.4.0/../../../../avr/lib/avrxmega2/memx-const/mapped\libc.a(toupper.o)
 .bss           0x0000000000000000        0x0 c:/program files/microchip/xc8/v2.40/avr/bin/../lib/gcc/avr/5.4.0/../../../../avr/lib/avrxmega2/memx-const/mapped\libc.a(toupper.o)
 .text.__toupper_l
                0x0000000000000000        0x6 c:/program files/microchip/xc8/v2.40/avr/bin/../lib/gcc/avr/5.4.0/../../../../avr/lib/avrxmega2/memx-const/mapped\libc.a(toupper.o)
 .text          0x0000000000000000        0x0 c:/program files/microchip/xc8/v2.40/avr/bin/../lib/gcc/avr/5.4.0/../../../../avr/lib/avrxmega2/memx-const/mapped\libc.a(_Exit.o)
 .data          0x0000000000000000        0x0 c:/program files/microchip/xc8/v2.40/avr/bin/../lib/gcc/avr/5.4.0/../../../../avr/lib/avrxmega2/memx-const/mapped\libc.a(_Exit.o)
 .bss           0x0000000000000000        0x0 c:/program files/microchip/xc8/v2.40/avr/bin/../lib/gcc/avr/5.4.0/../../../../avr/lib/avrxmega2/memx-const/mapped\libc.a(_Exit.o)
 .text          0x0000000000000000        0x0 c:/program files/microchip/xc8/v2.40/avr/bin/../lib/gcc/avr/5.4.0/../../../../avr/lib/avrxmega2/memx-const/mapped\libc.a(__int_vfprintf.o)
 .data          0x0000000000000000        0x0 c:/program files/microchip/xc8/v2.40/avr/bin/../lib/gcc/avr/5.4.0/../../../../avr/lib/avrxmega2/memx-const/mapped\libc.a(__int_vfprintf.o)
 .bss           0x0000000000000000        0x0 c:/program files/microchip/xc8/v2.40/avr/bin/../lib/gcc/avr/5.4.0/../../../../avr/lib/avrxmega2/memx-const/mapped\libc.a(__int_vfprintf.o)
 .text          0x0000000000000000        0x0 c:/program files/microchip/xc8/v2.40/avr/bin/../lib/gcc/avr/5.4.0/../../../../avr/lib/avrxmega2/memx-const/mapped\libc.a(__int_vsprintf.o)
 .data          0x0000000000000000        0x0 c:/program files/microchip/xc8/v2.40/avr/bin/../lib/gcc/avr/5.4.0/../../../../avr/lib/avrxmega2/memx-const/mapped\libc.a(__int_vsprintf.o)
 .bss           0x0000000000000000        0x0 c:/program files/microchip/xc8/v2.40/avr/bin/../lib/gcc/avr/5.4.0/../../../../avr/lib/avrxmega2/memx-const/mapped\libc.a(__int_vsprintf.o)
 .text          0x0000000000000000        0x0 c:/program files/microchip/xc8/v2.40/avr/bin/../lib/gcc/avr/5.4.0/../../../../avr/lib/avrxmega2/memx-const/mapped\libc.a(__int_vsnprintf.o)
 .data          0x0000000000000000        0x0 c:/program files/microchip/xc8/v2.40/avr/bin/../lib/gcc/avr/5.4.0/../../../../avr/lib/avrxmega2/memx-const/mapped\libc.a(__int_vsnprintf.o)
 .bss           0x0000000000000000        0x0 c:/program files/microchip/xc8/v2.40/avr/bin/../lib/gcc/avr/5.4.0/../../../../avr/lib/avrxmega2/memx-const/mapped\libc.a(__int_vsnprintf.o)
 .text          0x0000000000000000        0x0 c:/program files/microchip/xc8/v2.40/avr/bin/../lib/gcc/avr/5.4.0/../../../../avr/lib/avrxmega2/memx-const/mapped\libc.a(fputs.o)
 .data          0x0000000000000000        0x0 c:/program files/microchip/xc8/v2.40/avr/bin/../lib/gcc/avr/5.4.0/../../../../avr/lib/avrxmega2/memx-const/mapped\libc.a(fputs.o)
 .bss           0x0000000000000000        0x0 c:/program files/microchip/xc8/v2.40/avr/bin/../lib/gcc/avr/5.4.0/../../../../avr/lib/avrxmega2/memx-const/mapped\libc.a(fputs.o)
 .text          0x0000000000000000        0x0 c:/program files/microchip/xc8/v2.40/avr/bin/../lib/gcc/avr/5.4.0/avrxmega2/memx-const/mapped\libgcc.a(_exit.o)
 .data          0x0000000000000000        0x0 c:/program files/microchip/xc8/v2.40/avr/bin/../lib/gcc/avr/5.4.0/avrxmega2/memx-const/mapped\libgcc.a(_exit.o)
 .bss           0x0000000000000000        0x0 c:/program files/microchip/xc8/v2.40/avr/bin/../lib/gcc/avr/5.4.0/avrxmega2/memx-const/mapped\libgcc.a(_exit.o)
 .text.libgcc.mul
                0x0000000000000000        0x0 c:/program files/microchip/xc8/v2.40/avr/bin/../lib/gcc/avr/5.4.0/avrxmega2/memx-const/mapped\libgcc.a(_exit.o)
 .text.libgcc.div
                0x0000000000000000        0x0 c:/program files/microchip/xc8/v2.40/avr/bin/../lib/gcc/avr/5.4.0/avrxmega2/memx-const/mapped\libgcc.a(_exit.o)
 .text.libgcc   0x0000000000000000        0x0 c:/program files/microchip/xc8/v2.40/avr/bin/../lib/gcc/avr/5.4.0/avrxmega2/memx-const/mapped\libgcc.a(_exit.o)
 .text.libgcc.prologue
                0x0000000000000000        0x0 c:/program files/microchip/xc8/v2.40/avr/bin/../lib/gcc/avr/5.4.0/avrxmega2/memx-const/mapped\libgcc.a(_exit.o)
 .stack.descriptors
                0x0000000000000000       0x13 c:/program files/microchip/xc8/v2.40/avr/bin/../lib/gcc/avr/5.4.0/avrxmega2/memx-const/mapped\libgcc.a(_exit.o)
 .text.libgcc.builtins
                0x0000000000000000        0x0 c:/program files/microchip/xc8/v2.40/avr/bin/../lib/gcc/avr/5.4.0/avrxmega2/memx-const/mapped\libgcc.a(_exit.o)
 .text.libgcc.fmul
                0x0000000000000000        0x0 c:/program files/microchip/xc8/v2.40/avr/bin/../lib/gcc/avr/5.4.0/avrxmega2/memx-const/mapped\libgcc.a(_exit.o)
 .text.libgcc.fixed
                0x0000000000000000        0x0 c:/program files/microchip/xc8/v2.40/avr/bin/../lib/gcc/avr/5.4.0/avrxmega2/memx-const/mapped\libgcc.a(_exit.o)

Memory Configuration

Name             Origin             Length             Attributes
text             0x0000000000000000 0x0000000000010000 xr
data             0x0000000000806000 0x0000000000002000 rw !x
eeprom           0x0000000000810000 0x0000000000000100 rw !x
fuse             0x0000000000820000 0x0000000000000010 rw !x
lock             0x0000000000830000 0x0000000000000400 rw !x
signature        0x0000000000840000 0x0000000000000400 rw !x
user_signatures  0x0000000000850000 0x0000000000000400 rw !x
*default*        0x0000000000000000 0xffffffffffffffff

Linker script and memory map

Address of section .data set to 0x806000
                0x0000000000008000                __RODATA_PM_OFFSET__ = 0x8000
LOAD C:/Users/C70348/.mchp_packs/Microchip/AVR-Dx_DFP/2.1.152/xc8/avr/lib/avrxmega2/memx-const/mapped/crtavr64dd32.o
                0x0000000000000001                __MPLAB_BUILD = 0x1
LOAD build/default/production/mcc_generated_files/adc/src/adc0.o
LOAD build/default/production/mcc_generated_files/evsys/src/evsys.o
LOAD build/default/production/mcc_generated_files/system/src/pins.o
LOAD build/default/production/mcc_generated_files/system/src/interrupt.o
LOAD build/default/production/mcc_generated_files/system/src/system.o
LOAD build/default/production/mcc_generated_files/system/src/clock.o
LOAD build/default/production/mcc_generated_files/system/src/config_bits.o
LOAD build/default/production/mcc_generated_files/system/src/protected_io.o
LOAD build/default/production/mcc_generated_files/timer/src/tcb0.o
LOAD build/default/production/mcc_generated_files/timer/src/rtc.o
LOAD build/default/production/mcc_generated_files/uart/src/usart0.o
LOAD build/default/production/mcc_generated_files/vref/src/vref.o
LOAD build/default/production/main.o
LOAD build/default/production/RN2xx3.o
LOAD build/default/production/usart1.o
LOAD build/default/production/usart1_utilities.o
LOAD build/default/production/ringBuffer.o
LOAD build/default/production/application.o
LOAD build/default/production/bme280.o
LOAD build/default/production/TWI.o
START GROUP
LOAD c:/program files/microchip/xc8/v2.40/avr/bin/../lib/gcc/avr/5.4.0/../../../../avr/lib/avrxmega2/memx-const/mapped\libm.a
END GROUP
START GROUP
LOAD c:/program files/microchip/xc8/v2.40/avr/bin/../lib/gcc/avr/5.4.0/avrxmega2/memx-const/mapped\libgcc.a
LOAD c:/program files/microchip/xc8/v2.40/avr/bin/../lib/gcc/avr/5.4.0/../../../../avr/lib/avrxmega2/memx-const/mapped\libm.a
LOAD c:/program files/microchip/xc8/v2.40/avr/bin/../lib/gcc/avr/5.4.0/../../../../avr/lib/avrxmega2/memx-const/mapped\libc.a
LOAD C:/Users/C70348/.mchp_packs/Microchip/AVR-Dx_DFP/2.1.152/xc8/avr/lib/avrxmega2/memx-const/mapped\libavr64dd32.a
END GROUP
                [0x0000000000000000]                __TEXT_REGION_ORIGIN__ = DEFINED (__TEXT_REGION_ORIGIN__)?__TEXT_REGION_ORIGIN__:0x0
                [0x0000000000806000]                __DATA_REGION_ORIGIN__ = DEFINED (__DATA_REGION_ORIGIN__)?__DATA_REGION_ORIGIN__:0x802000
                [0x0000000000010000]                __TEXT_REGION_LENGTH__ = DEFINED (__TEXT_REGION_LENGTH__)?__TEXT_REGION_LENGTH__:0x100000
                [0x0000000000002000]                __DATA_REGION_LENGTH__ = DEFINED (__DATA_REGION_LENGTH__)?__DATA_REGION_LENGTH__:0xffa0
                [0x0000000000000100]                __EEPROM_REGION_LENGTH__ = DEFINED (__EEPROM_REGION_LENGTH__)?__EEPROM_REGION_LENGTH__:0x10000
                [0x0000000000000010]                __FUSE_REGION_LENGTH__ = DEFINED (__FUSE_REGION_LENGTH__)?__FUSE_REGION_LENGTH__:0x400
                0x0000000000000400                __LOCK_REGION_LENGTH__ = DEFINED (__LOCK_REGION_LENGTH__)?__LOCK_REGION_LENGTH__:0x400
                0x0000000000000400                __SIGNATURE_REGION_LENGTH__ = DEFINED (__SIGNATURE_REGION_LENGTH__)?__SIGNATURE_REGION_LENGTH__:0x400
                0x0000000000000400                __USER_SIGNATURE_REGION_LENGTH__ = DEFINED (__USER_SIGNATURE_REGION_LENGTH__)?__USER_SIGNATURE_REGION_LENGTH__:0x400

.hash
 *(.hash)

.dynsym
 *(.dynsym)

.dynstr
 *(.dynstr)

.gnu.version
 *(.gnu.version)

.gnu.version_d
 *(.gnu.version_d)

.gnu.version_r
 *(.gnu.version_r)

.rel.init
 *(.rel.init)

.rela.init
 *(.rela.init)

.rel.text
 *(.rel.text)
 *(.rel.text.*)
 *(.rel.gnu.linkonce.t*)

.rela.text
 *(.rela.text)
 *(.rela.text.*)
 *(.rela.gnu.linkonce.t*)

.rel.fini
 *(.rel.fini)

.rela.fini
 *(.rela.fini)

.rel.rodata
 *(.rel.rodata)
 *(.rel.rodata.*)
 *(.rel.gnu.linkonce.r*)

.rela.rodata
 *(.rela.rodata)
 *(.rela.rodata.*)
 *(.rela.gnu.linkonce.r*)

.rel.data
 *(.rel.data)
 *(.rel.data.*)
 *(.rel.gnu.linkonce.d*)

.rela.data
 *(.rela.data)
 *(.rela.data.*)
 *(.rela.gnu.linkonce.d*)

.rel.ctors
 *(.rel.ctors)

.rela.ctors
 *(.rela.ctors)

.rel.dtors
 *(.rel.dtors)

.rela.dtors
 *(.rela.dtors)

.rel.got
 *(.rel.got)

.rela.got
 *(.rela.got)

.rel.bss
 *(.rel.bss)

.rela.bss
 *(.rela.bss)

.rel.plt
 *(.rel.plt)

.rela.plt
 *(.rela.plt)

.text           0x0000000000000000      0x14c
 *(.vectors)
 .vectors       0x0000000000000000       0x90 C:/Users/C70348/.mchp_packs/Microchip/AVR-Dx_DFP/2.1.152/xc8/avr/lib/avrxmega2/memx-const/mapped/crtavr64dd32.o
                0x0000000000000000                __vector_default
                0x0000000000000000                __vectors
 *(.vectors)
 *(.progmem.gcc*)
 .progmem.gcc_sw_table.stateMachine
                0x0000000000000090       0x18 build/default/production/application.o
 *(.dinit)
 .dinit         0x00000000000000a8       0x41 data_init
                0x00000000000000ea                . = ALIGN (0x2)
 *fill*         0x00000000000000e9        0x1 
                0x00000000000000ea                __trampolines_start = .
 *(.trampolines)
 .trampolines   0x00000000000000ea        0x0 linker stubs
 *(.trampolines*)
                0x00000000000000ea                __trampolines_end = .
 *libprintf_flt.a:*(.progmem.data)
 *libc.a:*(.progmem.data)
                0x00000000000000ea                . = ALIGN (0x2)
 *(.jumptables)
 *(.jumptables*)
 *(.lowtext)
 *(.lowtext*)
                0x00000000000000ea                __ctors_start = .
 *(.ctors)
                0x00000000000000ea                __ctors_end = .
                0x00000000000000ea                __dtors_start = .
 *(.dtors)
                0x00000000000000ea                __dtors_end = .
 SORT(*)(.ctors)
 SORT(*)(.dtors)
 *(.init0)
 .init0         0x00000000000000ea        0x0 C:/Users/C70348/.mchp_packs/Microchip/AVR-Dx_DFP/2.1.152/xc8/avr/lib/avrxmega2/memx-const/mapped/crtavr64dd32.o
                0x00000000000000ea                __init
 *(.init0)
 *(.init1)
 .init1         0x00000000000000ea        0xe C:/Users/C70348/.mchp_packs/Microchip/AVR-Dx_DFP/2.1.152/xc8/avr/lib/avrxmega2/memx-const/mapped/crtavr64dd32.o
 *(.init1)
 *(.init2)
 .init2         0x00000000000000f8        0xc C:/Users/C70348/.mchp_packs/Microchip/AVR-Dx_DFP/2.1.152/xc8/avr/lib/avrxmega2/memx-const/mapped/crtavr64dd32.o
 *(.init2)
 *(.init3)
 *(.init3)
 *(.init4)
 .init4         0x0000000000000104       0x3c c:/program files/microchip/xc8/v2.40/avr/bin/../lib/gcc/avr/5.4.0/avrxmega2/memx-const/mapped\libgcc.a(_copy_data.o)
                0x0000000000000104                __do_copy_data
                0x0000000000000132                __do_clear_bss
 *(.init4)
 *(.init5)
 *(.init5)
 *(.init6)
 *(.init6)
 *(.init7)
 *(.init7)
 *(.init8)
 *(.init8)
 *(.init9)
 .init9         0x0000000000000140        0x8 C:/Users/C70348/.mchp_packs/Microchip/AVR-Dx_DFP/2.1.152/xc8/avr/lib/avrxmega2/memx-const/mapped/crtavr64dd32.o
 *(.init9)
                0x0000000000000148                . = ALIGN (0x2)
 *(.fini9)
 .fini9         0x0000000000000148        0x0 c:/program files/microchip/xc8/v2.40/avr/bin/../lib/gcc/avr/5.4.0/avrxmega2/memx-const/mapped\libgcc.a(_exit.o)
                0x0000000000000148                _exit
 *(.fini9)
 *(.fini8)
 *(.fini8)
 *(.fini7)
 *(.fini7)
 *(.fini6)
 *(.fini6)
 *(.fini5)
 *(.fini5)
 *(.fini4)
 *(.fini4)
 *(.fini3)
 *(.fini3)
 *(.fini2)
 *(.fini2)
 *(.fini1)
 *(.fini1)
 *(.fini0)
 .fini0         0x0000000000000148        0x4 c:/program files/microchip/xc8/v2.40/avr/bin/../lib/gcc/avr/5.4.0/avrxmega2/memx-const/mapped\libgcc.a(_exit.o)
 *(.fini0)
                0x000000000000014c                _etext = .

.data           0x0000000000806000        0x0 load address 0x000000000000014c
                [!provide]                        PROVIDE (__data_start, .)
 *(.gnu.linkonce.d*)
 *(.gnu.linkonce.r*)
                0x0000000000806000                . = ALIGN (0x2)
                0x0000000000806000                _edata = .
                [!provide]                        PROVIDE (__data_end, .)

.bss            0x0000000000806000        0x2
                [!provide]                        PROVIDE (__bss_start, .)
 *(COMMON)
 COMMON         0x0000000000806000        0x2 c:/program files/microchip/xc8/v2.40/avr/bin/../lib/gcc/avr/5.4.0/../../../../avr/lib/avrxmega2/memx-const/mapped\libc.a(errno.o)
                0x0000000000806000                __errno_val
                [!provide]                        PROVIDE (__bss_end, .)
                0x000000000000014c                __data_load_start = LOADADDR (.data)
                0x000000000000014c                __data_load_end = (__data_load_start + SIZEOF (.data))

.noinit         0x0000000000806002        0x0
                [!provide]                        PROVIDE (__noinit_start, .)
 *(.noinit*)
                [!provide]                        PROVIDE (__noinit_end, .)
                0x0000000000806002                _end = .

.eeprom         0x0000000000810000        0x0
 *(.eeprom*)
                0x0000000000810000                __eeprom_end = .

.fuse           0x0000000000820000        0x9
 *(.fuse)
 .fuse          0x0000000000820000        0x9 build/default/production/mcc_generated_files/system/src/config_bits.o
                0x0000000000820000                __fuse
 *(.lfuse)
 *(.hfuse)
 *(.efuse)

.lock
 *(.lock*)

.signature
 *(.signature*)

.user_signatures
 *(.user_signatures*)

.stab
 *(.stab)

.stabstr
 *(.stabstr)

.stab.excl
 *(.stab.excl)

.stab.exclstr
 *(.stab.exclstr)

.stab.index
 *(.stab.index)

.stab.indexstr
 *(.stab.indexstr)

.comment        0x0000000000000000       0x2f
 *(.comment)
 .comment       0x0000000000000000       0x2f build/default/production/mcc_generated_files/adc/src/adc0.o
                                         0x30 (size before relaxing)
 .comment       0x000000000000002f       0x30 build/default/production/mcc_generated_files/evsys/src/evsys.o
 .comment       0x000000000000002f       0x30 build/default/production/mcc_generated_files/system/src/pins.o
 .comment       0x000000000000002f       0x30 build/default/production/mcc_generated_files/system/src/interrupt.o
 .comment       0x000000000000002f       0x30 build/default/production/mcc_generated_files/system/src/system.o
 .comment       0x000000000000002f       0x30 build/default/production/mcc_generated_files/system/src/clock.o
 .comment       0x000000000000002f       0x30 build/default/production/mcc_generated_files/system/src/config_bits.o
 .comment       0x000000000000002f       0x30 build/default/production/mcc_generated_files/timer/src/tcb0.o
 .comment       0x000000000000002f       0x30 build/default/production/mcc_generated_files/timer/src/rtc.o
 .comment       0x000000000000002f       0x30 build/default/production/mcc_generated_files/uart/src/usart0.o
 .comment       0x000000000000002f       0x30 build/default/production/mcc_generated_files/vref/src/vref.o
 .comment       0x000000000000002f       0x30 build/default/production/main.o
 .comment       0x000000000000002f       0x30 build/default/production/RN2xx3.o
 .comment       0x000000000000002f       0x30 build/default/production/usart1.o
 .comment       0x000000000000002f       0x30 build/default/production/usart1_utilities.o
 .comment       0x000000000000002f       0x30 build/default/production/ringBuffer.o
 .comment       0x000000000000002f       0x30 build/default/production/application.o
 .comment       0x000000000000002f       0x30 build/default/production/bme280.o
 .comment       0x000000000000002f       0x30 build/default/production/TWI.o
 .comment       0x000000000000002f       0x30 c:/program files/microchip/xc8/v2.40/avr/bin/../lib/gcc/avr/5.4.0/../../../../avr/lib/avrxmega2/memx-const/mapped\libm.a(powf.o)
 .comment       0x000000000000002f       0x30 c:/program files/microchip/xc8/v2.40/avr/bin/../lib/gcc/avr/5.4.0/../../../../avr/lib/avrxmega2/memx-const/mapped\libm.a(sqrtf.o)
 .comment       0x000000000000002f       0x30 c:/program files/microchip/xc8/v2.40/avr/bin/../lib/gcc/avr/5.4.0/../../../../avr/lib/avrxmega2/memx-const/mapped\libm.a(fabsf.o)
 .comment       0x000000000000002f       0x30 c:/program files/microchip/xc8/v2.40/avr/bin/../lib/gcc/avr/5.4.0/../../../../avr/lib/avrxmega2/memx-const/mapped\libm.a(scalbnf.o)
 .comment       0x000000000000002f       0x30 c:/program files/microchip/xc8/v2.40/avr/bin/../lib/gcc/avr/5.4.0/../../../../avr/lib/avrxmega2/memx-const/mapped\libc.a(errno.o)
 .comment       0x000000000000002f       0x30 c:/program files/microchip/xc8/v2.40/avr/bin/../lib/gcc/avr/5.4.0/../../../../avr/lib/avrxmega2/memx-const/mapped\libc.a(exit.o)
 .comment       0x000000000000002f       0x30 c:/program files/microchip/xc8/v2.40/avr/bin/../lib/gcc/avr/5.4.0/../../../../avr/lib/avrxmega2/memx-const/mapped\libc.a(__sio_printf_dosux.o)
 .comment       0x000000000000002f       0x30 c:/program files/microchip/xc8/v2.40/avr/bin/../lib/gcc/avr/5.4.0/../../../../avr/lib/avrxmega2/memx-const/mapped\libc.a(__sio_printf_doux.o)
 .comment       0x000000000000002f       0x30 c:/program files/microchip/xc8/v2.40/avr/bin/../lib/gcc/avr/5.4.0/../../../../avr/lib/avrxmega2/memx-const/mapped\libc.a(__sio_printf_s.o)
 .comment       0x000000000000002f       0x30 c:/program files/microchip/xc8/v2.40/avr/bin/../lib/gcc/avr/5.4.0/../../../../avr/lib/avrxmega2/memx-const/mapped\libc.a(__sio_sprintf_doux.o)
 .comment       0x000000000000002f       0x30 c:/program files/microchip/xc8/v2.40/avr/bin/../lib/gcc/avr/5.4.0/../../../../avr/lib/avrxmega2/memx-const/mapped\libc.a(__fmt_d.o)
 .comment       0x000000000000002f       0x30 c:/program files/microchip/xc8/v2.40/avr/bin/../lib/gcc/avr/5.4.0/../../../../avr/lib/avrxmega2/memx-const/mapped\libc.a(__fmt_o.o)
 .comment       0x000000000000002f       0x30 c:/program files/microchip/xc8/v2.40/avr/bin/../lib/gcc/avr/5.4.0/../../../../avr/lib/avrxmega2/memx-const/mapped\libc.a(__fmt_s.o)
 .comment       0x000000000000002f       0x30 c:/program files/microchip/xc8/v2.40/avr/bin/../lib/gcc/avr/5.4.0/../../../../avr/lib/avrxmega2/memx-const/mapped\libc.a(__fmt_u.o)
 .comment       0x000000000000002f       0x30 c:/program files/microchip/xc8/v2.40/avr/bin/../lib/gcc/avr/5.4.0/../../../../avr/lib/avrxmega2/memx-const/mapped\libc.a(__fmt_x.o)
 .comment       0x000000000000002f       0x30 c:/program files/microchip/xc8/v2.40/avr/bin/../lib/gcc/avr/5.4.0/../../../../avr/lib/avrxmega2/memx-const/mapped\libc.a(__pop_int.o)
 .comment       0x000000000000002f       0x30 c:/program files/microchip/xc8/v2.40/avr/bin/../lib/gcc/avr/5.4.0/../../../../avr/lib/avrxmega2/memx-const/mapped\libc.a(__printf_core.o)
 .comment       0x000000000000002f       0x30 c:/program files/microchip/xc8/v2.40/avr/bin/../lib/gcc/avr/5.4.0/../../../../avr/lib/avrxmega2/memx-const/mapped\libc.a(fputc.o)
 .comment       0x000000000000002f       0x30 c:/program files/microchip/xc8/v2.40/avr/bin/../lib/gcc/avr/5.4.0/../../../../avr/lib/avrxmega2/memx-const/mapped\libc.a(puts.o)
 .comment       0x000000000000002f       0x30 c:/program files/microchip/xc8/v2.40/avr/bin/../lib/gcc/avr/5.4.0/../../../../avr/lib/avrxmega2/memx-const/mapped\libc.a(stdout.o)
 .comment       0x000000000000002f       0x30 c:/program files/microchip/xc8/v2.40/avr/bin/../lib/gcc/avr/5.4.0/../../../../avr/lib/avrxmega2/memx-const/mapped\libc.a(strlen.o)
 .comment       0x000000000000002f       0x30 c:/program files/microchip/xc8/v2.40/avr/bin/../lib/gcc/avr/5.4.0/../../../../avr/lib/avrxmega2/memx-const/mapped\libc.a(tolower.o)
 .comment       0x000000000000002f       0x30 c:/program files/microchip/xc8/v2.40/avr/bin/../lib/gcc/avr/5.4.0/../../../../avr/lib/avrxmega2/memx-const/mapped\libc.a(toupper.o)
 .comment       0x000000000000002f       0x30 c:/program files/microchip/xc8/v2.40/avr/bin/../lib/gcc/avr/5.4.0/../../../../avr/lib/avrxmega2/memx-const/mapped\libc.a(_Exit.o)
 .comment       0x000000000000002f       0x30 c:/program files/microchip/xc8/v2.40/avr/bin/../lib/gcc/avr/5.4.0/../../../../avr/lib/avrxmega2/memx-const/mapped\libc.a(__int_vfprintf.o)
 .comment       0x000000000000002f       0x30 c:/program files/microchip/xc8/v2.40/avr/bin/../lib/gcc/avr/5.4.0/../../../../avr/lib/avrxmega2/memx-const/mapped\libc.a(__int_vsprintf.o)
 .comment       0x000000000000002f       0x30 c:/program files/microchip/xc8/v2.40/avr/bin/../lib/gcc/avr/5.4.0/../../../../avr/lib/avrxmega2/memx-const/mapped\libc.a(__int_vsnprintf.o)
 .comment       0x000000000000002f       0x30 c:/program files/microchip/xc8/v2.40/avr/bin/../lib/gcc/avr/5.4.0/../../../../avr/lib/avrxmega2/memx-const/mapped\libc.a(fputs.o)

.stack.descriptors.hdr
                0x0000000000000000      0x16c
 .stack.descriptors.hdr
                0x0000000000000000        0xe c:/program files/microchip/xc8/v2.40/avr/bin/../lib/gcc/avr/5.4.0/../../../../avr/lib/avrxmega2/memx-const/mapped\libm.a(addsf3.o)
 .stack.descriptors.hdr
                0x000000000000000e        0xe c:/program files/microchip/xc8/v2.40/avr/bin/../lib/gcc/avr/5.4.0/../../../../avr/lib/avrxmega2/memx-const/mapped\libm.a(addsf3x.o)
 .stack.descriptors.hdr
                0x000000000000001c        0xe c:/program files/microchip/xc8/v2.40/avr/bin/../lib/gcc/avr/5.4.0/../../../../avr/lib/avrxmega2/memx-const/mapped\libm.a(divsf3.o)
 .stack.descriptors.hdr
                0x000000000000002a        0xe c:/program files/microchip/xc8/v2.40/avr/bin/../lib/gcc/avr/5.4.0/../../../../avr/lib/avrxmega2/memx-const/mapped\libm.a(divsf3x.o)
 .stack.descriptors.hdr
                0x0000000000000038        0xe c:/program files/microchip/xc8/v2.40/avr/bin/../lib/gcc/avr/5.4.0/../../../../avr/lib/avrxmega2/memx-const/mapped\libm.a(fixsfsi.o)
 .stack.descriptors.hdr
                0x0000000000000046        0xe c:/program files/microchip/xc8/v2.40/avr/bin/../lib/gcc/avr/5.4.0/../../../../avr/lib/avrxmega2/memx-const/mapped\libm.a(fixunssfsi.o)
 .stack.descriptors.hdr
                0x0000000000000054        0xe c:/program files/microchip/xc8/v2.40/avr/bin/../lib/gcc/avr/5.4.0/../../../../avr/lib/avrxmega2/memx-const/mapped\libm.a(floatsisf.o)
 .stack.descriptors.hdr
                0x0000000000000062        0xe c:/program files/microchip/xc8/v2.40/avr/bin/../lib/gcc/avr/5.4.0/../../../../avr/lib/avrxmega2/memx-const/mapped\libm.a(fp_inf.o)
 .stack.descriptors.hdr
                0x0000000000000070        0xe c:/program files/microchip/xc8/v2.40/avr/bin/../lib/gcc/avr/5.4.0/../../../../avr/lib/avrxmega2/memx-const/mapped\libm.a(fp_nan.o)
 .stack.descriptors.hdr
                0x000000000000007e        0xe c:/program files/microchip/xc8/v2.40/avr/bin/../lib/gcc/avr/5.4.0/../../../../avr/lib/avrxmega2/memx-const/mapped\libm.a(fp_pscA.o)
 .stack.descriptors.hdr
                0x000000000000008c        0xe c:/program files/microchip/xc8/v2.40/avr/bin/../lib/gcc/avr/5.4.0/../../../../avr/lib/avrxmega2/memx-const/mapped\libm.a(fp_pscB.o)
 .stack.descriptors.hdr
                0x000000000000009a        0xe c:/program files/microchip/xc8/v2.40/avr/bin/../lib/gcc/avr/5.4.0/../../../../avr/lib/avrxmega2/memx-const/mapped\libm.a(fp_round.o)
 .stack.descriptors.hdr
                0x00000000000000a8        0xe c:/program files/microchip/xc8/v2.40/avr/bin/../lib/gcc/avr/5.4.0/../../../../avr/lib/avrxmega2/memx-const/mapped\libm.a(fp_split3.o)
 .stack.descriptors.hdr
                0x00000000000000b6        0xe c:/program files/microchip/xc8/v2.40/avr/bin/../lib/gcc/avr/5.4.0/../../../../avr/lib/avrxmega2/memx-const/mapped\libm.a(fp_zero.o)
 .stack.descriptors.hdr
                0x00000000000000c4        0xe c:/program files/microchip/xc8/v2.40/avr/bin/../lib/gcc/avr/5.4.0/../../../../avr/lib/avrxmega2/memx-const/mapped\libm.a(mulsf3.o)
 .stack.descriptors.hdr
                0x00000000000000d2        0xe c:/program files/microchip/xc8/v2.40/avr/bin/../lib/gcc/avr/5.4.0/../../../../avr/lib/avrxmega2/memx-const/mapped\libm.a(mulsf3x.o)
 .stack.descriptors.hdr
                0x00000000000000e0        0xe c:/program files/microchip/xc8/v2.40/avr/bin/../lib/gcc/avr/5.4.0/../../../../avr/lib/avrxmega2/memx-const/mapped\libm.a(cmpsf2.o)
 .stack.descriptors.hdr
                0x00000000000000ee        0xe c:/program files/microchip/xc8/v2.40/avr/bin/../lib/gcc/avr/5.4.0/../../../../avr/lib/avrxmega2/memx-const/mapped\libm.a(fp_cmp.o)
 .stack.descriptors.hdr
                0x00000000000000fc        0xe c:/program files/microchip/xc8/v2.40/avr/bin/../lib/gcc/avr/5.4.0/../../../../avr/lib/avrxmega2/memx-const/mapped\libm.a(gesf2.o)
 .stack.descriptors.hdr
                0x000000000000010a        0xe c:/program files/microchip/xc8/v2.40/avr/bin/../lib/gcc/avr/5.4.0/avrxmega2/memx-const/mapped\libgcc.a(_mulsi3.o)
 .stack.descriptors.hdr
                0x0000000000000118        0xe c:/program files/microchip/xc8/v2.40/avr/bin/../lib/gcc/avr/5.4.0/avrxmega2/memx-const/mapped\libgcc.a(_udivmodsi4.o)
 .stack.descriptors.hdr
                0x0000000000000126        0xe c:/program files/microchip/xc8/v2.40/avr/bin/../lib/gcc/avr/5.4.0/avrxmega2/memx-const/mapped\libgcc.a(_tablejump2.o)
 .stack.descriptors.hdr
                0x0000000000000134        0xe c:/program files/microchip/xc8/v2.40/avr/bin/../lib/gcc/avr/5.4.0/avrxmega2/memx-const/mapped\libgcc.a(_muluhisi3.o)
 .stack.descriptors.hdr
                0x0000000000000142        0xe c:/program files/microchip/xc8/v2.40/avr/bin/../lib/gcc/avr/5.4.0/avrxmega2/memx-const/mapped\libgcc.a(_mulshisi3.o)
 .stack.descriptors.hdr
                0x0000000000000150        0xe c:/program files/microchip/xc8/v2.40/avr/bin/../lib/gcc/avr/5.4.0/avrxmega2/memx-const/mapped\libgcc.a(_umulhisi3.o)
 .stack.descriptors.hdr
                0x000000000000015e        0xe c:/program files/microchip/xc8/v2.40/avr/bin/../lib/gcc/avr/5.4.0/avrxmega2/memx-const/mapped\libgcc.a(_exit.o)

.note.GNU-stack
                0x0000000000000000        0x0
 .note.GNU-stack
                0x0000000000000000        0x0 c:/program files/microchip/xc8/v2.40/avr/bin/../lib/gcc/avr/5.4.0/../../../../avr/lib/avrxmega2/memx-const/mapped\libm.a(addsf3.o)
 .note.GNU-stack
                0x0000000000000000        0x0 c:/program files/microchip/xc8/v2.40/avr/bin/../lib/gcc/avr/5.4.0/../../../../avr/lib/avrxmega2/memx-const/mapped\libm.a(addsf3x.o)
 .note.GNU-stack
                0x0000000000000000        0x0 c:/program files/microchip/xc8/v2.40/avr/bin/../lib/gcc/avr/5.4.0/../../../../avr/lib/avrxmega2/memx-const/mapped\libm.a(divsf3.o)
 .note.GNU-stack
                0x0000000000000000        0x0 c:/program files/microchip/xc8/v2.40/avr/bin/../lib/gcc/avr/5.4.0/../../../../avr/lib/avrxmega2/memx-const/mapped\libm.a(divsf3x.o)
 .note.GNU-stack
                0x0000000000000000        0x0 c:/program files/microchip/xc8/v2.40/avr/bin/../lib/gcc/avr/5.4.0/../../../../avr/lib/avrxmega2/memx-const/mapped\libm.a(fixsfsi.o)
 .note.GNU-stack
                0x0000000000000000        0x0 c:/program files/microchip/xc8/v2.40/avr/bin/../lib/gcc/avr/5.4.0/../../../../avr/lib/avrxmega2/memx-const/mapped\libm.a(fixunssfsi.o)
 .note.GNU-stack
                0x0000000000000000        0x0 c:/program files/microchip/xc8/v2.40/avr/bin/../lib/gcc/avr/5.4.0/../../../../avr/lib/avrxmega2/memx-const/mapped\libm.a(floatsisf.o)
 .note.GNU-stack
                0x0000000000000000        0x0 c:/program files/microchip/xc8/v2.40/avr/bin/../lib/gcc/avr/5.4.0/../../../../avr/lib/avrxmega2/memx-const/mapped\libm.a(fp_inf.o)
 .note.GNU-stack
                0x0000000000000000        0x0 c:/program files/microchip/xc8/v2.40/avr/bin/../lib/gcc/avr/5.4.0/../../../../avr/lib/avrxmega2/memx-const/mapped\libm.a(fp_nan.o)
 .note.GNU-stack
                0x0000000000000000        0x0 c:/program files/microchip/xc8/v2.40/avr/bin/../lib/gcc/avr/5.4.0/../../../../avr/lib/avrxmega2/memx-const/mapped\libm.a(fp_pscA.o)
 .note.GNU-stack
                0x0000000000000000        0x0 c:/program files/microchip/xc8/v2.40/avr/bin/../lib/gcc/avr/5.4.0/../../../../avr/lib/avrxmega2/memx-const/mapped\libm.a(fp_pscB.o)
 .note.GNU-stack
                0x0000000000000000        0x0 c:/program files/microchip/xc8/v2.40/avr/bin/../lib/gcc/avr/5.4.0/../../../../avr/lib/avrxmega2/memx-const/mapped\libm.a(fp_round.o)
 .note.GNU-stack
                0x0000000000000000        0x0 c:/program files/microchip/xc8/v2.40/avr/bin/../lib/gcc/avr/5.4.0/../../../../avr/lib/avrxmega2/memx-const/mapped\libm.a(fp_split3.o)
 .note.GNU-stack
                0x0000000000000000        0x0 c:/program files/microchip/xc8/v2.40/avr/bin/../lib/gcc/avr/5.4.0/../../../../avr/lib/avrxmega2/memx-const/mapped\libm.a(fp_zero.o)
 .note.GNU-stack
                0x0000000000000000        0x0 c:/program files/microchip/xc8/v2.40/avr/bin/../lib/gcc/avr/5.4.0/../../../../avr/lib/avrxmega2/memx-const/mapped\libm.a(mulsf3.o)
 .note.GNU-stack
                0x0000000000000000        0x0 c:/program files/microchip/xc8/v2.40/avr/bin/../lib/gcc/avr/5.4.0/../../../../avr/lib/avrxmega2/memx-const/mapped\libm.a(mulsf3x.o)
 .note.GNU-stack
                0x0000000000000000        0x0 c:/program files/microchip/xc8/v2.40/avr/bin/../lib/gcc/avr/5.4.0/../../../../avr/lib/avrxmega2/memx-const/mapped\libm.a(powf.o)
 .note.GNU-stack
                0x0000000000000000        0x0 c:/program files/microchip/xc8/v2.40/avr/bin/../lib/gcc/avr/5.4.0/../../../../avr/lib/avrxmega2/memx-const/mapped\libm.a(sqrtf.o)
 .note.GNU-stack
                0x0000000000000000        0x0 c:/program files/microchip/xc8/v2.40/avr/bin/../lib/gcc/avr/5.4.0/../../../../avr/lib/avrxmega2/memx-const/mapped\libm.a(fabsf.o)
 .note.GNU-stack
                0x0000000000000000        0x0 c:/program files/microchip/xc8/v2.40/avr/bin/../lib/gcc/avr/5.4.0/../../../../avr/lib/avrxmega2/memx-const/mapped\libm.a(scalbnf.o)
 .note.GNU-stack
                0x0000000000000000        0x0 c:/program files/microchip/xc8/v2.40/avr/bin/../lib/gcc/avr/5.4.0/../../../../avr/lib/avrxmega2/memx-const/mapped\libm.a(cmpsf2.o)
 .note.GNU-stack
                0x0000000000000000        0x0 c:/program files/microchip/xc8/v2.40/avr/bin/../lib/gcc/avr/5.4.0/../../../../avr/lib/avrxmega2/memx-const/mapped\libm.a(fp_cmp.o)
 .note.GNU-stack
                0x0000000000000000        0x0 c:/program files/microchip/xc8/v2.40/avr/bin/../lib/gcc/avr/5.4.0/../../../../avr/lib/avrxmega2/memx-const/mapped\libm.a(gesf2.o)
 .note.GNU-stack
                0x0000000000000000        0x0 c:/program files/microchip/xc8/v2.40/avr/bin/../lib/gcc/avr/5.4.0/../../../../avr/lib/avrxmega2/memx-const/mapped\libc.a(errno.o)
 .note.GNU-stack
                0x0000000000000000        0x0 c:/program files/microchip/xc8/v2.40/avr/bin/../lib/gcc/avr/5.4.0/../../../../avr/lib/avrxmega2/memx-const/mapped\libc.a(exit.o)
 .note.GNU-stack
                0x0000000000000000        0x0 c:/program files/microchip/xc8/v2.40/avr/bin/../lib/gcc/avr/5.4.0/../../../../avr/lib/avrxmega2/memx-const/mapped\libc.a(__sio_printf_dosux.o)
 .note.GNU-stack
                0x0000000000000000        0x0 c:/program files/microchip/xc8/v2.40/avr/bin/../lib/gcc/avr/5.4.0/../../../../avr/lib/avrxmega2/memx-const/mapped\libc.a(__sio_printf_doux.o)
 .note.GNU-stack
                0x0000000000000000        0x0 c:/program files/microchip/xc8/v2.40/avr/bin/../lib/gcc/avr/5.4.0/../../../../avr/lib/avrxmega2/memx-const/mapped\libc.a(__sio_printf_s.o)
 .note.GNU-stack
                0x0000000000000000        0x0 c:/program files/microchip/xc8/v2.40/avr/bin/../lib/gcc/avr/5.4.0/../../../../avr/lib/avrxmega2/memx-const/mapped\libc.a(__sio_sprintf_doux.o)
 .note.GNU-stack
                0x0000000000000000        0x0 c:/program files/microchip/xc8/v2.40/avr/bin/../lib/gcc/avr/5.4.0/../../../../avr/lib/avrxmega2/memx-const/mapped\libc.a(__fmt_d.o)
 .note.GNU-stack
                0x0000000000000000        0x0 c:/program files/microchip/xc8/v2.40/avr/bin/../lib/gcc/avr/5.4.0/../../../../avr/lib/avrxmega2/memx-const/mapped\libc.a(__fmt_o.o)
 .note.GNU-stack
                0x0000000000000000        0x0 c:/program files/microchip/xc8/v2.40/avr/bin/../lib/gcc/avr/5.4.0/../../../../avr/lib/avrxmega2/memx-const/mapped\libc.a(__fmt_s.o)
 .note.GNU-stack
                0x0000000000000000        0x0 c:/program files/microchip/xc8/v2.40/avr/bin/../lib/gcc/avr/5.4.0/../../../../avr/lib/avrxmega2/memx-const/mapped\libc.a(__fmt_u.o)
 .note.GNU-stack
                0x0000000000000000        0x0 c:/program files/microchip/xc8/v2.40/avr/bin/../lib/gcc/avr/5.4.0/../../../../avr/lib/avrxmega2/memx-const/mapped\libc.a(__fmt_x.o)
 .note.GNU-stack
                0x0000000000000000        0x0 c:/program files/microchip/xc8/v2.40/avr/bin/../lib/gcc/avr/5.4.0/../../../../avr/lib/avrxmega2/memx-const/mapped\libc.a(__pop_int.o)
 .note.GNU-stack
                0x0000000000000000        0x0 c:/program files/microchip/xc8/v2.40/avr/bin/../lib/gcc/avr/5.4.0/../../../../avr/lib/avrxmega2/memx-const/mapped\libc.a(__printf_core.o)
 .note.GNU-stack
                0x0000000000000000        0x0 c:/program files/microchip/xc8/v2.40/avr/bin/../lib/gcc/avr/5.4.0/../../../../avr/lib/avrxmega2/memx-const/mapped\libc.a(fputc.o)
 .note.GNU-stack
                0x0000000000000000        0x0 c:/program files/microchip/xc8/v2.40/avr/bin/../lib/gcc/avr/5.4.0/../../../../avr/lib/avrxmega2/memx-const/mapped\libc.a(puts.o)
 .note.GNU-stack
                0x0000000000000000        0x0 c:/program files/microchip/xc8/v2.40/avr/bin/../lib/gcc/avr/5.4.0/../../../../avr/lib/avrxmega2/memx-const/mapped\libc.a(stdout.o)
 .note.GNU-stack
                0x0000000000000000        0x0 c:/program files/microchip/xc8/v2.40/avr/bin/../lib/gcc/avr/5.4.0/../../../../avr/lib/avrxmega2/memx-const/mapped\libc.a(strlen.o)
 .note.GNU-stack
                0x0000000000000000        0x0 c:/program files/microchip/xc8/v2.40/avr/bin/../lib/gcc/avr/5.4.0/../../../../avr/lib/avrxmega2/memx-const/mapped\libc.a(tolower.o)
 .note.GNU-stack
                0x0000000000000000        0x0 c:/program files/microchip/xc8/v2.40/avr/bin/../lib/gcc/avr/5.4.0/../../../../avr/lib/avrxmega2/memx-const/mapped\libc.a(toupper.o)
 .note.GNU-stack
                0x0000000000000000        0x0 c:/program files/microchip/xc8/v2.40/avr/bin/../lib/gcc/avr/5.4.0/../../../../avr/lib/avrxmega2/memx-const/mapped\libc.a(_Exit.o)
 .note.GNU-stack
                0x0000000000000000        0x0 c:/program files/microchip/xc8/v2.40/avr/bin/../lib/gcc/avr/5.4.0/../../../../avr/lib/avrxmega2/memx-const/mapped\libc.a(__int_vfprintf.o)
 .note.GNU-stack
                0x0000000000000000        0x0 c:/program files/microchip/xc8/v2.40/avr/bin/../lib/gcc/avr/5.4.0/../../../../avr/lib/avrxmega2/memx-const/mapped\libc.a(__int_vsprintf.o)
 .note.GNU-stack
                0x0000000000000000        0x0 c:/program files/microchip/xc8/v2.40/avr/bin/../lib/gcc/avr/5.4.0/../../../../avr/lib/avrxmega2/memx-const/mapped\libc.a(__int_vsnprintf.o)
 .note.GNU-stack
                0x0000000000000000        0x0 c:/program files/microchip/xc8/v2.40/avr/bin/../lib/gcc/avr/5.4.0/../../../../avr/lib/avrxmega2/memx-const/mapped\libc.a(fputs.o)

.note.gnu.build-id
 *(.note.gnu.build-id)

.debug
 *(.debug)

.line
 *(.line)

.debug_srcinfo
 *(.debug_srcinfo)

.debug_sfnames
 *(.debug_sfnames)

.debug_aranges  0x0000000000000000      0x840
 *(.debug_aranges)
 .debug_aranges
                0x0000000000000000       0xc8 build/default/production/mcc_generated_files/adc/src/adc0.o
 .debug_aranges
                0x00000000000000c8       0x30 build/default/production/mcc_generated_files/evsys/src/evsys.o
 .debug_aranges
                0x00000000000000f8       0xe0 build/default/production/mcc_generated_files/system/src/pins.o
 .debug_aranges
                0x00000000000001d8       0x20 build/default/production/mcc_generated_files/system/src/interrupt.o
 .debug_aranges
                0x00000000000001f8       0x28 build/default/production/mcc_generated_files/system/src/system.o
 .debug_aranges
                0x0000000000000220       0x30 build/default/production/mcc_generated_files/system/src/clock.o
 .debug_aranges
                0x0000000000000250       0x18 build/default/production/mcc_generated_files/system/src/config_bits.o
 .debug_aranges
                0x0000000000000268       0x20 build/default/production/mcc_generated_files/system/src/protected_io.o
 .debug_aranges
                0x0000000000000288       0x90 build/default/production/mcc_generated_files/timer/src/tcb0.o
 .debug_aranges
                0x0000000000000318       0xb8 build/default/production/mcc_generated_files/timer/src/rtc.o
 .debug_aranges
                0x00000000000003d0       0xc0 build/default/production/mcc_generated_files/uart/src/usart0.o
 .debug_aranges
                0x0000000000000490       0x20 build/default/production/mcc_generated_files/vref/src/vref.o
 .debug_aranges
                0x00000000000004b0       0x20 build/default/production/main.o
 .debug_aranges
                0x00000000000004d0       0xa8 build/default/production/RN2xx3.o
 .debug_aranges
                0x0000000000000578       0x70 build/default/production/usart1.o
 .debug_aranges
                0x00000000000005e8       0x20 build/default/production/usart1_utilities.o
 .debug_aranges
                0x0000000000000608       0xc8 build/default/production/ringBuffer.o
 .debug_aranges
                0x00000000000006d0       0x68 build/default/production/application.o
 .debug_aranges
                0x0000000000000738       0x98 build/default/production/bme280.o
 .debug_aranges
                0x00000000000007d0       0x70 build/default/production/TWI.o

.debug_pubnames
 *(.debug_pubnames)

.debug_info     0x0000000000000000     0xf180
 *(.debug_info .gnu.linkonce.wi.*)
 .debug_info    0x0000000000000000     0x22a4 C:/Users/C70348/.mchp_packs/Microchip/AVR-Dx_DFP/2.1.152/xc8/avr/lib/avrxmega2/memx-const/mapped/crtavr64dd32.o
 .debug_info    0x00000000000022a4     0x1037 build/default/production/mcc_generated_files/adc/src/adc0.o
 .debug_info    0x00000000000032db      0x6c7 build/default/production/mcc_generated_files/evsys/src/evsys.o
 .debug_info    0x00000000000039a2      0xdbb build/default/production/mcc_generated_files/system/src/pins.o
 .debug_info    0x000000000000475d      0x408 build/default/production/mcc_generated_files/system/src/interrupt.o
 .debug_info    0x0000000000004b65      0x53e build/default/production/mcc_generated_files/system/src/system.o
 .debug_info    0x00000000000050a3      0x9ed build/default/production/mcc_generated_files/system/src/clock.o
 .debug_info    0x0000000000005a90      0x8fc build/default/production/mcc_generated_files/system/src/config_bits.o
 .debug_info    0x000000000000638c       0xa2 build/default/production/mcc_generated_files/system/src/protected_io.o
 .debug_info    0x000000000000642e      0x7e7 build/default/production/mcc_generated_files/timer/src/tcb0.o
 .debug_info    0x0000000000006c15      0x8e9 build/default/production/mcc_generated_files/timer/src/rtc.o
 .debug_info    0x00000000000074fe      0xe5c build/default/production/mcc_generated_files/uart/src/usart0.o
 .debug_info    0x000000000000835a      0x374 build/default/production/mcc_generated_files/vref/src/vref.o
 .debug_info    0x00000000000086ce      0x366 build/default/production/main.o
 .debug_info    0x0000000000008a34     0x238c build/default/production/RN2xx3.o
 .debug_info    0x000000000000adc0      0x893 build/default/production/usart1.o
 .debug_info    0x000000000000b653      0x2ec build/default/production/usart1_utilities.o
 .debug_info    0x000000000000b93f      0xd06 build/default/production/ringBuffer.o
 .debug_info    0x000000000000c645     0x1088 build/default/production/application.o
 .debug_info    0x000000000000d6cd      0xf0d build/default/production/bme280.o
 .debug_info    0x000000000000e5da      0xba6 build/default/production/TWI.o

.debug_abbrev   0x0000000000000000     0x3ce3
 *(.debug_abbrev)
 .debug_abbrev  0x0000000000000000     0x20ce C:/Users/C70348/.mchp_packs/Microchip/AVR-Dx_DFP/2.1.152/xc8/avr/lib/avrxmega2/memx-const/mapped/crtavr64dd32.o
 .debug_abbrev  0x00000000000020ce      0x25d build/default/production/mcc_generated_files/adc/src/adc0.o
 .debug_abbrev  0x000000000000232b       0xcd build/default/production/mcc_generated_files/evsys/src/evsys.o
 .debug_abbrev  0x00000000000023f8      0x162 build/default/production/mcc_generated_files/system/src/pins.o
 .debug_abbrev  0x000000000000255a       0xfa build/default/production/mcc_generated_files/system/src/interrupt.o
 .debug_abbrev  0x0000000000002654      0x130 build/default/production/mcc_generated_files/system/src/system.o
 .debug_abbrev  0x0000000000002784      0x14d build/default/production/mcc_generated_files/system/src/clock.o
 .debug_abbrev  0x00000000000028d1       0x97 build/default/production/mcc_generated_files/system/src/config_bits.o
 .debug_abbrev  0x0000000000002968       0x14 build/default/production/mcc_generated_files/system/src/protected_io.o
 .debug_abbrev  0x000000000000297c      0x19d build/default/production/mcc_generated_files/timer/src/tcb0.o
 .debug_abbrev  0x0000000000002b19      0x14c build/default/production/mcc_generated_files/timer/src/rtc.o
 .debug_abbrev  0x0000000000002c65      0x2c2 build/default/production/mcc_generated_files/uart/src/usart0.o
 .debug_abbrev  0x0000000000002f27       0x8c build/default/production/mcc_generated_files/vref/src/vref.o
 .debug_abbrev  0x0000000000002fb3       0x5d build/default/production/main.o
 .debug_abbrev  0x0000000000003010      0x2bb build/default/production/RN2xx3.o
 .debug_abbrev  0x00000000000032cb      0x1a5 build/default/production/usart1.o
 .debug_abbrev  0x0000000000003470       0x93 build/default/production/usart1_utilities.o
 .debug_abbrev  0x0000000000003503      0x238 build/default/production/ringBuffer.o
 .debug_abbrev  0x000000000000373b      0x1ea build/default/production/application.o
 .debug_abbrev  0x0000000000003925      0x22d build/default/production/bme280.o
 .debug_abbrev  0x0000000000003b52      0x191 build/default/production/TWI.o

.debug_line     0x0000000000000000     0x40c7
 *(.debug_line .debug_line.* .debug_line_end)
 .debug_line    0x0000000000000000      0x19e C:/Users/C70348/.mchp_packs/Microchip/AVR-Dx_DFP/2.1.152/xc8/avr/lib/avrxmega2/memx-const/mapped/crtavr64dd32.o
 .debug_line    0x000000000000019e      0x3f4 build/default/production/mcc_generated_files/adc/src/adc0.o
 .debug_line    0x0000000000000592      0x1e7 build/default/production/mcc_generated_files/evsys/src/evsys.o
 .debug_line    0x0000000000000779      0x4de build/default/production/mcc_generated_files/system/src/pins.o
 .debug_line    0x0000000000000c57      0x189 build/default/production/mcc_generated_files/system/src/interrupt.o
 .debug_line    0x0000000000000de0      0x309 build/default/production/mcc_generated_files/system/src/system.o
 .debug_line    0x00000000000010e9      0x1bd build/default/production/mcc_generated_files/system/src/clock.o
 .debug_line    0x00000000000012a6       0xf0 build/default/production/mcc_generated_files/system/src/config_bits.o
 .debug_line    0x0000000000001396       0x6d build/default/production/mcc_generated_files/system/src/protected_io.o
 .debug_line    0x0000000000001403      0x2fc build/default/production/mcc_generated_files/timer/src/tcb0.o
 .debug_line    0x00000000000016ff      0x394 build/default/production/mcc_generated_files/timer/src/rtc.o
 .debug_line    0x0000000000001a93      0x442 build/default/production/mcc_generated_files/uart/src/usart0.o
 .debug_line    0x0000000000001ed5      0x10f build/default/production/mcc_generated_files/vref/src/vref.o
 .debug_line    0x0000000000001fe4       0xf8 build/default/production/main.o
 .debug_line    0x00000000000020dc      0x8d7 build/default/production/RN2xx3.o
 .debug_line    0x00000000000029b3      0x21d build/default/production/usart1.o
 .debug_line    0x0000000000002bd0       0xbc build/default/production/usart1_utilities.o
 .debug_line    0x0000000000002c8c      0x689 build/default/production/ringBuffer.o
 .debug_line    0x0000000000003315      0x553 build/default/production/application.o
 .debug_line    0x0000000000003868      0x498 build/default/production/bme280.o
 .debug_line    0x0000000000003d00      0x3c7 build/default/production/TWI.o

.debug_frame    0x0000000000000000     0x14d0
 *(.debug_frame)
 .debug_frame   0x0000000000000000      0x204 build/default/production/mcc_generated_files/adc/src/adc0.o
 .debug_frame   0x0000000000000204       0x44 build/default/production/mcc_generated_files/evsys/src/evsys.o
 .debug_frame   0x0000000000000248      0x2d0 build/default/production/mcc_generated_files/system/src/pins.o
 .debug_frame   0x0000000000000518       0x24 build/default/production/mcc_generated_files/system/src/interrupt.o
 .debug_frame   0x000000000000053c       0x34 build/default/production/mcc_generated_files/system/src/system.o
 .debug_frame   0x0000000000000570       0x44 build/default/production/mcc_generated_files/system/src/clock.o
 .debug_frame   0x00000000000005b4      0x14c build/default/production/mcc_generated_files/timer/src/tcb0.o
 .debug_frame   0x0000000000000700      0x1e4 build/default/production/mcc_generated_files/timer/src/rtc.o
 .debug_frame   0x00000000000008e4      0x16c build/default/production/mcc_generated_files/uart/src/usart0.o
 .debug_frame   0x0000000000000a50       0x24 build/default/production/mcc_generated_files/vref/src/vref.o
 .debug_frame   0x0000000000000a74       0x24 build/default/production/main.o
 .debug_frame   0x0000000000000a98      0x1e4 build/default/production/RN2xx3.o
 .debug_frame   0x0000000000000c7c      0x114 build/default/production/usart1.o
 .debug_frame   0x0000000000000d90       0x48 build/default/production/usart1_utilities.o
 .debug_frame   0x0000000000000dd8      0x248 build/default/production/ringBuffer.o
 .debug_frame   0x0000000000001020      0x13c build/default/production/application.o
 .debug_frame   0x000000000000115c      0x248 build/default/production/bme280.o
 .debug_frame   0x00000000000013a4      0x12c build/default/production/TWI.o

.debug_str      0x0000000000000000     0x13cd
 *(.debug_str)
 .debug_str     0x0000000000000000      0xefb C:/Users/C70348/.mchp_packs/Microchip/AVR-Dx_DFP/2.1.152/xc8/avr/lib/avrxmega2/memx-const/mapped/crtavr64dd32.o
 .debug_str     0x0000000000000efb       0x11 build/default/production/mcc_generated_files/adc/src/adc0.o
 .debug_str     0x0000000000000f0c        0x0 build/default/production/mcc_generated_files/evsys/src/evsys.o
 .debug_str     0x0000000000000f0c       0x30 build/default/production/mcc_generated_files/system/src/pins.o
 .debug_str     0x0000000000000f3c       0x13 build/default/production/mcc_generated_files/system/src/interrupt.o
 .debug_str     0x0000000000000f4f       0xaf build/default/production/mcc_generated_files/system/src/system.o
 .debug_str     0x0000000000000ffe       0x13 build/default/production/mcc_generated_files/system/src/clock.o
 .debug_str     0x0000000000001011        0x0 build/default/production/mcc_generated_files/system/src/config_bits.o
 .debug_str     0x0000000000001011        0x0 build/default/production/mcc_generated_files/timer/src/tcb0.o
 .debug_str     0x0000000000001011        0x9 build/default/production/mcc_generated_files/timer/src/rtc.o
 .debug_str     0x000000000000101a       0x10 build/default/production/mcc_generated_files/uart/src/usart0.o
 .debug_str     0x000000000000102a        0x0 build/default/production/mcc_generated_files/vref/src/vref.o
 .debug_str     0x000000000000102a       0xa0 build/default/production/main.o
 .debug_str     0x00000000000010ca      0x14f build/default/production/RN2xx3.o
 .debug_str     0x0000000000001219        0x0 build/default/production/usart1.o
 .debug_str     0x0000000000001219       0x23 build/default/production/usart1_utilities.o
 .debug_str     0x000000000000123c       0x32 build/default/production/ringBuffer.o
 .debug_str     0x000000000000126e      0x11d build/default/production/application.o
 .debug_str     0x000000000000138b       0x2d build/default/production/bme280.o
 .debug_str     0x00000000000013b8       0x15 build/default/production/TWI.o

.debug_loc      0x0000000000000000     0x27e7
 *(.debug_loc)
 .debug_loc     0x0000000000000000      0x147 build/default/production/mcc_generated_files/adc/src/adc0.o
 .debug_loc     0x0000000000000147       0x2a build/default/production/mcc_generated_files/system/src/interrupt.o
 .debug_loc     0x0000000000000171       0x52 build/default/production/mcc_generated_files/system/src/system.o
 .debug_loc     0x00000000000001c3      0x264 build/default/production/mcc_generated_files/system/src/clock.o
 .debug_loc     0x0000000000000427       0x64 build/default/production/mcc_generated_files/uart/src/usart0.o
 .debug_loc     0x000000000000048b      0x807 build/default/production/RN2xx3.o
 .debug_loc     0x0000000000000c92       0x3f build/default/production/usart1.o
 .debug_loc     0x0000000000000cd1       0x60 build/default/production/usart1_utilities.o
 .debug_loc     0x0000000000000d31      0xc9b build/default/production/ringBuffer.o
 .debug_loc     0x00000000000019cc      0x192 build/default/production/application.o
 .debug_loc     0x0000000000001b5e      0x7f3 build/default/production/bme280.o
 .debug_loc     0x0000000000002351      0x496 build/default/production/TWI.o

.debug_macinfo
 *(.debug_macinfo)

.debug_weaknames
 *(.debug_weaknames)

.debug_funcnames
 *(.debug_funcnames)

.debug_typenames
 *(.debug_typenames)

.debug_varnames
 *(.debug_varnames)

.debug_pubtypes
 *(.debug_pubtypes)

.debug_ranges   0x0000000000000000      0x6e8
 *(.debug_ranges)
 .debug_ranges  0x0000000000000000       0xb8 build/default/production/mcc_generated_files/adc/src/adc0.o
 .debug_ranges  0x00000000000000b8       0x20 build/default/production/mcc_generated_files/evsys/src/evsys.o
 .debug_ranges  0x00000000000000d8       0xd0 build/default/production/mcc_generated_files/system/src/pins.o
 .debug_ranges  0x00000000000001a8       0x10 build/default/production/mcc_generated_files/system/src/interrupt.o
 .debug_ranges  0x00000000000001b8       0x18 build/default/production/mcc_generated_files/system/src/system.o
 .debug_ranges  0x00000000000001d0       0x20 build/default/production/mcc_generated_files/system/src/clock.o
 .debug_ranges  0x00000000000001f0       0x80 build/default/production/mcc_generated_files/timer/src/tcb0.o
 .debug_ranges  0x0000000000000270       0xa8 build/default/production/mcc_generated_files/timer/src/rtc.o
 .debug_ranges  0x0000000000000318       0xb0 build/default/production/mcc_generated_files/uart/src/usart0.o
 .debug_ranges  0x00000000000003c8       0x10 build/default/production/mcc_generated_files/vref/src/vref.o
 .debug_ranges  0x00000000000003d8       0x10 build/default/production/main.o
 .debug_ranges  0x00000000000003e8       0x98 build/default/production/RN2xx3.o
 .debug_ranges  0x0000000000000480       0x60 build/default/production/usart1.o
 .debug_ranges  0x00000000000004e0       0x10 build/default/production/usart1_utilities.o
 .debug_ranges  0x00000000000004f0       0xb8 build/default/production/ringBuffer.o
 .debug_ranges  0x00000000000005a8       0x58 build/default/production/application.o
 .debug_ranges  0x0000000000000600       0x88 build/default/production/bme280.o
 .debug_ranges  0x0000000000000688       0x60 build/default/production/TWI.o

.debug_macro
 *(.debug_macro)
OUTPUT(dist/default/production/agri-iot-hackster.X.production.elf elf32-avr)
LOAD linker stubs
LOAD data_init

.note.gnu.avr.deviceinfo
                0x0000000000000000       0x3c
 .note.gnu.avr.deviceinfo
                0x0000000000000000       0x3c C:/Users/C70348/.mchp_packs/Microchip/AVR-Dx_DFP/2.1.152/xc8/avr/lib/avrxmega2/memx-const/mapped/crtavr64dd32.o

.bss.ADC0_resrdy_cb
                0x00000000008062ae        0x2
 .bss.ADC0_resrdy_cb
                0x00000000008062ae        0x2 build/default/production/mcc_generated_files/adc/src/adc0.o
                0x00000000008062ae                ADC0_resrdy_cb

.bss.ADC0_window_cb
                0x00000000008062b0        0x2
 .bss.ADC0_window_cb
                0x00000000008062b0        0x2 build/default/production/mcc_generated_files/adc/src/adc0.o
                0x00000000008062b0                ADC0_window_cb

.bss.PF5_InterruptHandler
                0x00000000008062b2        0x2
 .bss.PF5_InterruptHandler
                0x00000000008062b2        0x2 build/default/production/mcc_generated_files/system/src/pins.o

.bss.PD1_InterruptHandler
                0x00000000008062b4        0x2
 .bss.PD1_InterruptHandler
                0x00000000008062b4        0x2 build/default/production/mcc_generated_files/system/src/pins.o

.bss.PC2_InterruptHandler
                0x00000000008062b6        0x2
 .bss.PC2_InterruptHandler
                0x00000000008062b6        0x2 build/default/production/mcc_generated_files/system/src/pins.o

.bss.PC0_InterruptHandler
                0x00000000008062b8        0x2
 .bss.PC0_InterruptHandler
                0x00000000008062b8        0x2 build/default/production/mcc_generated_files/system/src/pins.o

.bss.PA1_InterruptHandler
                0x00000000008062ba        0x2
 .bss.PA1_InterruptHandler
                0x00000000008062ba        0x2 build/default/production/mcc_generated_files/system/src/pins.o

.bss.PA0_InterruptHandler
                0x00000000008062bc        0x2
 .bss.PA0_InterruptHandler
                0x00000000008062bc        0x2 build/default/production/mcc_generated_files/system/src/pins.o

.bss.PF6_InterruptHandler
                0x00000000008062be        0x2
 .bss.PF6_InterruptHandler
                0x00000000008062be        0x2 build/default/production/mcc_generated_files/system/src/pins.o

.bss.PC1_InterruptHandler
                0x00000000008062c0        0x2
 .bss.PC1_InterruptHandler
                0x00000000008062c0        0x2 build/default/production/mcc_generated_files/system/src/pins.o

.bss.PD4_InterruptHandler
                0x00000000008062c2        0x2
 .bss.PD4_InterruptHandler
                0x00000000008062c2        0x2 build/default/production/mcc_generated_files/system/src/pins.o

.bss.PD5_InterruptHandler
                0x00000000008062c4        0x2
 .bss.PD5_InterruptHandler
                0x00000000008062c4        0x2 build/default/production/mcc_generated_files/system/src/pins.o

.bss.TCB0_CAPT_isr_cb
                0x00000000008062c6        0x2
 .bss.TCB0_CAPT_isr_cb
                0x00000000008062c6        0x2 build/default/production/mcc_generated_files/timer/src/tcb0.o
                0x00000000008062c6                TCB0_CAPT_isr_cb

.bss.RTC_PIT_isr_cb
                0x00000000008062c8        0x2
 .bss.RTC_PIT_isr_cb
                0x00000000008062c8        0x2 build/default/production/mcc_generated_files/timer/src/rtc.o
                0x00000000008062c8                RTC_PIT_isr_cb

.bss.RTC_CMP_isr_cb
                0x00000000008062ca        0x2
 .bss.RTC_CMP_isr_cb
                0x00000000008062ca        0x2 build/default/production/mcc_generated_files/timer/src/rtc.o
                0x00000000008062ca                RTC_CMP_isr_cb

.bss.RTC_OVF_isr_cb
                0x00000000008062cc        0x2
 .bss.RTC_OVF_isr_cb
                0x00000000008062cc        0x2 build/default/production/mcc_generated_files/timer/src/rtc.o
                0x00000000008062cc                RTC_OVF_isr_cb

.bss.USART0_ParityErrorHandler
                0x00000000008062ce        0x2
 .bss.USART0_ParityErrorHandler
                0x00000000008062ce        0x2 build/default/production/mcc_generated_files/uart/src/usart0.o
                0x00000000008062ce                USART0_ParityErrorHandler

.bss.USART0_OverrunErrorHandler
                0x00000000008062d0        0x2
 .bss.USART0_OverrunErrorHandler
                0x00000000008062d0        0x2 build/default/production/mcc_generated_files/uart/src/usart0.o
                0x00000000008062d0                USART0_OverrunErrorHandler

.bss.USART0_FramingErrorHandler
                0x00000000008062d2        0x2
 .bss.USART0_FramingErrorHandler
                0x00000000008062d2        0x2 build/default/production/mcc_generated_files/uart/src/usart0.o
                0x00000000008062d2                USART0_FramingErrorHandler

.bss.usart0RxLastError
                0x00000000008062d4        0x2
 .bss.usart0RxLastError
                0x00000000008062d4        0x2 build/default/production/mcc_generated_files/uart/src/usart0.o

.bss.hweui      0x0000000000806237       0x11
 .bss.hweui     0x0000000000806237       0x11 build/default/production/RN2xx3.o

.bss.modType    0x00000000008062de        0x1
 .bss.modType   0x00000000008062de        0x1 build/default/production/RN2xx3.o
                0x00000000008062de                modType

.bss.rxBuffer   0x0000000000806288        0x5
 .bss.rxBuffer  0x0000000000806288        0x5 build/default/production/RN2xx3.o

.bss.txBuffer   0x000000000080628d        0x5
 .bss.txBuffer  0x000000000080628d        0x5 build/default/production/RN2xx3.o

.bss.rcvBuffer  0x0000000000806002       0xff
 .bss.rcvBuffer
                0x0000000000806002       0xff build/default/production/RN2xx3.o

.bss.cmdBuffer  0x0000000000806101       0xff
 .bss.cmdBuffer
                0x0000000000806101       0xff build/default/production/RN2xx3.o

.bss.isRXBusy   0x00000000008062df        0x1
 .bss.isRXBusy  0x00000000008062df        0x1 build/default/production/usart1.o

.bss.rxHandler  0x00000000008062d6        0x2
 .bss.rxHandler
                0x00000000008062d6        0x2 build/default/production/usart1.o

.bss.numTx      0x0000000000806292        0x4
 .bss.numTx     0x0000000000806292        0x4 build/default/production/application.o

.bss.event_flags
                0x00000000008062d8        0x2
 .bss.event_flags
                0x00000000008062d8        0x2 build/default/production/application.o

.bss.data       0x0000000000806296        0x4
 .bss.data      0x0000000000806296        0x4 build/default/production/application.o

.bss.payload    0x0000000000806258        0xb
 .bss.payload   0x0000000000806258        0xb build/default/production/application.o
                0x0000000000806258                payload

.bss.secs       0x000000000080629a        0x4
 .bss.secs      0x000000000080629a        0x4 build/default/production/application.o
                0x000000000080629a                secs

.bss.t_fine     0x000000000080629e        0x4
 .bss.t_fine    0x000000000080629e        0x4 build/default/production/bme280.o
                0x000000000080629e                t_fine

.bss.adc_P      0x00000000008062a2        0x4
 .bss.adc_P     0x00000000008062a2        0x4 build/default/production/bme280.o
                0x00000000008062a2                adc_P

.bss.adc_H      0x00000000008062a6        0x4
 .bss.adc_H     0x00000000008062a6        0x4 build/default/production/bme280.o
                0x00000000008062a6                adc_H

.bss.adc_T      0x00000000008062aa        0x4
 .bss.adc_T     0x00000000008062aa        0x4 build/default/production/bme280.o
                0x00000000008062aa                adc_T

.bss.calibParam
                0x0000000000806200       0x21
 .bss.calibParam
                0x0000000000806200       0x21 build/default/production/bme280.o
                0x0000000000806200                calibParam

.bss.bme280_ctrl_meas
                0x00000000008062e1        0x1
 .bss.bme280_ctrl_meas
                0x00000000008062e1        0x1 build/default/production/bme280.o
                0x00000000008062e1                bme280_ctrl_meas

.bss.bme280_ctrl_hum
                0x00000000008062e2        0x1
 .bss.bme280_ctrl_hum
                0x00000000008062e2        0x1 build/default/production/bme280.o
                0x00000000008062e2                bme280_ctrl_hum

.bss.bme280_config
                0x00000000008062e3        0x1
 .bss.bme280_config
                0x00000000008062e3        0x1 build/default/production/bme280.o
                0x00000000008062e3                bme280_config

.bss.__stdout   0x00000000008062dc        0x2
 .bss.__stdout  0x00000000008062dc        0x2 c:/program files/microchip/xc8/v2.40/avr/bin/../lib/gcc/avr/5.4.0/../../../../avr/lib/avrxmega2/memx-const/mapped\libc.a(stdout.o)

.rodata         0x000000000080814c      0xc81 load address 0x000000000000014c
 .rodata        0x000000000080814c      0xc81 build/default/production/RN2xx3.o

.rodata         0x0000000000808dcd      0x2b8 load address 0x0000000000000dcd
 .rodata        0x0000000000808dcd      0x2b8 build/default/production/application.o

.rodata         0x0000000000809085       0x2b load address 0x0000000000001085
 .rodata        0x0000000000809085       0x2b build/default/production/bme280.o

.text.powf      0x00000000000010b0      0xcf6
 .text.powf     0x00000000000010b0      0xcf6 c:/program files/microchip/xc8/v2.40/avr/bin/../lib/gcc/avr/5.4.0/../../../../avr/lib/avrxmega2/memx-const/mapped\libm.a(powf.o)
                0x00000000000010b0                pow
                0x00000000000010b0                powl
                0x00000000000010b0                powf

.text.vfpfcnvrt
                0x0000000000001da6      0x3fc
 .text.vfpfcnvrt
                0x0000000000001da6      0x3fc c:/program files/microchip/xc8/v2.40/avr/bin/../lib/gcc/avr/5.4.0/../../../../avr/lib/avrxmega2/memx-const/mapped\libc.a(__printf_core.o)
                0x0000000000001da6                vfpfcnvrt

.text.BME280_compensatePressure
                0x00000000000021a2      0x2b0
 .text.BME280_compensatePressure
                0x00000000000021a2      0x2b0 build/default/production/bme280.o
                0x00000000000021a2                BME280_compensatePressure

.text.stateMachine
                0x0000000000002452      0x2a4
 .text.stateMachine
                0x0000000000002452      0x2a4 build/default/production/application.o
                0x0000000000002452                stateMachine

.text.sqrtf     0x00000000000026f6      0x22a
 .text.sqrtf    0x00000000000026f6      0x22a c:/program files/microchip/xc8/v2.40/avr/bin/../lib/gcc/avr/5.4.0/../../../../avr/lib/avrxmega2/memx-const/mapped\libm.a(sqrtf.o)
                0x00000000000026f6                sqrtl
                0x00000000000026f6                sqrtf
                0x00000000000026f6                sqrt

.text.BME280_compensateHumidity
                0x0000000000002920      0x1f8
 .text.BME280_compensateHumidity
                0x0000000000002920      0x1f8 build/default/production/bme280.o
                0x0000000000002920                BME280_compensateHumidity

.text.__fmt_x   0x0000000000002b18      0x1dc
 .text.__fmt_x  0x0000000000002b18      0x1dc c:/program files/microchip/xc8/v2.40/avr/bin/../lib/gcc/avr/5.4.0/../../../../avr/lib/avrxmega2/memx-const/mapped\libc.a(__fmt_x.o)
                0x0000000000002b18                __fmt_x_needed
                0x0000000000002b18                __fmt_x

.text.RN2xx3_tx_cnf
                0x0000000000002cf4      0x1d0
 .text.RN2xx3_tx_cnf
                0x0000000000002cf4      0x1d0 build/default/production/RN2xx3.o
                0x0000000000002cf4                RN2xx3_tx_cnf

.text.RN2xx3_tx_uncnf
                0x0000000000002ec4      0x1ae
 .text.RN2xx3_tx_uncnf
                0x0000000000002ec4      0x1ae build/default/production/RN2xx3.o
                0x0000000000002ec4                RN2xx3_tx_uncnf

.text.RN2xx3_set_freq_plan
                0x0000000000003072      0x1a4
 .text.RN2xx3_set_freq_plan
                0x0000000000003072      0x1a4 build/default/production/RN2xx3.o
                0x0000000000003072                RN2xx3_set_freq_plan

.text.BME280_readFactoryCalibrationParams
                0x0000000000003216      0x180
 .text.BME280_readFactoryCalibrationParams
                0x0000000000003216      0x180 build/default/production/bme280.o
                0x0000000000003216                BME280_readFactoryCalibrationParams

.text.PIN_MANAGER_Initialize
                0x0000000000003396      0x132
 .text.PIN_MANAGER_Initialize
                0x0000000000003396      0x132 build/default/production/mcc_generated_files/system/src/pins.o
                0x0000000000003396                PIN_MANAGER_Initialize

.text.formatPayload
                0x00000000000034c8      0x12a
 .text.formatPayload
                0x00000000000034c8      0x12a build/default/production/application.o
                0x00000000000034c8                formatPayload

.text.BME280_compensateTemperature
                0x00000000000035f2      0x128
 .text.BME280_compensateTemperature
                0x00000000000035f2      0x128 build/default/production/bme280.o
                0x00000000000035f2                BME280_compensateTemperature

.text.RN2xx3_join_OTAA
                0x000000000000371a      0x120
 .text.RN2xx3_join_OTAA
                0x000000000000371a      0x120 build/default/production/RN2xx3.o
                0x000000000000371a                RN2xx3_join_OTAA

.text.BME280_readMeasurements
                0x000000000000383a      0x11e
 .text.BME280_readMeasurements
                0x000000000000383a      0x11e build/default/production/bme280.o
                0x000000000000383a                BME280_readMeasurements

.text.__fmt_d   0x0000000000003958       0xe4
 .text.__fmt_d  0x0000000000003958       0xe4 c:/program files/microchip/xc8/v2.40/avr/bin/../lib/gcc/avr/5.4.0/../../../../avr/lib/avrxmega2/memx-const/mapped\libc.a(__fmt_d.o)
                0x0000000000003958                __fmt_d
                0x0000000000003958                __fmt_d_needed

.text.printSensorData
                0x0000000000003a3c       0xe2
 .text.printSensorData
                0x0000000000003a3c       0xe2 build/default/production/application.o
                0x0000000000003a3c                printSensorData

.text           0x0000000000003b1e       0xde
 .text          0x0000000000003b1e       0xde c:/program files/microchip/xc8/v2.40/avr/bin/../lib/gcc/avr/5.4.0/../../../../avr/lib/avrxmega2/memx-const/mapped\libm.a(divsf3x.o)
                0x0000000000003b1e                __divsf3x
                0x0000000000003b46                __divsf3_pse

.text.RN2xx3_init
                0x0000000000003bfc       0xd4
 .text.RN2xx3_init
                0x0000000000003bfc       0xd4 build/default/production/RN2xx3.o
                0x0000000000003bfc                RN2xx3_init

.text           0x0000000000003cd0       0xd4
 .text          0x0000000000003cd0       0xd4 c:/program files/microchip/xc8/v2.40/avr/bin/../lib/gcc/avr/5.4.0/../../../../avr/lib/avrxmega2/memx-const/mapped\libm.a(mulsf3x.o)
                0x0000000000003cd0                __mulsf3x
                0x0000000000003cf6                __mulsf3_pse

.text.__pop_int
                0x0000000000003da4       0xd0
 .text.__pop_int
                0x0000000000003da4       0xd0 c:/program files/microchip/xc8/v2.40/avr/bin/../lib/gcc/avr/5.4.0/../../../../avr/lib/avrxmega2/memx-const/mapped\libc.a(__pop_int.o)
                0x0000000000003da4                __pop_int_needed
                0x0000000000003da4                __pop_int

.text           0x0000000000003e74       0xce
 .text          0x0000000000003e74       0xce c:/program files/microchip/xc8/v2.40/avr/bin/../lib/gcc/avr/5.4.0/../../../../avr/lib/avrxmega2/memx-const/mapped\libm.a(addsf3x.o)
                0x0000000000003e74                __addsf3x

.text.__cvt_u   0x0000000000003f42       0xca
 .text.__cvt_u  0x0000000000003f42       0xca c:/program files/microchip/xc8/v2.40/avr/bin/../lib/gcc/avr/5.4.0/../../../../avr/lib/avrxmega2/memx-const/mapped\libc.a(__fmt_u.o)
                0x0000000000003f42                __cvt_u

.text.scalbnf   0x000000000000400c       0xb2
 .text.scalbnf  0x000000000000400c       0xb2 c:/program files/microchip/xc8/v2.40/avr/bin/../lib/gcc/avr/5.4.0/../../../../avr/lib/avrxmega2/memx-const/mapped\libm.a(scalbnf.o)
                0x000000000000400c                scalbnf

.text.__fmt_o   0x00000000000040be       0xb2
 .text.__fmt_o  0x00000000000040be       0xb2 c:/program files/microchip/xc8/v2.40/avr/bin/../lib/gcc/avr/5.4.0/../../../../avr/lib/avrxmega2/memx-const/mapped\libc.a(__fmt_o.o)
                0x00000000000040be                __fmt_o
                0x00000000000040be                __fmt_o_needed

.text.CLOCK_Initialize
                0x0000000000004170       0x9c
 .text.CLOCK_Initialize
                0x0000000000004170       0x9c build/default/production/mcc_generated_files/system/src/clock.o
                0x0000000000004170                CLOCK_Initialize

.text.ringBuffer_copyBuffer
                0x000000000000420c       0x92
 .text.ringBuffer_copyBuffer
                0x000000000000420c       0x92 build/default/production/ringBuffer.o
                0x000000000000420c                ringBuffer_copyBuffer

.text.BME280_getPressure
                0x000000000000429e       0x92
 .text.BME280_getPressure
                0x000000000000429e       0x92 build/default/production/bme280.o
                0x000000000000429e                BME280_getPressure

.text.fputc     0x0000000000004330       0x92
 .text.fputc    0x0000000000004330       0x92 c:/program files/microchip/xc8/v2.40/avr/bin/../lib/gcc/avr/5.4.0/../../../../avr/lib/avrxmega2/memx-const/mapped\libc.a(fputc.o)
                0x0000000000004330                fputc
                0x0000000000004330                putc

.text.TWI_sendAndReadBytes
                0x00000000000043c2       0x90
 .text.TWI_sendAndReadBytes
                0x00000000000043c2       0x90 build/default/production/TWI.o
                0x00000000000043c2                TWI_sendAndReadBytes

.text.__fmt_u   0x0000000000004452       0x8e
 .text.__fmt_u  0x0000000000004452       0x8e c:/program files/microchip/xc8/v2.40/avr/bin/../lib/gcc/avr/5.4.0/../../../../avr/lib/avrxmega2/memx-const/mapped\libc.a(__fmt_u.o)
                0x0000000000004452                __fmt_u_needed
                0x0000000000004452                __fmt_u

.text.RN2xx3_join_ABP
                0x00000000000044e0       0x88
 .text.RN2xx3_join_ABP
                0x00000000000044e0       0x88 build/default/production/RN2xx3.o
                0x00000000000044e0                RN2xx3_join_ABP

.text.RN2xx3_config_OTAA
                0x0000000000004568       0x86
 .text.RN2xx3_config_OTAA
                0x0000000000004568       0x86 build/default/production/RN2xx3.o
                0x0000000000004568                RN2xx3_config_OTAA

.text           0x00000000000045ee       0x7a
 .text          0x00000000000045ee       0x7a c:/program files/microchip/xc8/v2.40/avr/bin/../lib/gcc/avr/5.4.0/../../../../avr/lib/avrxmega2/memx-const/mapped\libm.a(floatsisf.o)
                0x00000000000045ee                __floatunsisf
                0x00000000000045f2                __floatsisf

.text.ringBuffer_advanceToString
                0x0000000000004668       0x78
 .text.ringBuffer_advanceToString
                0x0000000000004668       0x78 build/default/production/ringBuffer.o
                0x0000000000004668                ringBuffer_advanceToString

.text.__printf_core
                0x00000000000046e0       0x78
 .text.__printf_core
                0x00000000000046e0       0x78 c:/program files/microchip/xc8/v2.40/avr/bin/../lib/gcc/avr/5.4.0/../../../../avr/lib/avrxmega2/memx-const/mapped\libc.a(__printf_core.o)
                0x00000000000046e0                __printf_core

.text.__vector_5
                0x0000000000004758       0x76
 .text.__vector_5
                0x0000000000004758       0x76 build/default/production/mcc_generated_files/timer/src/rtc.o
                0x0000000000004758                __vector_5

.text.__vsnprintf
                0x00000000000047ce       0x74
 .text.__vsnprintf
                0x00000000000047ce       0x74 c:/program files/microchip/xc8/v2.40/avr/bin/../lib/gcc/avr/5.4.0/../../../../avr/lib/avrxmega2/memx-const/mapped\libc.a(__int_vsnprintf.o)
                0x00000000000047ce                __vsnprintf

.text.__vector_29
                0x0000000000004842       0x72
 .text.__vector_29
                0x0000000000004842       0x72 build/default/production/mcc_generated_files/system/src/pins.o
                0x0000000000004842                __vector_29

.text.__vector_24
                0x00000000000048b4       0x72
 .text.__vector_24
                0x00000000000048b4       0x72 build/default/production/mcc_generated_files/system/src/pins.o
                0x00000000000048b4                __vector_24

.text.__pad     0x0000000000004926       0x72
 .text.__pad    0x0000000000004926       0x72 c:/program files/microchip/xc8/v2.40/avr/bin/../lib/gcc/avr/5.4.0/../../../../avr/lib/avrxmega2/memx-const/mapped\libc.a(__printf_core.o)
                0x0000000000004926                __pad

.text.ringBuffer_loadCharacters
                0x0000000000004998       0x68
 .text.ringBuffer_loadCharacters
                0x0000000000004998       0x68 build/default/production/ringBuffer.o
                0x0000000000004998                ringBuffer_loadCharacters

.text.__vector_8
                0x0000000000004a00       0x64
 .text.__vector_8
                0x0000000000004a00       0x64 build/default/production/mcc_generated_files/system/src/pins.o
                0x0000000000004a00                __vector_8

.text.__vector_34
                0x0000000000004a64       0x64
 .text.__vector_34
                0x0000000000004a64       0x64 build/default/production/mcc_generated_files/system/src/pins.o
                0x0000000000004a64                __vector_34

.text.RN2xx3_mac_reset
                0x0000000000004ac8       0x64
 .text.RN2xx3_mac_reset
                0x0000000000004ac8       0x64 build/default/production/RN2xx3.o
                0x0000000000004ac8                RN2xx3_mac_reset

.text.BME280_initializeSensor
                0x0000000000004b2c       0x62
 .text.BME280_initializeSensor
                0x0000000000004b2c       0x62 build/default/production/bme280.o
                0x0000000000004b2c                BME280_initializeSensor

.text.__vector_14
                0x0000000000004b8e       0x60
 .text.__vector_14
                0x0000000000004b8e       0x60 build/default/production/mcc_generated_files/timer/src/tcb0.o
                0x0000000000004b8e                __vector_14

.text.ringBuffer_find
                0x0000000000004bee       0x60
 .text.ringBuffer_find
                0x0000000000004bee       0x60 build/default/production/ringBuffer.o
                0x0000000000004bee                ringBuffer_find

.text.RN2xx3_getHWEUI
                0x0000000000004c4e       0x5e
 .text.RN2xx3_getHWEUI
                0x0000000000004c4e       0x5e build/default/production/RN2xx3.o
                0x0000000000004c4e                RN2xx3_getHWEUI

.text           0x0000000000004cac       0x5e
 .text          0x0000000000004cac       0x5e c:/program files/microchip/xc8/v2.40/avr/bin/../lib/gcc/avr/5.4.0/../../../../avr/lib/avrxmega2/memx-const/mapped\libm.a(fixunssfsi.o)
                0x0000000000004cac                __fixunssfsi

.text.fputs     0x0000000000004d0a       0x5e
 .text.fputs    0x0000000000004d0a       0x5e c:/program files/microchip/xc8/v2.40/avr/bin/../lib/gcc/avr/5.4.0/../../../../avr/lib/avrxmega2/memx-const/mapped\libc.a(fputs.o)
                0x0000000000004d0a                fputs
                0x0000000000004d0a                fputs_unlocked

.text.USART0_Initialize
                0x0000000000004d68       0x5c
 .text.USART0_Initialize
                0x0000000000004d68       0x5c build/default/production/mcc_generated_files/uart/src/usart0.o
                0x0000000000004d68                USART0_Initialize

.text.read_prec_or_width
                0x0000000000004dc4       0x5c
 .text.read_prec_or_width
                0x0000000000004dc4       0x5c c:/program files/microchip/xc8/v2.40/avr/bin/../lib/gcc/avr/5.4.0/../../../../avr/lib/avrxmega2/memx-const/mapped\libc.a(__printf_core.o)

.text.__vector_31
                0x0000000000004e20       0x5a
 .text.__vector_31
                0x0000000000004e20       0x5a build/default/production/usart1.o
                0x0000000000004e20                __vector_31

.text.__vector_27
                0x0000000000004e7a       0x58
 .text.__vector_27
                0x0000000000004e7a       0x58 build/default/production/mcc_generated_files/adc/src/adc0.o
                0x0000000000004e7a                __vector_27

.text.__vector_26
                0x0000000000004ed2       0x58
 .text.__vector_26
                0x0000000000004ed2       0x58 build/default/production/mcc_generated_files/adc/src/adc0.o
                0x0000000000004ed2                __vector_26

.text.__vector_6
                0x0000000000004f2a       0x58
 .text.__vector_6
                0x0000000000004f2a       0x58 build/default/production/mcc_generated_files/timer/src/rtc.o
                0x0000000000004f2a                __vector_6

.text.RN2xx3_interface
                0x0000000000004f82       0x58
 .text.RN2xx3_interface
                0x0000000000004f82       0x58 build/default/production/RN2xx3.o
                0x0000000000004f82                RN2xx3_interface

.text._readFromTWI
                0x0000000000004fda       0x56
 .text._readFromTWI
                0x0000000000004fda       0x56 build/default/production/TWI.o
                0x0000000000004fda                _readFromTWI

.text.__fmt_s   0x0000000000005030       0x54
 .text.__fmt_s  0x0000000000005030       0x54 c:/program files/microchip/xc8/v2.40/avr/bin/../lib/gcc/avr/5.4.0/../../../../avr/lib/avrxmega2/memx-const/mapped\libc.a(__fmt_s.o)
                0x0000000000005030                __fmt_s
                0x0000000000005030                __fmt_0_needed
                0x0000000000005030                __fmt_s_needed

.text._writeToTWI
                0x0000000000005084       0x4e
 .text._writeToTWI
                0x0000000000005084       0x4e build/default/production/TWI.o
                0x0000000000005084                _writeToTWI

.text.EVSYS_Initialize
                0x00000000000050d2       0x4a
 .text.EVSYS_Initialize
                0x00000000000050d2       0x4a build/default/production/mcc_generated_files/evsys/src/evsys.o
                0x00000000000050d2                EVSYS_Initialize

.text._startTWI
                0x000000000000511c       0x4a
 .text._startTWI
                0x000000000000511c       0x4a build/default/production/TWI.o
                0x000000000000511c                _startTWI

.text.BME280_init
                0x0000000000005166       0x48
 .text.BME280_init
                0x0000000000005166       0x48 build/default/production/bme280.o
                0x0000000000005166                BME280_init

.text           0x00000000000051ae       0x48
 .text          0x00000000000051ae       0x48 c:/program files/microchip/xc8/v2.40/avr/bin/../lib/gcc/avr/5.4.0/../../../../avr/lib/avrxmega2/memx-const/mapped\libm.a(fp_cmp.o)
                0x00000000000051ae                __fp_cmp

.text.USART1_sendString
                0x00000000000051f6       0x44
 .text.USART1_sendString
                0x00000000000051f6       0x44 build/default/production/usart1_utilities.o
                0x00000000000051f6                USART1_sendString

.text           0x000000000000523a       0x44
 .text          0x000000000000523a       0x44 c:/program files/microchip/xc8/v2.40/avr/bin/../lib/gcc/avr/5.4.0/../../../../avr/lib/avrxmega2/memx-const/mapped\libm.a(fp_split3.o)
                0x000000000000523a                __fp_split3
                0x000000000000524a                __fp_splitA

.text.libgcc.div
                0x000000000000527e       0x44
 .text.libgcc.div
                0x000000000000527e       0x44 c:/program files/microchip/xc8/v2.40/avr/bin/../lib/gcc/avr/5.4.0/avrxmega2/memx-const/mapped\libgcc.a(_udivmodsi4.o)
                0x000000000000527e                __udivmodsi4

.text.getSensorData
                0x00000000000052c2       0x40
 .text.getSensorData
                0x00000000000052c2       0x40 build/default/production/application.o
                0x00000000000052c2                getSensorData

.text.__fmt_state
                0x0000000000005302       0x40
 .text.__fmt_state
                0x0000000000005302       0x40 c:/program files/microchip/xc8/v2.40/avr/bin/../lib/gcc/avr/5.4.0/../../../../avr/lib/avrxmega2/memx-const/mapped\libc.a(__printf_core.o)
                0x0000000000005302                __fmt_state

.text.map       0x0000000000005342       0x3c
 .text.map      0x0000000000005342       0x3c build/default/production/application.o
                0x0000000000005342                map

.text.RTC_Initialize
                0x000000000000537e       0x3a
 .text.RTC_Initialize
                0x000000000000537e       0x3a build/default/production/mcc_generated_files/timer/src/rtc.o
                0x000000000000537e                RTC_Initialize

.text.__out     0x00000000000053b8       0x3a
 .text.__out    0x00000000000053b8       0x3a c:/program files/microchip/xc8/v2.40/avr/bin/../lib/gcc/avr/5.4.0/../../../../avr/lib/avrxmega2/memx-const/mapped\libc.a(__printf_core.o)
                0x00000000000053b8                __out

.text.main      0x00000000000053f2       0x34
 .text.main     0x00000000000053f2       0x34 build/default/production/main.o
                0x00000000000053f2                main

.text.BME280_startForcedSensing
                0x0000000000005426       0x34
 .text.BME280_startForcedSensing
                0x0000000000005426       0x34 build/default/production/bme280.o
                0x0000000000005426                BME280_startForcedSensing

.text.ADC0_Initialize
                0x000000000000545a       0x32
 .text.ADC0_Initialize
                0x000000000000545a       0x32 build/default/production/mcc_generated_files/adc/src/adc0.o
                0x000000000000545a                ADC0_Initialize

.text.libgcc.prologue
                0x000000000000548c       0x32
 .text.libgcc.prologue
                0x000000000000548c       0x32 c:/program files/microchip/xc8/v2.40/avr/bin/../lib/gcc/avr/5.4.0/avrxmega2/memx-const/mapped\libgcc.a(_prologue.o)
                0x000000000000548c                __prologue_saves__

.text.libgcc.prologue
                0x00000000000054be       0x30
 .text.libgcc.prologue
                0x00000000000054be       0x30 c:/program files/microchip/xc8/v2.40/avr/bin/../lib/gcc/avr/5.4.0/avrxmega2/memx-const/mapped\libgcc.a(_epilogue.o)
                0x00000000000054be                __epilogue_restores__

.text.__wrap_printf
                0x00000000000054ee       0x30
 .text.__wrap_printf
                0x00000000000054ee       0x30 c:/program files/microchip/xc8/v2.40/avr/bin/../lib/gcc/avr/5.4.0/../../../../avr/lib/avrxmega2/memx-const/mapped\libc.a(__sio_printf_dosux.o)
                0x00000000000054ee                _printf_cdopsuxX

.text.__wrap_printf
                0x000000000000551e       0x30
 .text.__wrap_printf
                0x000000000000551e       0x30 c:/program files/microchip/xc8/v2.40/avr/bin/../lib/gcc/avr/5.4.0/../../../../avr/lib/avrxmega2/memx-const/mapped\libc.a(__sio_printf_doux.o)
                0x000000000000551e                _printf_cdopuxX

.text.__wrap_printf
                0x000000000000554e       0x30
 .text.__wrap_printf
                0x000000000000554e       0x30 c:/program files/microchip/xc8/v2.40/avr/bin/../lib/gcc/avr/5.4.0/../../../../avr/lib/avrxmega2/memx-const/mapped\libc.a(__sio_printf_s.o)
                0x000000000000554e                _printf_s

.text.__vfprintf
                0x000000000000557e       0x30
 .text.__vfprintf
                0x000000000000557e       0x30 c:/program files/microchip/xc8/v2.40/avr/bin/../lib/gcc/avr/5.4.0/../../../../avr/lib/avrxmega2/memx-const/mapped\libc.a(__int_vfprintf.o)
                0x000000000000557e                __vfprintf

.text.ringBuffer_getChar
                0x00000000000055ae       0x2c
 .text.ringBuffer_getChar
                0x00000000000055ae       0x2c build/default/production/ringBuffer.o
                0x00000000000055ae                ringBuffer_getChar

.text.SYSTEM_Initialize
                0x00000000000055da       0x2a
 .text.SYSTEM_Initialize
                0x00000000000055da       0x2a build/default/production/mcc_generated_files/system/src/system.o
                0x00000000000055da                SYSTEM_Initialize

.text.BUTTON_debounce
                0x0000000000005604       0x2a
 .text.BUTTON_debounce
                0x0000000000005604       0x2a build/default/production/application.o
                0x0000000000005604                BUTTON_debounce

.text.BME280_reset
                0x000000000000562e       0x2a
 .text.BME280_reset
                0x000000000000562e       0x2a build/default/production/bme280.o
                0x000000000000562e                BME280_reset

.text.TWI_sendBytes
                0x0000000000005658       0x2a
 .text.TWI_sendBytes
                0x0000000000005658       0x2a build/default/production/TWI.o
                0x0000000000005658                TWI_sendBytes

.text.ringBuffer_loadCharacter
                0x0000000000005682       0x28
 .text.ringBuffer_loadCharacter
                0x0000000000005682       0x28 build/default/production/ringBuffer.o
                0x0000000000005682                ringBuffer_loadCharacter

.text.RTC_PIT_Callback
                0x00000000000056aa       0x28
 .text.RTC_PIT_Callback
                0x00000000000056aa       0x28 build/default/production/application.o
                0x00000000000056aa                RTC_PIT_Callback

.text.TCB0_Initialize
                0x00000000000056d2       0x26
 .text.TCB0_Initialize
                0x00000000000056d2       0x26 build/default/production/mcc_generated_files/timer/src/tcb0.o
                0x00000000000056d2                TCB0_Initialize

.text.USART1_init
                0x00000000000056f8       0x24
 .text.USART1_init
                0x00000000000056f8       0x24 build/default/production/usart1.o
                0x00000000000056f8                USART1_init

.text.__wrap_sprintf
                0x000000000000571c       0x24
 .text.__wrap_sprintf
                0x000000000000571c       0x24 c:/program files/microchip/xc8/v2.40/avr/bin/../lib/gcc/avr/5.4.0/../../../../avr/lib/avrxmega2/memx-const/mapped\libc.a(__sio_sprintf_doux.o)
                0x000000000000571c                _sprintf_cdopuxX

.text           0x0000000000005740       0x22
 .text          0x0000000000005740       0x22 c:/program files/microchip/xc8/v2.40/avr/bin/../lib/gcc/avr/5.4.0/../../../../avr/lib/avrxmega2/memx-const/mapped\libm.a(fp_round.o)
                0x0000000000005740                __fp_round

.text.ADC0_GetConversion
                0x0000000000005762       0x20
 .text.ADC0_GetConversion
                0x0000000000005762       0x20 build/default/production/mcc_generated_files/adc/src/adc0.o
                0x0000000000005762                ADC0_GetConversion

.text.printRawValue
                0x0000000000005782       0x20
 .text.printRawValue
                0x0000000000005782       0x20 build/default/production/application.o
                0x0000000000005782                printRawValue

.text.libgcc.mul
                0x00000000000057a2       0x20
 .text.libgcc.mul
                0x00000000000057a2       0x20 c:/program files/microchip/xc8/v2.40/avr/bin/../lib/gcc/avr/5.4.0/avrxmega2/memx-const/mapped\libgcc.a(_mulsi3.o)
                0x00000000000057a2                __mulsi3

.text.libgcc.mul
                0x00000000000057c2       0x1e
 .text.libgcc.mul
                0x00000000000057c2       0x1e c:/program files/microchip/xc8/v2.40/avr/bin/../lib/gcc/avr/5.4.0/avrxmega2/memx-const/mapped\libgcc.a(_umulhisi3.o)
                0x00000000000057c2                __umulhisi3

.text.SLPCTRL_Initialize
                0x00000000000057e0       0x1c
 .text.SLPCTRL_Initialize
                0x00000000000057e0       0x1c build/default/production/mcc_generated_files/system/src/system.o
                0x00000000000057e0                SLPCTRL_Initialize

.text.RN2xx3_save
                0x00000000000057fc       0x1c
 .text.RN2xx3_save
                0x00000000000057fc       0x1c build/default/production/RN2xx3.o
                0x00000000000057fc                RN2xx3_save

.text.USART1_sendByte
                0x0000000000005818       0x1c
 .text.USART1_sendByte
                0x0000000000005818       0x1c build/default/production/usart1.o
                0x0000000000005818                USART1_sendByte

.text.ringBuffer_peekChar
                0x0000000000005834       0x1c
 .text.ringBuffer_peekChar
                0x0000000000005834       0x1c build/default/production/ringBuffer.o
                0x0000000000005834                ringBuffer_peekChar

.text.isTWIBad  0x0000000000005850       0x1c
 .text.isTWIBad
                0x0000000000005850       0x1c build/default/production/TWI.o
                0x0000000000005850                isTWIBad

.text.TWI_initHost
                0x000000000000586c       0x1c
 .text.TWI_initHost
                0x000000000000586c       0x1c build/default/production/TWI.o
                0x000000000000586c                TWI_initHost

.text.strlen    0x0000000000005888       0x1c
 .text.strlen   0x0000000000005888       0x1c c:/program files/microchip/xc8/v2.40/avr/bin/../lib/gcc/avr/5.4.0/../../../../avr/lib/avrxmega2/memx-const/mapped\libc.a(strlen.o)
                0x0000000000005888                strlen

.text.CPUINT_Initialize
                0x00000000000058a4       0x1a
 .text.CPUINT_Initialize
                0x00000000000058a4       0x1a build/default/production/mcc_generated_files/system/src/interrupt.o
                0x00000000000058a4                CPUINT_Initialize

.text.USART0_printCHAR
                0x00000000000058be       0x18
 .text.USART0_printCHAR
                0x00000000000058be       0x18 build/default/production/mcc_generated_files/uart/src/usart0.o
                0x00000000000058be                USART0_printCHAR

.text.RN2xx3_cmd
                0x00000000000058d6       0x18
 .text.RN2xx3_cmd
                0x00000000000058d6       0x18 build/default/production/RN2xx3.o
                0x00000000000058d6                RN2xx3_cmd

.text.ringBuffer_incrementReadIndex
                0x00000000000058ee       0x18
 .text.ringBuffer_incrementReadIndex
                0x00000000000058ee       0x18 build/default/production/ringBuffer.o
                0x00000000000058ee                ringBuffer_incrementReadIndex

.text.BME280_getTemperature
                0x0000000000005906       0x16
 .text.BME280_getTemperature
                0x0000000000005906       0x16 build/default/production/bme280.o
                0x0000000000005906                BME280_getTemperature

.text.BME280_getHumidity
                0x000000000000591c       0x16
 .text.BME280_getHumidity
                0x000000000000591c       0x16 build/default/production/bme280.o
                0x000000000000591c                BME280_getHumidity

.text.libgcc.mul
                0x0000000000005932       0x16
 .text.libgcc.mul
                0x0000000000005932       0x16 c:/program files/microchip/xc8/v2.40/avr/bin/../lib/gcc/avr/5.4.0/avrxmega2/memx-const/mapped\libgcc.a(_muluhisi3.o)
                0x0000000000005932                __muluhisi3

.text.exit      0x0000000000005948       0x16
 .text.exit     0x0000000000005948       0x16 c:/program files/microchip/xc8/v2.40/avr/bin/../lib/gcc/avr/5.4.0/../../../../avr/lib/avrxmega2/memx-const/mapped\libc.a(exit.o)
                0x0000000000005948                exit

.text.ringBuffer_incrementWriteIndex
                0x000000000000595e       0x12
 .text.ringBuffer_incrementWriteIndex
                0x000000000000595e       0x12 build/default/production/ringBuffer.o
                0x000000000000595e                ringBuffer_incrementWriteIndex

.text.puts      0x0000000000005970       0x12
 .text.puts     0x0000000000005970       0x12 c:/program files/microchip/xc8/v2.40/avr/bin/../lib/gcc/avr/5.4.0/../../../../avr/lib/avrxmega2/memx-const/mapped\libc.a(puts.o)
                0x0000000000005970                puts

.text.toupper   0x0000000000005982       0x12
 .text.toupper  0x0000000000005982       0x12 c:/program files/microchip/xc8/v2.40/avr/bin/../lib/gcc/avr/5.4.0/../../../../avr/lib/avrxmega2/memx-const/mapped\libc.a(toupper.o)
                0x0000000000005982                toupper

.text.VREF_Initialize
                0x0000000000005994       0x10
 .text.VREF_Initialize
                0x0000000000005994       0x10 build/default/production/mcc_generated_files/vref/src/vref.o
                0x0000000000005994                VREF_Initialize

.text.configureTWIPins
                0x00000000000059a4       0x10
 .text.configureTWIPins
                0x00000000000059a4       0x10 build/default/production/TWI.o
                0x00000000000059a4                configureTWIPins

.text.libgcc.mul
                0x00000000000059b4       0x10
 .text.libgcc.mul
                0x00000000000059b4       0x10 c:/program files/microchip/xc8/v2.40/avr/bin/../lib/gcc/avr/5.4.0/avrxmega2/memx-const/mapped\libgcc.a(_mulshisi3.o)
                0x00000000000059b4                __mulshisi3
                0x00000000000059ba                __mulohisi3

.text.tolower   0x00000000000059c4       0x10
 .text.tolower  0x00000000000059c4       0x10 c:/program files/microchip/xc8/v2.40/avr/bin/../lib/gcc/avr/5.4.0/../../../../avr/lib/avrxmega2/memx-const/mapped\libc.a(tolower.o)
                0x00000000000059c4                tolower

.text.ringBuffer_createBuffer
                0x00000000000059d4        0xe
 .text.ringBuffer_createBuffer
                0x00000000000059d4        0xe build/default/production/ringBuffer.o
                0x00000000000059d4                ringBuffer_createBuffer

.text.ringBuffer_isEmpty
                0x00000000000059e2        0xe
 .text.ringBuffer_isEmpty
                0x00000000000059e2        0xe build/default/production/ringBuffer.o
                0x00000000000059e2                ringBuffer_isEmpty

.text           0x00000000000059f0        0xe
 .text          0x00000000000059f0        0xe c:/program files/microchip/xc8/v2.40/avr/bin/../lib/gcc/avr/5.4.0/../../../../avr/lib/avrxmega2/memx-const/mapped\libm.a(addsf3.o)
                0x00000000000059f0                __subsf3
                0x00000000000059f2                __addsf3

.text           0x00000000000059fe        0xe
 .text          0x00000000000059fe        0xe c:/program files/microchip/xc8/v2.40/avr/bin/../lib/gcc/avr/5.4.0/../../../../avr/lib/avrxmega2/memx-const/mapped\libm.a(fixsfsi.o)
                0x00000000000059fe                __fixsfsi

.text           0x0000000000005a0c        0xe
 .text          0x0000000000005a0c        0xe c:/program files/microchip/xc8/v2.40/avr/bin/../lib/gcc/avr/5.4.0/../../../../avr/lib/avrxmega2/memx-const/mapped\libm.a(fp_pscA.o)
                0x0000000000005a0c                __fp_pscA

.text           0x0000000000005a1a        0xe
 .text          0x0000000000005a1a        0xe c:/program files/microchip/xc8/v2.40/avr/bin/../lib/gcc/avr/5.4.0/../../../../avr/lib/avrxmega2/memx-const/mapped\libm.a(fp_pscB.o)
                0x0000000000005a1a                __fp_pscB

.text           0x0000000000005a28        0xe
 .text          0x0000000000005a28        0xe c:/program files/microchip/xc8/v2.40/avr/bin/../lib/gcc/avr/5.4.0/../../../../avr/lib/avrxmega2/memx-const/mapped\libm.a(fp_zero.o)
                0x0000000000005a28                __fp_zero
                0x0000000000005a2a                __fp_szero

.text.__vsprintf
                0x0000000000005a36        0xe
 .text.__vsprintf
                0x0000000000005a36        0xe c:/program files/microchip/xc8/v2.40/avr/bin/../lib/gcc/avr/5.4.0/../../../../avr/lib/avrxmega2/memx-const/mapped\libc.a(__int_vsprintf.o)
                0x0000000000005a36                __vsprintf

.text.RTC_Start
                0x0000000000005a44        0xc
 .text.RTC_Start
                0x0000000000005a44        0xc build/default/production/mcc_generated_files/timer/src/rtc.o
                0x0000000000005a44                RTC_Start

.text.RTC_Stop  0x0000000000005a50        0xc
 .text.RTC_Stop
                0x0000000000005a50        0xc build/default/production/mcc_generated_files/timer/src/rtc.o
                0x0000000000005a50                RTC_Stop

.text.USART0_IsRxReady
                0x0000000000005a5c        0xc
 .text.USART0_IsRxReady
                0x0000000000005a5c        0xc build/default/production/mcc_generated_files/uart/src/usart0.o
                0x0000000000005a5c                USART0_IsRxReady

.text.USART0_IsTxReady
                0x0000000000005a68        0xc
 .text.USART0_IsTxReady
                0x0000000000005a68        0xc build/default/production/mcc_generated_files/uart/src/usart0.o
                0x0000000000005a68                USART0_IsTxReady

.text.loadCharacterToBuffer
                0x0000000000005a74        0xc
 .text.loadCharacterToBuffer
                0x0000000000005a74        0xc build/default/production/RN2xx3.o
                0x0000000000005a74                loadCharacterToBuffer

.text.USART1_enableTX
                0x0000000000005a80        0xc
 .text.USART1_enableTX
                0x0000000000005a80        0xc build/default/production/usart1.o
                0x0000000000005a80                USART1_enableTX

.text.USART1_enableRX
                0x0000000000005a8c        0xc
 .text.USART1_enableRX
                0x0000000000005a8c        0xc build/default/production/usart1.o
                0x0000000000005a8c                USART1_enableRX

.text.USART1_canTransmit
                0x0000000000005a98        0xc
 .text.USART1_canTransmit
                0x0000000000005a98        0xc build/default/production/usart1.o
                0x0000000000005a98                USART1_canTransmit

.text.getMoistureMeasurement
                0x0000000000005aa4        0xc
 .text.getMoistureMeasurement
                0x0000000000005aa4        0xc build/default/production/application.o
                0x0000000000005aa4                getMoistureMeasurement

.text           0x0000000000005ab0        0xc
 .text          0x0000000000005ab0        0xc c:/program files/microchip/xc8/v2.40/avr/bin/../lib/gcc/avr/5.4.0/../../../../avr/lib/avrxmega2/memx-const/mapped\libm.a(fp_inf.o)
                0x0000000000005ab0                __fp_inf

.text.libgcc    0x0000000000005abc        0xc
 .text.libgcc   0x0000000000005abc        0xc c:/program files/microchip/xc8/v2.40/avr/bin/../lib/gcc/avr/5.4.0/avrxmega2/memx-const/mapped\libgcc.a(_tablejump2.o)
                0x0000000000005abc                __tablejump2__

.text.TCB0_CaptureCallbackRegister
                0x0000000000005ac8        0xa
 .text.TCB0_CaptureCallbackRegister
                0x0000000000005ac8        0xa build/default/production/mcc_generated_files/timer/src/tcb0.o
                0x0000000000005ac8                TCB0_CaptureCallbackRegister

.text.RTC_SetPITIsrCallback
                0x0000000000005ad2        0xa
 .text.RTC_SetPITIsrCallback
                0x0000000000005ad2        0xa build/default/production/mcc_generated_files/timer/src/rtc.o
                0x0000000000005ad2                RTC_SetPITIsrCallback

.text.USART1_setRXCallback
                0x0000000000005adc        0xa
 .text.USART1_setRXCallback
                0x0000000000005adc        0xa build/default/production/usart1.o
                0x0000000000005adc                USART1_setRXCallback

.text.BME280_readSensors
                0x0000000000005ae6        0xa
 .text.BME280_readSensors
                0x0000000000005ae6        0xa build/default/production/application.o
                0x0000000000005ae6                BME280_readSensors

.text           0x0000000000005af0        0xa
 .text          0x0000000000005af0        0xa c:/program files/microchip/xc8/v2.40/avr/bin/../lib/gcc/avr/5.4.0/../../../../avr/lib/avrxmega2/memx-const/mapped\libm.a(cmpsf2.o)
                0x0000000000005af0                __nesf2
                0x0000000000005af0                __eqsf2
                0x0000000000005af0                __cmpsf2
                0x0000000000005af0                __ltsf2
                0x0000000000005af0                __lesf2

.text           0x0000000000005afa        0xa
 .text          0x0000000000005afa        0xa c:/program files/microchip/xc8/v2.40/avr/bin/../lib/gcc/avr/5.4.0/../../../../avr/lib/avrxmega2/memx-const/mapped\libm.a(gesf2.o)
                0x0000000000005afa                __gesf2
                0x0000000000005afa                __gtsf2

.text.ADC0_IsConversionDone
                0x0000000000005b04        0x8
 .text.ADC0_IsConversionDone
                0x0000000000005b04        0x8 build/default/production/mcc_generated_files/adc/src/adc0.o
                0x0000000000005b04                ADC0_IsConversionDone

.text.protected_write_io
                0x0000000000005b0c        0x8
 .text.protected_write_io
                0x0000000000005b0c        0x8 build/default/production/mcc_generated_files/system/src/protected_io.o
                0x0000000000005b0c                protected_write_io

.text.ringBuffer_flushReadBuffer
                0x0000000000005b14        0x8
 .text.ringBuffer_flushReadBuffer
                0x0000000000005b14        0x8 build/default/production/ringBuffer.o
                0x0000000000005b14                ringBuffer_flushReadBuffer

.text           0x0000000000005b1c        0x8
 .text          0x0000000000005b1c        0x8 c:/program files/microchip/xc8/v2.40/avr/bin/../lib/gcc/avr/5.4.0/../../../../avr/lib/avrxmega2/memx-const/mapped\libm.a(divsf3.o)
                0x0000000000005b1c                __divsf3

.text           0x0000000000005b24        0x8
 .text          0x0000000000005b24        0x8 c:/program files/microchip/xc8/v2.40/avr/bin/../lib/gcc/avr/5.4.0/../../../../avr/lib/avrxmega2/memx-const/mapped\libm.a(mulsf3.o)
                0x0000000000005b24                __mulsf3

.text.USART0_Read
                0x0000000000005b2c        0x6
 .text.USART0_Read
                0x0000000000005b2c        0x6 build/default/production/mcc_generated_files/uart/src/usart0.o
                0x0000000000005b2c                USART0_Read

.text.USART0_Write
                0x0000000000005b32        0x6
 .text.USART0_Write
                0x0000000000005b32        0x6 build/default/production/mcc_generated_files/uart/src/usart0.o
                0x0000000000005b32                USART0_Write

.text.RN2xx3_config_TTN
                0x0000000000005b38        0x6
 .text.RN2xx3_config_TTN
                0x0000000000005b38        0x6 build/default/production/RN2xx3.o
                0x0000000000005b38                RN2xx3_config_TTN

.text.RN2xx3_join_TTN
                0x0000000000005b3e        0x6
 .text.RN2xx3_join_TTN
                0x0000000000005b3e        0x6 build/default/production/RN2xx3.o
                0x0000000000005b3e                RN2xx3_join_TTN

.text           0x0000000000005b44        0x6
 .text          0x0000000000005b44        0x6 c:/program files/microchip/xc8/v2.40/avr/bin/../lib/gcc/avr/5.4.0/../../../../avr/lib/avrxmega2/memx-const/mapped\libm.a(fp_nan.o)
                0x0000000000005b44                __fp_nan

.text           0x0000000000005b4a        0x4
 .text          0x0000000000005b4a        0x4 C:/Users/C70348/.mchp_packs/Microchip/AVR-Dx_DFP/2.1.152/xc8/avr/lib/avrxmega2/memx-const/mapped/crtavr64dd32.o
                0x0000000000005b4a                __vector_22
                0x0000000000005b4a                __vector_28
                0x0000000000005b4a                __vector_1
                0x0000000000005b4a                __vector_32
                0x0000000000005b4a                __vector_12
                0x0000000000005b4a                __bad_interrupt
                0x0000000000005b4a                __vector_35
                0x0000000000005b4a                __vector_3
                0x0000000000005b4a                __vector_23
                0x0000000000005b4a                __vector_30
                0x0000000000005b4a                __vector_25
                0x0000000000005b4a                __vector_11
                0x0000000000005b4a                __vector_13
                0x0000000000005b4a                __vector_17
                0x0000000000005b4a                __vector_19
                0x0000000000005b4a                __vector_7
                0x0000000000005b4a                __vector_33
                0x0000000000005b4a                __vector_4
                0x0000000000005b4a                __vector_9
                0x0000000000005b4a                __vector_2
                0x0000000000005b4a                __vector_21
                0x0000000000005b4a                __vector_15
                0x0000000000005b4a                __vector_10
                0x0000000000005b4a                __vector_16
                0x0000000000005b4a                __vector_18
                0x0000000000005b4a                __vector_20

.text.fabsf     0x0000000000005b4e        0x4
 .text.fabsf    0x0000000000005b4e        0x4 c:/program files/microchip/xc8/v2.40/avr/bin/../lib/gcc/avr/5.4.0/../../../../avr/lib/avrxmega2/memx-const/mapped\libm.a(fabsf.o)
                0x0000000000005b4e                fabsf

.text._Exit     0x0000000000005b52        0x4
 .text._Exit    0x0000000000005b52        0x4 c:/program files/microchip/xc8/v2.40/avr/bin/../lib/gcc/avr/5.4.0/../../../../avr/lib/avrxmega2/memx-const/mapped\libc.a(_Exit.o)
                0x0000000000005b52                _Exit

.text.PD5_DefaultInterruptHandler
                0x0000000000005b56        0x2
 .text.PD5_DefaultInterruptHandler
                0x0000000000005b56        0x2 build/default/production/mcc_generated_files/system/src/pins.o
                0x0000000000005b56                PD5_DefaultInterruptHandler

.text.PD4_DefaultInterruptHandler
                0x0000000000005b58        0x2
 .text.PD4_DefaultInterruptHandler
                0x0000000000005b58        0x2 build/default/production/mcc_generated_files/system/src/pins.o
                0x0000000000005b58                PD4_DefaultInterruptHandler

.text.PC1_DefaultInterruptHandler
                0x0000000000005b5a        0x2
 .text.PC1_DefaultInterruptHandler
                0x0000000000005b5a        0x2 build/default/production/mcc_generated_files/system/src/pins.o
                0x0000000000005b5a                PC1_DefaultInterruptHandler

.text.PF6_DefaultInterruptHandler
                0x0000000000005b5c        0x2
 .text.PF6_DefaultInterruptHandler
                0x0000000000005b5c        0x2 build/default/production/mcc_generated_files/system/src/pins.o
                0x0000000000005b5c                PF6_DefaultInterruptHandler

.text.PA0_DefaultInterruptHandler
                0x0000000000005b5e        0x2
 .text.PA0_DefaultInterruptHandler
                0x0000000000005b5e        0x2 build/default/production/mcc_generated_files/system/src/pins.o
                0x0000000000005b5e                PA0_DefaultInterruptHandler

.text.PA1_DefaultInterruptHandler
                0x0000000000005b60        0x2
 .text.PA1_DefaultInterruptHandler
                0x0000000000005b60        0x2 build/default/production/mcc_generated_files/system/src/pins.o
                0x0000000000005b60                PA1_DefaultInterruptHandler

.text.PC0_DefaultInterruptHandler
                0x0000000000005b62        0x2
 .text.PC0_DefaultInterruptHandler
                0x0000000000005b62        0x2 build/default/production/mcc_generated_files/system/src/pins.o
                0x0000000000005b62                PC0_DefaultInterruptHandler

.text.PC2_DefaultInterruptHandler
                0x0000000000005b64        0x2
 .text.PC2_DefaultInterruptHandler
                0x0000000000005b64        0x2 build/default/production/mcc_generated_files/system/src/pins.o
                0x0000000000005b64                PC2_DefaultInterruptHandler

.text.PD1_DefaultInterruptHandler
                0x0000000000005b66        0x2
 .text.PD1_DefaultInterruptHandler
                0x0000000000005b66        0x2 build/default/production/mcc_generated_files/system/src/pins.o
                0x0000000000005b66                PD1_DefaultInterruptHandler

.text.PF5_DefaultInterruptHandler
                0x0000000000005b68        0x2
 .text.PF5_DefaultInterruptHandler
                0x0000000000005b68        0x2 build/default/production/mcc_generated_files/system/src/pins.o
                0x0000000000005b68                PF5_DefaultInterruptHandler

.text.USART0_DefaultFramingErrorCallback
                0x0000000000005b6a        0x2
 .text.USART0_DefaultFramingErrorCallback
                0x0000000000005b6a        0x2 build/default/production/mcc_generated_files/uart/src/usart0.o

.text.USART0_DefaultOverrunErrorCallback
                0x0000000000005b6c        0x2
 .text.USART0_DefaultOverrunErrorCallback
                0x0000000000005b6c        0x2 build/default/production/mcc_generated_files/uart/src/usart0.o

.text.USART0_DefaultParityErrorCallback
                0x0000000000005b6e        0x2
 .text.USART0_DefaultParityErrorCallback
                0x0000000000005b6e        0x2 build/default/production/mcc_generated_files/uart/src/usart0.o

.text.__dummy_fini
                0x0000000000005b70        0x2
 .text.__dummy_fini
                0x0000000000005b70        0x2 c:/program files/microchip/xc8/v2.40/avr/bin/../lib/gcc/avr/5.4.0/../../../../avr/lib/avrxmega2/memx-const/mapped\libc.a(exit.o)
                0x0000000000005b70                _fini

.text.__dummy_funcs_on_exit
                0x0000000000005b72        0x2
 .text.__dummy_funcs_on_exit
                0x0000000000005b72        0x2 c:/program files/microchip/xc8/v2.40/avr/bin/../lib/gcc/avr/5.4.0/../../../../avr/lib/avrxmega2/memx-const/mapped\libc.a(exit.o)
                0x0000000000005b72                __funcs_on_exit

.text.__dummy_simulator_exit
                0x0000000000005b74        0x2
 .text.__dummy_simulator_exit
                0x0000000000005b74        0x2 c:/program files/microchip/xc8/v2.40/avr/bin/../lib/gcc/avr/5.4.0/../../../../avr/lib/avrxmega2/memx-const/mapped\libc.a(exit.o)
                0x0000000000005b74                __simulator_exit

.rodata.state_table
                0x0000000000806221       0x16 load address 0x0000000000005b76
 .rodata.state_table
                0x0000000000806221       0x16 c:/program files/microchip/xc8/v2.40/avr/bin/../lib/gcc/avr/5.4.0/../../../../avr/lib/avrxmega2/memx-const/mapped\libc.a(__printf_core.o)

.data.USART0_stream
                0x0000000000806248       0x10 load address 0x0000000000005b8c
 .data.USART0_stream
                0x0000000000806248       0x10 build/default/production/mcc_generated_files/uart/src/usart0.o
                0x0000000000806248                USART0_stream

.rodata.dp_l    0x0000000000806263        0x8 load address 0x0000000000005b9c
 .rodata.dp_l   0x0000000000806263        0x8 c:/program files/microchip/xc8/v2.40/avr/bin/../lib/gcc/avr/5.4.0/../../../../avr/lib/avrxmega2/memx-const/mapped\libm.a(powf.o)

.rodata.dp_h    0x000000000080626b        0x8 load address 0x0000000000005ba4
 .rodata.dp_h   0x000000000080626b        0x8 c:/program files/microchip/xc8/v2.40/avr/bin/../lib/gcc/avr/5.4.0/../../../../avr/lib/avrxmega2/memx-const/mapped\libm.a(powf.o)

.rodata.bp      0x0000000000806273        0x8 load address 0x0000000000005bac
 .rodata.bp     0x0000000000806273        0x8 c:/program files/microchip/xc8/v2.40/avr/bin/../lib/gcc/avr/5.4.0/../../../../avr/lib/avrxmega2/memx-const/mapped\libm.a(powf.o)

.rodata.nuls.2781
                0x000000000080627b        0x7 load address 0x0000000000005bb4
 .rodata.nuls.2781
                0x000000000080627b        0x7 c:/program files/microchip/xc8/v2.40/avr/bin/../lib/gcc/avr/5.4.0/../../../../avr/lib/avrxmega2/memx-const/mapped\libc.a(__fmt_s.o)

.rodata.nilstr.2962
                0x0000000000806282        0x6 load address 0x0000000000005bbb
 .rodata.nilstr.2962
                0x0000000000806282        0x6 c:/program files/microchip/xc8/v2.40/avr/bin/../lib/gcc/avr/5.4.0/../../../../avr/lib/avrxmega2/memx-const/mapped\libc.a(__printf_core.o)

.data._stdout   0x00000000008062da        0x2 load address 0x0000000000005bc1
 .data._stdout  0x00000000008062da        0x2 c:/program files/microchip/xc8/v2.40/avr/bin/../lib/gcc/avr/5.4.0/../../../../avr/lib/avrxmega2/memx-const/mapped\libc.a(stdout.o)
                0x00000000008062da                _stdout

.data.state     0x00000000008062e0        0x1 load address 0x0000000000005bc3
 .data.state    0x00000000008062e0        0x1 build/default/production/application.o
